

Microchip MPLAB XC8 Assembler V2.10 build 88905656 
                                                                                               Sat Jul 18 02:35:15 2020

Microchip MPLAB XC8 C Compiler v2.10 (Free license) build 20190730164152 Og1 
     1                           	processor	16F877A
     2                           	opt	pw 120
     3                           	opt	flic
     4                           	psect	idataBANK0,global,class=CODE,delta=2
     5                           	psect	cinit,global,class=CODE,merge=1,delta=2
     6                           	psect	bssBANK0,global,class=BANK0,space=1,delta=1
     7                           	psect	dataBANK0,global,class=BANK0,space=1,delta=1
     8                           	psect	bssBANK1,global,class=BANK1,space=1,delta=1
     9                           	psect	inittext,global,class=CODE,delta=2
    10                           	psect	clrtext,global,class=CODE,delta=2
    11                           	psect	cstackCOMMON,global,class=COMMON,space=1,delta=1
    12                           	psect	cstackBANK0,global,class=BANK0,space=1,delta=1
    13                           	psect	maintext,global,class=CODE,split=1,delta=2
    14                           	psect	text1,local,class=CODE,merge=1,delta=2
    15                           	psect	text2,local,class=CODE,merge=1,delta=2
    16                           	psect	text3,local,class=CODE,merge=1,delta=2
    17                           	psect	text4,local,class=CODE,merge=1,delta=2
    18                           	psect	text5,local,class=CODE,merge=1,delta=2,group=1
    19                           	psect	text6,local,class=CODE,merge=1,delta=2
    20                           	psect	text7,local,class=CODE,merge=1,delta=2
    21                           	psect	text8,local,class=CODE,merge=1,delta=2
    22                           	psect	text9,local,class=CODE,merge=1,delta=2
    23                           	psect	text10,local,class=CODE,merge=1,delta=2
    24                           	psect	text11,local,class=CODE,merge=1,delta=2
    25                           	psect	text12,local,class=CODE,merge=1,delta=2
    26                           	psect	text13,local,class=CODE,merge=1,delta=2
    27                           	psect	text14,local,class=CODE,merge=1,delta=2
    28                           	psect	text15,local,class=CODE,merge=1,delta=2
    29                           	psect	text16,local,class=CODE,merge=1,delta=2
    30                           	psect	text17,local,class=CODE,merge=1,delta=2
    31                           	psect	text18,local,class=CODE,merge=1,delta=2
    32                           	psect	text19,local,class=CODE,merge=1,delta=2,group=1
    33                           	psect	text20,local,class=CODE,merge=1,delta=2
    34                           	psect	text21,local,class=CODE,merge=1,delta=2
    35                           	psect	text22,local,class=CODE,merge=1,delta=2
    36                           	psect	text23,local,class=CODE,merge=1,delta=2
    37                           	psect	text24,local,class=CODE,merge=1,delta=2
    38                           	psect	text25,local,class=CODE,merge=1,delta=2
    39                           	psect	text26,local,class=CODE,merge=1,delta=2
    40                           	psect	text27,local,class=CODE,merge=1,delta=2
    41                           	psect	text28,local,class=CODE,merge=1,delta=2
    42                           	psect	text29,local,class=CODE,merge=1,delta=2
    43                           	psect	text30,local,class=CODE,merge=1,delta=2
    44                           	psect	text31,local,class=CODE,merge=1,delta=2
    45                           	psect	text32,local,class=CODE,merge=1,delta=2
    46                           	psect	text33,local,class=CODE,merge=1,delta=2
    47                           	psect	text34,local,class=CODE,merge=1,delta=2,group=1
    48                           	psect	text35,local,class=CODE,merge=1,delta=2,group=1
    49                           	psect	text36,local,class=CODE,merge=1,delta=2
    50                           	psect	text37,local,class=CODE,merge=1,delta=2
    51                           	psect	text38,local,class=CODE,merge=1,delta=2
    52                           	psect	text39,local,class=CODE,merge=1,delta=2
    53                           	psect	text40,local,class=CODE,merge=1,delta=2
    54                           	psect	text41,local,class=CODE,merge=1,delta=2
    55                           	psect	text42,local,class=CODE,merge=1,delta=2
    56                           	psect	text43,local,class=CODE,merge=1,delta=2
    57                           	psect	text44,local,class=CODE,merge=1,delta=2
    58                           	psect	text45,local,class=CODE,merge=1,delta=2
    59                           	psect	text46,local,class=CODE,merge=1,delta=2
    60                           	psect	text47,local,class=CODE,merge=1,delta=2
    61                           	psect	text48,local,class=CODE,merge=1,delta=2
    62                           	psect	text49,local,class=CODE,merge=1,delta=2,group=1
    63                           	psect	text50,local,class=CODE,merge=1,delta=2
    64                           	psect	text51,local,class=CODE,merge=1,delta=2
    65                           	psect	text52,local,class=CODE,merge=1,delta=2
    66                           	psect	intentry,global,class=CODE,delta=2
    67                           	psect	text53,local,class=CODE,merge=1,delta=2
    68                           	psect	text54,local,class=CODE,merge=1,delta=2
    69                           	psect	functab,global,class=ENTRY,delta=2
    70                           	dabs	1,0x7E,2
    71  0000                     
    72                           ; Version 2.10
    73                           ; Generated 31/07/2019 GMT
    74                           ; 
    75                           ; Copyright © 2019, Microchip Technology Inc. and its subsidiaries ("Microchip")
    76                           ; All rights reserved.
    77                           ; 
    78                           ; This software is developed by Microchip Technology Inc. and its subsidiaries ("Microch
      +                          ip").
    79                           ; 
    80                           ; Redistribution and use in source and binary forms, with or without modification, are
    81                           ; permitted provided that the following conditions are met:
    82                           ; 
    83                           ;     1. Redistributions of source code must retain the above copyright notice, this lis
      +                          t of
    84                           ;        conditions and the following disclaimer.
    85                           ; 
    86                           ;     2. Redistributions in binary form must reproduce the above copyright notice, this 
      +                          list
    87                           ;        of conditions and the following disclaimer in the documentation and/or other
    88                           ;        materials provided with the distribution.
    89                           ; 
    90                           ;     3. Microchip's name may not be used to endorse or promote products derived from th
      +                          is
    91                           ;        software without specific prior written permission.
    92                           ; 
    93                           ; THIS SOFTWARE IS PROVIDED BY MICROCHIP "AS IS" AND ANY EXPRESS OR IMPLIED WARRANTIES,
    94                           ; INCLUDING, BUT NOT LIMITED TO, THE IMPLIED WARRANTIES OF MERCHANTABILITY AND FITNESS F
      +                          OR
    95                           ; PURPOSE ARE DISCLAIMED.  IN NO EVENT SHALL MICROCHIP BE LIABLE FOR ANY DIRECT, INDIREC
      +                          T,
    96                           ; INCIDENTAL, SPECIAL, EXEMPLARY, OR CONSEQUENTIAL DAMAGES (INCLUDING BUT NOT LIMITED TO
    97                           ; PROCUREMENT OF SUBSTITUTE GOODS OR SERVICES; LOSS OF USE, DATA OR PROFITS; OR BUSINESS
    98                           ; INTERRUPTION) HOWSOEVER CAUSED AND ON ANY THEORY OF LIABILITY, WHETHER IN CONTRACT, ST
      +                          RICT
    99                           ; LIABILITY, OR TORT (INCLUDING NEGLIGENCE OR OTHERWISE) ARISING IN ANY WAY OUT OF THE U
      +                          SE OF
   100                           ; THIS SOFTWARE, EVEN IF ADVISED OF THE POSSIBILITY OF SUCH DAMAGE.
   101                           ; 
   102                           ; 
   103                           ; Code-generator required, PIC16F877A Definitions
   104                           ; 
   105                           ; SFR Addresses
   106  0000                     	;# 
   107  0001                     	;# 
   108  0002                     	;# 
   109  0003                     	;# 
   110  0004                     	;# 
   111  0005                     	;# 
   112  0006                     	;# 
   113  0007                     	;# 
   114  0008                     	;# 
   115  0009                     	;# 
   116  000A                     	;# 
   117  000B                     	;# 
   118  000C                     	;# 
   119  000D                     	;# 
   120  000E                     	;# 
   121  000E                     	;# 
   122  000F                     	;# 
   123  0010                     	;# 
   124  0011                     	;# 
   125  0012                     	;# 
   126  0013                     	;# 
   127  0014                     	;# 
   128  0015                     	;# 
   129  0015                     	;# 
   130  0016                     	;# 
   131  0017                     	;# 
   132  0018                     	;# 
   133  0019                     	;# 
   134  001A                     	;# 
   135  001B                     	;# 
   136  001B                     	;# 
   137  001C                     	;# 
   138  001D                     	;# 
   139  001E                     	;# 
   140  001F                     	;# 
   141  0081                     	;# 
   142  0085                     	;# 
   143  0086                     	;# 
   144  0087                     	;# 
   145  0088                     	;# 
   146  0089                     	;# 
   147  008C                     	;# 
   148  008D                     	;# 
   149  008E                     	;# 
   150  0091                     	;# 
   151  0092                     	;# 
   152  0093                     	;# 
   153  0094                     	;# 
   154  0098                     	;# 
   155  0099                     	;# 
   156  009C                     	;# 
   157  009D                     	;# 
   158  009E                     	;# 
   159  009F                     	;# 
   160  010C                     	;# 
   161  010D                     	;# 
   162  010E                     	;# 
   163  010F                     	;# 
   164  018C                     	;# 
   165  018D                     	;# 
   166  0000                     	;# 
   167  0001                     	;# 
   168  0002                     	;# 
   169  0003                     	;# 
   170  0004                     	;# 
   171  0005                     	;# 
   172  0006                     	;# 
   173  0007                     	;# 
   174  0008                     	;# 
   175  0009                     	;# 
   176  000A                     	;# 
   177  000B                     	;# 
   178  000C                     	;# 
   179  000D                     	;# 
   180  000E                     	;# 
   181  000E                     	;# 
   182  000F                     	;# 
   183  0010                     	;# 
   184  0011                     	;# 
   185  0012                     	;# 
   186  0013                     	;# 
   187  0014                     	;# 
   188  0015                     	;# 
   189  0015                     	;# 
   190  0016                     	;# 
   191  0017                     	;# 
   192  0018                     	;# 
   193  0019                     	;# 
   194  001A                     	;# 
   195  001B                     	;# 
   196  001B                     	;# 
   197  001C                     	;# 
   198  001D                     	;# 
   199  001E                     	;# 
   200  001F                     	;# 
   201  0081                     	;# 
   202  0085                     	;# 
   203  0086                     	;# 
   204  0087                     	;# 
   205  0088                     	;# 
   206  0089                     	;# 
   207  008C                     	;# 
   208  008D                     	;# 
   209  008E                     	;# 
   210  0091                     	;# 
   211  0092                     	;# 
   212  0093                     	;# 
   213  0094                     	;# 
   214  0098                     	;# 
   215  0099                     	;# 
   216  009C                     	;# 
   217  009D                     	;# 
   218  009E                     	;# 
   219  009F                     	;# 
   220  010C                     	;# 
   221  010D                     	;# 
   222  010E                     	;# 
   223  010F                     	;# 
   224  018C                     	;# 
   225  018D                     	;# 
   226                           
   227                           	psect	idataBANK0
   228  1422                     __pidataBANK0:	
   229                           
   230                           ;initializer for SevenSegment_Display@F56
   231  1422  343F               	retlw	63
   232  1423  3406               	retlw	6
   233  1424  345B               	retlw	91
   234  1425  344F               	retlw	79
   235  1426  3466               	retlw	102
   236  1427  346D               	retlw	109
   237  1428  347D               	retlw	125
   238  1429  3407               	retlw	7
   239  142A  347F               	retlw	127
   240  142B  346F               	retlw	111
   241                           
   242                           ;initializer for _Timer1_config_t
   243  142C  3400               	retlw	0
   244  142D  3400               	retlw	0
   245  142E  3402               	retlw	2
   246                           
   247                           ;initializer for _g_u8Heater_real_time_temperature
   248  142F  343C               	retlw	60
   249                           
   250                           ;initializer for _g_u8Heater_desired_temperature
   251  1430  343C               	retlw	60
   252                           
   253                           ; #config settings
   254  0000                     
   255                           	psect	cinit
   256  0015                     start_initialization:	
   257  0015                     __initialization:	
   258                           
   259                           ; Initialize objects allocated to BANK0
   260  0015  1383               	bcf	3,7	;select IRP bank0
   261  0016  306D               	movlw	low (__pdataBANK0+15)
   262  0017  00FD               	movwf	btemp+-1
   263  0018  3014               	movlw	high __pidataBANK0
   264  0019  00FE               	movwf	btemp
   265  001A  3022               	movlw	low __pidataBANK0
   266  001B  00FF               	movwf	btemp+1
   267  001C  305E               	movlw	low __pdataBANK0
   268  001D  0084               	movwf	4
   269  001E  160A  118A  2455  120A  118A  	fcall	init_ram0
   270                           
   271                           ; Clear objects allocated to BANK1
   272  0023  30A0               	movlw	low __pbssBANK1
   273  0024  0084               	movwf	4
   274  0025  30F0               	movlw	low (__pbssBANK1+80)
   275  0026  120A  118A  27F8  120A  118A  	fcall	clear_ram0
   276                           
   277                           ; Clear objects allocated to BANK0
   278  002B  3020               	movlw	low __pbssBANK0
   279  002C  0084               	movwf	4
   280  002D  303F               	movlw	low (__pbssBANK0+31)
   281  002E  120A  118A  27F8  120A  118A  	fcall	clear_ram0
   282  0033                     end_of_initialization:	
   283                           ;End of C runtime variable initialization code
   284                           
   285  0033                     __end_of__initialization:	
   286  0033  0183               	clrf	3
   287  0034  160A  118A  2CD2   	ljmp	_main	;jump to C main() function
   288                           
   289                           	psect	bssBANK0
   290  0020                     __pbssBANK0:	
   291  0020                     _g_u8Reading_arr:	
   292  0020                     	ds	10
   293  002A                     _u32compare_value:	
   294  002A                     	ds	4
   295  002E                     _g_u16_TickTimeCounter:	
   296  002E                     	ds	2
   297  0030                     _g_u16Sum_of_ten_readings:	
   298  0030                     	ds	2
   299  0032                     _external_interrupt_callback_ptr:	
   300  0032                     	ds	1
   301  0033                     _timer1_callback_ptr:	
   302  0033                     	ds	1
   303  0034                     _g_u8Led_blank_counter:	
   304  0034                     	ds	1
   305  0035                     _g_u8End_setup_state:	
   306  0035                     	ds	1
   307  0036                     _g_u8Display_blank_counter:	
   308  0036                     	ds	1
   309  0037                     _g_u8Reading_deleted_element:	
   310  0037                     	ds	1
   311  0038                     _g_u8Reading_counter:	
   312  0038                     	ds	1
   313  0039                     _g_u8calculate_temperature_flag:	
   314  0039                     	ds	1
   315  003A                     _g_u8Sync_flag:	
   316  003A                     	ds	1
   317  003B                     _g_Heater_state_t:	
   318  003B                     	ds	1
   319  003C                     Heater_Up_Down_Buttons_Task@Down_Button:	
   320  003C                     	ds	1
   321  003D                     Heater_Up_Down_Buttons_Task@Up_Button:	
   322  003D                     	ds	1
   323  003E                     Heater_On_Off_Button_Task@On_Off_Button:	
   324  003E                     	ds	1
   325                           
   326                           	psect	dataBANK0
   327  005E                     __pdataBANK0:	
   328  005E                     SevenSegment_Display@F56:	
   329  005E                     	ds	10
   330  0068                     _Timer1_config_t:	
   331  0068                     	ds	3
   332  006B                     _g_u8Heater_real_time_temperature:	
   333  006B                     	ds	1
   334  006C                     _g_u8Heater_desired_temperature:	
   335  006C                     	ds	1
   336                           
   337                           	psect	bssBANK1
   338  00A0                     __pbssBANK1:	
   339  00A0                     _Scheduler_Tasks:	
   340  00A0                     	ds	80
   341                           
   342                           	psect	inittext
   343  1451                     init_fetch0:	
   344                           ;	Called with low address in FSR and high address in W
   345                           
   346  1451  087E               	movf	btemp,w
   347  1452  008A               	movwf	10
   348  1453  087F               	movf	btemp+1,w
   349  1454  0082               	movwf	2
   350  1455                     init_ram0:	
   351                           ;Called with:
   352                           ;	high address of idata address in btemp 
   353                           ;	low address of idata address in btemp+1 
   354                           ;	low address of data in FSR
   355                           ;	high address + 1 of data in btemp-1
   356                           
   357  1455  160A  118A  2451  160A  118A  	fcall	init_fetch0
   358  145A  0080               	movwf	0
   359  145B  0A84               	incf	4,f
   360  145C  0804               	movf	4,w
   361  145D  067D               	xorwf	btemp+-1,w
   362  145E  1903               	btfsc	3,2
   363  145F  3400               	retlw	0
   364  1460  0AFF               	incf	btemp+1,f
   365  1461  1903               	btfsc	3,2
   366  1462  0AFE               	incf	btemp,f
   367  1463  2C55               	goto	init_ram0
   368                           
   369                           	psect	clrtext
   370  07F8                     clear_ram0:	
   371                           ;	Called with FSR containing the base address, and
   372                           ;	W with the last address+1
   373                           
   374  07F8  0064               	clrwdt	;clear the watchdog before getting into this loop
   375  07F9                     clrloop0:	
   376  07F9  0180               	clrf	0	;clear RAM location pointed to by FSR
   377  07FA  0A84               	incf	4,f	;increment pointer
   378  07FB  0604               	xorwf	4,w	;XOR with final address
   379  07FC  1903               	btfsc	3,2	;have we reached the end yet?
   380  07FD  3400               	retlw	0	;all done for this memory range, return
   381  07FE  0604               	xorwf	4,w	;XOR again to restore value
   382  07FF  2FF9               	goto	clrloop0	;do the next byte
   383                           
   384                           	psect	cstackCOMMON
   385  0070                     __pcstackCOMMON:	
   386  0070                     ?_I2C_master_send_start_condition:	
   387  0070                     ?_I2C_master_send_data:	
   388                           ; 1 bytes @ 0x0
   389                           
   390  0070                     ?_I2C_master_send_stop_condition:	
   391                           ; 1 bytes @ 0x0
   392                           
   393  0070                     ?_I2C_master_send_repeated_start_condition:	
   394                           ; 1 bytes @ 0x0
   395                           
   396  0070                     ?_I2C_master_receive_data:	
   397                           ; 1 bytes @ 0x0
   398                           
   399  0070                     ?_SevenSegment_Initialization:	
   400                           ; 1 bytes @ 0x0
   401                           
   402  0070                     ?_External_interrupt_select_falling_edge:	
   403                           ; 1 bytes @ 0x0
   404                           
   405  0070                     ?_External_interrupt_enable:	
   406                           ; 1 bytes @ 0x0
   407                           
   408  0070                     ?_Scheduler_Initialization:	
   409                           ; 1 bytes @ 0x0
   410                           
   411  0070                     ?_initialization_Tasks:	
   412                           ; 1 bytes @ 0x0
   413                           
   414  0070                     ?_Scheduler_Dispatcher:	
   415                           ; 1 bytes @ 0x0
   416                           
   417  0070                     ?_Timer1_write_counter:	
   418                           ; 1 bytes @ 0x0
   419                           
   420  0070                     ?_Timer1_Initialization:	
   421                           ; 1 bytes @ 0x0
   422                           
   423  0070                     ?_Timer1_enable:	
   424                           ; 1 bytes @ 0x0
   425                           
   426  0070                     ?_ADC_Select_prescaler:	
   427                           ; 1 bytes @ 0x0
   428                           
   429  0070                     ?_ADC_Start_conversion:	
   430                           ; 1 bytes @ 0x0
   431                           
   432  0070                     ?_CPU_sleep:	
   433                           ; 1 bytes @ 0x0
   434                           
   435  0070                     ?_EEPROM_Initialization:	
   436                           ; 1 bytes @ 0x0
   437                           
   438  0070                     ?_GPIO_Enable_Pull_Up_On_PortB:	
   439                           ; 1 bytes @ 0x0
   440                           
   441  0070                     ?_Heater_turn_off:	
   442                           ; 1 bytes @ 0x0
   443                           
   444  0070                     ?_Heater_Initialization:	
   445                           ; 1 bytes @ 0x0
   446                           
   447  0070                     ?_Heater_Display_Task:	
   448                           ; 1 bytes @ 0x0
   449                           
   450  0070                     ?_Heater_On_Off_Button_Task:	
   451                           ; 1 bytes @ 0x0
   452                           
   453  0070                     ?_Heater_Up_Down_Buttons_Task:	
   454                           ; 1 bytes @ 0x0
   455                           
   456  0070                     ?_Heater_LED_Task:	
   457                           ; 1 bytes @ 0x0
   458                           
   459  0070                     ?_Heater_Heating_Cooling_Task:	
   460                           ; 1 bytes @ 0x0
   461                           
   462  0070                     ?_Heater_Reading_Temperature_Sensor_Task:	
   463                           ; 1 bytes @ 0x0
   464                           
   465  0070                     ?_Timer1_enable_overflow_interrupt:	
   466                           ; 1 bytes @ 0x0
   467                           
   468  0070                     ?_Timer1_set_callback_function:	
   469                           ; 1 bytes @ 0x0
   470                           
   471  0070                     ?_Global_interrupt_enable:	
   472                           ; 1 bytes @ 0x0
   473                           
   474  0070                     ?_Peripherals_interrupt_enable:	
   475                           ; 1 bytes @ 0x0
   476                           
   477  0070                     ?_ISR:	
   478                           ; 1 bytes @ 0x0
   479                           
   480  0070                     ?_main:	
   481                           ; 1 bytes @ 0x0
   482                           
   483  0070                     ?_Scheduler_Core:	
   484                           ; 1 bytes @ 0x0
   485                           
   486  0070                     ?_Scheduler_Tick_time_calculation:	
   487                           ; 1 bytes @ 0x0
   488                           
   489  0070                     Timer1_write_counter@a_u16init_value_for_timer:	
   490                           ; 1 bytes @ 0x0
   491                           
   492                           
   493                           ; 2 bytes @ 0x0
   494  0070                     	ds	2
   495  0072                     ??_Timer1_write_counter:	
   496                           
   497                           ; 1 bytes @ 0x2
   498  0072                     	ds	1
   499  0073                     ??_Scheduler_Core:	
   500                           
   501                           ; 1 bytes @ 0x3
   502  0073                     	ds	4
   503  0077                     Scheduler_Core@Counter:	
   504                           
   505                           ; 2 bytes @ 0x7
   506  0077                     	ds	2
   507  0079                     ??_ISR:	
   508                           
   509                           ; 1 bytes @ 0x9
   510  0079                     	ds	5
   511                           
   512                           	psect	cstackBANK0
   513  003F                     __pcstackBANK0:	
   514  003F                     ??_I2C_master_send_start_condition:	
   515  003F                     ?_I2C_master_send_address:	
   516                           ; 1 bytes @ 0x0
   517                           
   518  003F                     ??_I2C_master_send_data:	
   519                           ; 1 bytes @ 0x0
   520                           
   521  003F                     ??_I2C_master_send_stop_condition:	
   522                           ; 1 bytes @ 0x0
   523                           
   524  003F                     ??_I2C_master_send_repeated_start_condition:	
   525                           ; 1 bytes @ 0x0
   526                           
   527  003F                     ??_I2C_master_receive_data:	
   528                           ; 1 bytes @ 0x0
   529                           
   530  003F                     ??_External_interrupt_select_falling_edge:	
   531                           ; 1 bytes @ 0x0
   532                           
   533  003F                     ??_External_interrupt_enable:	
   534                           ; 1 bytes @ 0x0
   535                           
   536  003F                     ?_Scheduler_StartFunction:	
   537                           ; 1 bytes @ 0x0
   538                           
   539  003F                     ??_Timer1_Initialization:	
   540                           ; 1 bytes @ 0x0
   541                           
   542  003F                     ??_Timer1_enable:	
   543                           ; 1 bytes @ 0x0
   544                           
   545  003F                     ?_ADC_Initialization:	
   546                           ; 1 bytes @ 0x0
   547                           
   548  003F                     ??_ADC_Select_prescaler:	
   549                           ; 1 bytes @ 0x0
   550                           
   551  003F                     ??_ADC_Start_conversion:	
   552                           ; 1 bytes @ 0x0
   553                           
   554  003F                     ??_CPU_sleep:	
   555                           ; 1 bytes @ 0x0
   556                           
   557  003F                     ?_GPIO_SetPinDirection:	
   558                           ; 1 bytes @ 0x0
   559                           
   560  003F                     ?_GPIO_SetPortDirection:	
   561                           ; 1 bytes @ 0x0
   562                           
   563  003F                     ?_GPIO_WriteOnPin:	
   564                           ; 1 bytes @ 0x0
   565                           
   566  003F                     ?_GPIO_WriteOnPort:	
   567                           ; 1 bytes @ 0x0
   568                           
   569  003F                     ?_GPIO_ReadFromPin:	
   570                           ; 1 bytes @ 0x0
   571                           
   572  003F                     ??_GPIO_Enable_Pull_Up_On_PortB:	
   573                           ; 1 bytes @ 0x0
   574                           
   575  003F                     ??_Timer1_enable_overflow_interrupt:	
   576                           ; 1 bytes @ 0x0
   577                           
   578  003F                     ??_Timer1_set_callback_function:	
   579                           ; 1 bytes @ 0x0
   580                           
   581  003F                     ??_Global_interrupt_enable:	
   582                           ; 1 bytes @ 0x0
   583                           
   584  003F                     ??_Peripherals_interrupt_enable:	
   585                           ; 1 bytes @ 0x0
   586                           
   587  003F                     ?_ADC_Read_value:	
   588                           ; 1 bytes @ 0x0
   589                           
   590  003F                     ?___awdiv:	
   591                           ; 2 bytes @ 0x0
   592                           
   593  003F                     ?___awmod:	
   594                           ; 2 bytes @ 0x0
   595                           
   596  003F                     ?___lwdiv:	
   597                           ; 2 bytes @ 0x0
   598                           
   599  003F                     ?___lmul:	
   600                           ; 2 bytes @ 0x0
   601                           
   602  003F                     ?___lldiv:	
   603                           ; 4 bytes @ 0x0
   604                           
   605  003F                     ADC_Initialization@a_ADC_Vref_high_t:	
   606                           ; 4 bytes @ 0x0
   607                           
   608  003F                     GPIO_SetPinDirection@a_u8pin:	
   609                           ; 1 bytes @ 0x0
   610                           
   611  003F                     GPIO_SetPortDirection@a_u8direction:	
   612                           ; 1 bytes @ 0x0
   613                           
   614  003F                     GPIO_WriteOnPin@a_u8pin:	
   615                           ; 1 bytes @ 0x0
   616                           
   617  003F                     GPIO_WriteOnPort@a_u8value:	
   618                           ; 1 bytes @ 0x0
   619                           
   620  003F                     GPIO_ReadFromPin@a_u8pin:	
   621                           ; 1 bytes @ 0x0
   622                           
   623  003F                     I2C_master_send_address@a_I2C_operaton_t:	
   624                           ; 1 bytes @ 0x0
   625                           
   626  003F                     Scheduler_StartFunction@a_u8_task_ID:	
   627                           ; 1 bytes @ 0x0
   628                           
   629  003F                     ___awdiv@divisor:	
   630                           ; 1 bytes @ 0x0
   631                           
   632  003F                     ___awmod@divisor:	
   633                           ; 2 bytes @ 0x0
   634                           
   635  003F                     ___lwdiv@divisor:	
   636                           ; 2 bytes @ 0x0
   637                           
   638  003F                     ___lmul@multiplier:	
   639                           ; 2 bytes @ 0x0
   640                           
   641  003F                     ___lldiv@divisor:	
   642                           ; 4 bytes @ 0x0
   643                           
   644                           
   645                           ; 4 bytes @ 0x0
   646  003F                     	ds	1
   647  0040                     ??_I2C_master_send_address:	
   648  0040                     ??_GPIO_SetPortDirection:	
   649                           ; 1 bytes @ 0x1
   650                           
   651  0040                     ??_GPIO_WriteOnPort:	
   652                           ; 1 bytes @ 0x1
   653                           
   654  0040                     ??_GPIO_ReadFromPin:	
   655                           ; 1 bytes @ 0x1
   656                           
   657  0040                     ADC_Initialization@a_ADC_Vref_low_t:	
   658                           ; 1 bytes @ 0x1
   659                           
   660  0040                     GPIO_SetPinDirection@a_u8direction:	
   661                           ; 1 bytes @ 0x1
   662                           
   663  0040                     GPIO_WriteOnPin@a_u8value:	
   664                           ; 1 bytes @ 0x1
   665                           
   666  0040                     I2C_master_send_data@a_I2C_Data:	
   667                           ; 1 bytes @ 0x1
   668                           
   669  0040                     I2C_master_receive_data@a_I2C_ack_status_t:	
   670                           ; 1 bytes @ 0x1
   671                           
   672  0040                     Timer1_set_callback_function@a_function_ptr:	
   673                           ; 1 bytes @ 0x1
   674                           
   675  0040                     Scheduler_StartFunction@a_u16_task_periodicity:	
   676                           ; 1 bytes @ 0x1
   677                           
   678                           
   679                           ; 2 bytes @ 0x1
   680  0040                     	ds	1
   681  0041                     ??_ADC_Initialization:	
   682  0041                     ??_ADC_Read_value:	
   683                           ; 1 bytes @ 0x2
   684                           
   685  0041                     ??_GPIO_SetPinDirection:	
   686                           ; 1 bytes @ 0x2
   687                           
   688  0041                     ??_GPIO_WriteOnPin:	
   689                           ; 1 bytes @ 0x2
   690                           
   691  0041                     ADC_Select_prescaler@a_ADC_prescaler_t:	
   692                           ; 1 bytes @ 0x2
   693                           
   694  0041                     I2C_master_receive_data@u8_retVal:	
   695                           ; 1 bytes @ 0x2
   696                           
   697  0041                     ___awdiv@dividend:	
   698                           ; 1 bytes @ 0x2
   699                           
   700  0041                     ___awmod@dividend:	
   701                           ; 2 bytes @ 0x2
   702                           
   703  0041                     ___lwdiv@dividend:	
   704                           ; 2 bytes @ 0x2
   705                           
   706                           
   707                           ; 2 bytes @ 0x2
   708  0041                     	ds	1
   709  0042                     GPIO_SetPortDirection@a_u8port:	
   710  0042                     GPIO_ReadFromPin@a_u8port:	
   711                           ; 1 bytes @ 0x3
   712                           
   713  0042                     Scheduler_StartFunction@a_u16_task_start_time:	
   714                           ; 1 bytes @ 0x3
   715                           
   716                           
   717                           ; 2 bytes @ 0x3
   718  0042                     	ds	1
   719  0043                     ??___awdiv:	
   720  0043                     ??___awmod:	
   721                           ; 1 bytes @ 0x4
   722                           
   723  0043                     ??___lwdiv:	
   724                           ; 1 bytes @ 0x4
   725                           
   726  0043                     ADC_Initialization@a_ADC_channel_t:	
   727                           ; 1 bytes @ 0x4
   728                           
   729  0043                     GPIO_SetPinDirection@a_u8port:	
   730                           ; 1 bytes @ 0x4
   731                           
   732  0043                     GPIO_WriteOnPin@a_u8port:	
   733                           ; 1 bytes @ 0x4
   734                           
   735  0043                     GPIO_WriteOnPort@a_u8port:	
   736                           ; 1 bytes @ 0x4
   737                           
   738  0043                     GPIO_ReadFromPin@retVal:	
   739                           ; 1 bytes @ 0x4
   740                           
   741  0043                     I2C_master_send_address@a_I2C_Address:	
   742                           ; 1 bytes @ 0x4
   743                           
   744  0043                     ___lmul@multiplicand:	
   745                           ; 1 bytes @ 0x4
   746                           
   747  0043                     ___lldiv@dividend:	
   748                           ; 4 bytes @ 0x4
   749                           
   750                           
   751                           ; 4 bytes @ 0x4
   752  0043                     	ds	1
   753  0044                     ??_SevenSegment_Initialization:	
   754  0044                     ?_EEPROM_Save_Byte:	
   755                           ; 1 bytes @ 0x5
   756                           
   757  0044                     ?_Check_ON_Push_Button:	
   758                           ; 1 bytes @ 0x5
   759                           
   760  0044                     Check_ON_Push_Button@a_u8Pin:	
   761                           ; 1 bytes @ 0x5
   762                           
   763  0044                     Scheduler_StartFunction@Enum_Task_RepeatType:	
   764                           ; 1 bytes @ 0x5
   765                           
   766  0044                     ___awdiv@counter:	
   767                           ; 1 bytes @ 0x5
   768                           
   769  0044                     ___awmod@counter:	
   770                           ; 1 bytes @ 0x5
   771                           
   772  0044                     EEPROM_Save_Byte@a_u16Location:	
   773                           ; 1 bytes @ 0x5
   774                           
   775  0044                     ___lwdiv@quotient:	
   776                           ; 2 bytes @ 0x5
   777                           
   778                           
   779                           ; 2 bytes @ 0x5
   780  0044                     	ds	1
   781  0045                     ?_SevenSegment_SelectChip:	
   782  0045                     ??_Scheduler_StartFunction:	
   783                           ; 1 bytes @ 0x6
   784                           
   785  0045                     ??_Heater_LED_Task:	
   786                           ; 1 bytes @ 0x6
   787                           
   788  0045                     ??_Heater_Heating_Cooling_Task:	
   789                           ; 1 bytes @ 0x6
   790                           
   791  0045                     Check_ON_Push_Button@retVal_t:	
   792                           ; 1 bytes @ 0x6
   793                           
   794  0045                     SevenSegment_SelectChip@a_Chip2:	
   795                           ; 1 bytes @ 0x6
   796                           
   797  0045                     ___awdiv@sign:	
   798                           ; 1 bytes @ 0x6
   799                           
   800  0045                     ___awmod@sign:	
   801                           ; 1 bytes @ 0x6
   802                           
   803                           
   804                           ; 1 bytes @ 0x6
   805  0045                     	ds	1
   806  0046                     ??_Check_ON_Push_Button:	
   807  0046                     EEPROM_Save_Byte@a_u8Data:	
   808                           ; 1 bytes @ 0x7
   809                           
   810  0046                     SevenSegment_SelectChip@a_Chip3:	
   811                           ; 1 bytes @ 0x7
   812                           
   813  0046                     ___lwdiv@counter:	
   814                           ; 1 bytes @ 0x7
   815                           
   816  0046                     ___awdiv@quotient:	
   817                           ; 1 bytes @ 0x7
   818                           
   819                           
   820                           ; 2 bytes @ 0x7
   821  0046                     	ds	1
   822  0047                     ??_EEPROM_Save_Byte:	
   823  0047                     ?_EEPROM_Read_Byte:	
   824                           ; 1 bytes @ 0x8
   825                           
   826  0047                     ??___lmul:	
   827                           ; 1 bytes @ 0x8
   828                           
   829  0047                     ??___lldiv:	
   830                           ; 1 bytes @ 0x8
   831                           
   832  0047                     SevenSegment_SelectChip@a_Chip4:	
   833                           ; 1 bytes @ 0x8
   834                           
   835  0047                     EEPROM_Read_Byte@a_u16Location:	
   836                           ; 1 bytes @ 0x8
   837                           
   838                           
   839                           ; 2 bytes @ 0x8
   840  0047                     	ds	1
   841  0048                     ??_SevenSegment_SelectChip:	
   842  0048                     ?_SevenSegment_Display:	
   843                           ; 1 bytes @ 0x9
   844                           
   845  0048                     Check_ON_Push_Button@a_u8Port:	
   846                           ; 1 bytes @ 0x9
   847                           
   848  0048                     SevenSegment_Display@a_displayDot:	
   849                           ; 1 bytes @ 0x9
   850                           
   851  0048                     ADC_Read_value@retVal:	
   852                           ; 1 bytes @ 0x9
   853                           
   854  0048                     ___lmul@product:	
   855                           ; 2 bytes @ 0x9
   856                           
   857  0048                     ___lldiv@quotient:	
   858                           ; 4 bytes @ 0x9
   859                           
   860                           
   861                           ; 4 bytes @ 0x9
   862  0048                     	ds	1
   863  0049                     ??_SevenSegment_Display:	
   864  0049                     ??_EEPROM_Read_Byte:	
   865                           ; 1 bytes @ 0xA
   866                           
   867  0049                     ??_Heater_Up_Down_Buttons_Task:	
   868                           ; 1 bytes @ 0xA
   869                           
   870  0049                     SevenSegment_SelectChip@a_Chip1:	
   871                           ; 1 bytes @ 0xA
   872                           
   873                           
   874                           ; 1 bytes @ 0xA
   875  0049                     	ds	1
   876  004A                     ??_Heater_turn_off:	
   877  004A                     ??_Heater_Reading_Temperature_Sensor_Task:	
   878                           ; 1 bytes @ 0xB
   879                           
   880  004A                     EEPROM_Read_Byte@u8_retVal:	
   881                           ; 1 bytes @ 0xB
   882                           
   883                           
   884                           ; 1 bytes @ 0xB
   885  004A                     	ds	1
   886  004B                     ??_Heater_On_Off_Button_Task:	
   887  004B                     Scheduler_StartFunction@task_function_ptr:	
   888                           ; 1 bytes @ 0xC
   889                           
   890                           
   891                           ; 1 bytes @ 0xC
   892  004B                     	ds	1
   893  004C                     ??_Scheduler_Tick_time_calculation:	
   894  004C                     ___lldiv@counter:	
   895                           ; 1 bytes @ 0xD
   896                           
   897  004C                     Scheduler_StartFunction@Counter:	
   898                           ; 1 bytes @ 0xD
   899                           
   900                           
   901                           ; 2 bytes @ 0xD
   902  004C                     	ds	1
   903  004D                     ?_I2C_Master_Initialization:	
   904  004D                     _Heater_On_Off_Button_Task$298:	
   905                           ; 1 bytes @ 0xE
   906                           
   907  004D                     I2C_Master_Initialization@a_I2C_baud_rate_t:	
   908                           ; 2 bytes @ 0xE
   909                           
   910  004D                     SevenSegment_Display@u8numberRepresentation:	
   911                           ; 2 bytes @ 0xE
   912                           
   913                           
   914                           ; 10 bytes @ 0xE
   915  004D                     	ds	1
   916  004E                     ??_initialization_Tasks:	
   917  004E                     _Heater_Reading_Temperature_Sensor_Task$310:	
   918                           ; 1 bytes @ 0xF
   919                           
   920                           
   921                           ; 2 bytes @ 0xF
   922  004E                     	ds	1
   923  004F                     ??_I2C_Master_Initialization:	
   924  004F                     Heater_On_Off_Button_Task@u8Saved_temperature_in_EEPROM:	
   925                           ; 1 bytes @ 0x10
   926                           
   927                           
   928                           ; 1 bytes @ 0x10
   929  004F                     	ds	1
   930  0050                     Heater_Reading_Temperature_Sensor_Task@g_u8Current_reading_temperature:	
   931  0050                     Scheduler_Tick_time_calculation@a_u8tickTme:	
   932                           ; 1 bytes @ 0x11
   933                           
   934                           
   935                           ; 1 bytes @ 0x11
   936  0050                     	ds	1
   937  0051                     Scheduler_Tick_time_calculation@tick_calculation_t:	
   938                           
   939                           ; 1 bytes @ 0x12
   940  0051                     	ds	1
   941  0052                     ??_Scheduler_Initialization:	
   942                           
   943                           ; 1 bytes @ 0x13
   944  0052                     	ds	2
   945  0054                     I2C_Master_Initialization@a_I2C_master_mode_t:	
   946  0054                     Scheduler_Initialization@a_u8tickTme:	
   947                           ; 1 bytes @ 0x15
   948                           
   949                           
   950                           ; 1 bytes @ 0x15
   951  0054                     	ds	1
   952  0055                     ??_EEPROM_Initialization:	
   953  0055                     ??_Heater_Initialization:	
   954                           ; 1 bytes @ 0x16
   955                           
   956  0055                     Scheduler_Initialization@initialization_error_t:	
   957                           ; 1 bytes @ 0x16
   958                           
   959                           
   960                           ; 1 bytes @ 0x16
   961  0055                     	ds	1
   962  0056                     Scheduler_Initialization@Counter:	
   963                           
   964                           ; 2 bytes @ 0x17
   965  0056                     	ds	1
   966  0057                     SevenSegment_Display@a_u8displayNumber:	
   967                           
   968                           ; 1 bytes @ 0x18
   969  0057                     	ds	1
   970  0058                     ??_Heater_Display_Task:	
   971                           
   972                           ; 1 bytes @ 0x19
   973  0058                     	ds	2
   974  005A                     ??_Scheduler_Dispatcher:	
   975                           
   976                           ; 1 bytes @ 0x1B
   977  005A                     	ds	2
   978  005C                     Scheduler_Dispatcher@Counter:	
   979                           
   980                           ; 2 bytes @ 0x1D
   981  005C                     	ds	2
   982  005E                     ??_main:	
   983                           
   984                           	psect	maintext
   985  14D2                     __pmaintext:	
   986                           ; 1 bytes @ 0x1F
   987 ;;
   988 ;;Main: autosize = 0, tempsize = 0, incstack = 0, save=0
   989 ;;
   990 ;; *************** function _main *****************
   991 ;; Defined at:
   992 ;;		line 25 in file "main.c"
   993 ;; Parameters:    Size  Location     Type
   994 ;;		None
   995 ;; Auto vars:     Size  Location     Type
   996 ;;		None
   997 ;; Return value:  Size  Location     Type
   998 ;;                  1    wreg      void 
   999 ;; Registers used:
  1000 ;;		wreg, fsr0l, fsr0h, status,2, status,0, pclath, cstack
  1001 ;; Tracked objects:
  1002 ;;		On entry : B00/0
  1003 ;;		On exit  : 0/0
  1004 ;;		Unchanged: 0/0
  1005 ;; Data sizes:     COMMON   BANK0   BANK1   BANK3   BANK2
  1006 ;;      Params:         0       0       0       0       0
  1007 ;;      Locals:         0       0       0       0       0
  1008 ;;      Temps:          0       0       0       0       0
  1009 ;;      Totals:         0       0       0       0       0
  1010 ;;Total ram usage:        0 bytes
  1011 ;; Hardware stack levels required when called:    8
  1012 ;; This function calls:
  1013 ;;		_Heater_Initialization
  1014 ;;		_Scheduler_Dispatcher
  1015 ;;		_Scheduler_Initialization
  1016 ;;		_Scheduler_StartFunction
  1017 ;; This function is called by:
  1018 ;;		Startup code after reset
  1019 ;; This function uses a non-reentrant model
  1020 ;;
  1021                           
  1022                           
  1023                           ;psect for function _main
  1024  14D2                     _main:	
  1025  14D2                     l4342:	
  1026                           ;incstack = 0
  1027                           ; Regs used in _main: [wreg-fsr0h+status,2+status,0+pclath+cstack]
  1028                           
  1029                           
  1030                           ;main.c: 28:     Heater_Initialization();
  1031  14D2  120A  158A  2754  160A  118A  	fcall	_Heater_Initialization
  1032                           
  1033                           ;main.c: 30:     Scheduler_Initialization(1u);
  1034  14D7  3001               	movlw	1
  1035  14D8  120A  118A  2764  160A  118A  	fcall	_Scheduler_Initialization
  1036                           
  1037                           ;main.c: 32:     Scheduler_StartFunction(initialization_Tasks , 1 , 1 , 0 , ONCE);
  1038  14DD  1283               	bcf	3,5	;RP0=0, select bank0
  1039  14DE  1303               	bcf	3,6	;RP1=0, select bank0
  1040  14DF  01BF               	clrf	Scheduler_StartFunction@a_u8_task_ID
  1041  14E0  0ABF               	incf	Scheduler_StartFunction@a_u8_task_ID,f
  1042  14E1  3001               	movlw	1
  1043  14E2  00C0               	movwf	Scheduler_StartFunction@a_u16_task_periodicity
  1044  14E3  3000               	movlw	0
  1045  14E4  00C1               	movwf	Scheduler_StartFunction@a_u16_task_periodicity+1
  1046  14E5  3000               	movlw	0
  1047  14E6  00C2               	movwf	Scheduler_StartFunction@a_u16_task_start_time
  1048  14E7  00C3               	movwf	Scheduler_StartFunction@a_u16_task_start_time+1
  1049  14E8  01C4               	clrf	Scheduler_StartFunction@Enum_Task_RepeatType
  1050  14E9  3014               	movlw	(low (fp__initialization_Tasks-fpbase))& (0+255)
  1051  14EA  120A  158A  26B3  160A  118A  	fcall	_Scheduler_StartFunction
  1052  14EF                     l657:	
  1053                           ;main.c: 34:     while(1)
  1054                           
  1055                           
  1056                           ;main.c: 35:     {;main.c: 37:         Scheduler_Dispatcher();
  1057  14EF  120A  118A  253C  160A  118A  	fcall	_Scheduler_Dispatcher
  1058  14F4  2CEF               	goto	l657
  1059  14F5  120A  118A  2812   	ljmp	start
  1060  14F8                     __end_of_main:	
  1061                           
  1062                           	psect	text1
  1063  0764                     __ptext1:	
  1064 ;; *************** function _Scheduler_Initialization *****************
  1065 ;; Defined at:
  1066 ;;		line 167 in file "scheduler.c"
  1067 ;; Parameters:    Size  Location     Type
  1068 ;;  a_u8tickTme     1    wreg     unsigned char 
  1069 ;; Auto vars:     Size  Location     Type
  1070 ;;  a_u8tickTme     1   21[BANK0 ] unsigned char 
  1071 ;;  Counter         2   23[BANK0 ] unsigned short 
  1072 ;;  initializati    1   22[BANK0 ] enum E15
  1073 ;; Return value:  Size  Location     Type
  1074 ;;                  1    wreg      enum E57
  1075 ;; Registers used:
  1076 ;;		wreg, fsr0l, fsr0h, status,2, status,0, pclath, cstack
  1077 ;; Tracked objects:
  1078 ;;		On entry : 0/0
  1079 ;;		On exit  : 0/0
  1080 ;;		Unchanged: 0/0
  1081 ;; Data sizes:     COMMON   BANK0   BANK1   BANK3   BANK2
  1082 ;;      Params:         0       0       0       0       0
  1083 ;;      Locals:         0       4       0       0       0
  1084 ;;      Temps:          0       2       0       0       0
  1085 ;;      Totals:         0       6       0       0       0
  1086 ;;Total ram usage:        6 bytes
  1087 ;; Hardware stack levels used:    1
  1088 ;; Hardware stack levels required when called:    5
  1089 ;; This function calls:
  1090 ;;		_Global_interrupt_enable
  1091 ;;		_Peripherals_interrupt_enable
  1092 ;;		_Scheduler_Tick_time_calculation
  1093 ;;		_Timer1_enable
  1094 ;;		_Timer1_set_callback_function
  1095 ;; This function is called by:
  1096 ;;		_main
  1097 ;; This function uses a non-reentrant model
  1098 ;;
  1099                           
  1100                           
  1101                           ;psect for function _Scheduler_Initialization
  1102  0764                     _Scheduler_Initialization:	
  1103                           
  1104                           ;incstack = 0
  1105                           ; Regs used in _Scheduler_Initialization: [wreg-fsr0h+status,2+status,0+pclath+cstack]
  1106                           ;Scheduler_Initialization@a_u8tickTme stored from wreg
  1107  0764  1283               	bcf	3,5	;RP0=0, select bank0
  1108  0765  1303               	bcf	3,6	;RP1=0, select bank0
  1109  0766  00D4               	movwf	Scheduler_Initialization@a_u8tickTme
  1110  0767                     l4186:	
  1111  0767                     l4188:	
  1112                           
  1113                           ;scheduler.c: 172:     initialization_error_t = Scheduler_Tick_time_calculation(a_u8tick
      +                          Tme);
  1114  0767  0854               	movf	Scheduler_Initialization@a_u8tickTme,w
  1115  0768  120A  118A  2462  120A  118A  	fcall	_Scheduler_Tick_time_calculation
  1116  076D  1283               	bcf	3,5	;RP0=0, select bank0
  1117  076E  1303               	bcf	3,6	;RP1=0, select bank0
  1118  076F  00D2               	movwf	??_Scheduler_Initialization
  1119  0770  0852               	movf	??_Scheduler_Initialization,w
  1120  0771  00D5               	movwf	Scheduler_Initialization@initialization_error_t
  1121  0772                     l4190:	
  1122                           
  1123                           ;scheduler.c: 174:     if(initialization_error_t == SCHEDULER_NO_ERROR)
  1124  0772  3003               	movlw	3
  1125  0773  0655               	xorwf	Scheduler_Initialization@initialization_error_t,w
  1126  0774  1D03               	btfss	3,2
  1127  0775  2F77               	goto	u5111
  1128  0776  2F78               	goto	u5110
  1129  0777                     u5111:	
  1130  0777  2FF7               	goto	l4212
  1131  0778                     u5110:	
  1132  0778                     l4192:	
  1133                           
  1134                           ;scheduler.c: 175:     {;scheduler.c: 177:         Timer1_set_callback_function(Schedule
      +                          r_Core);
  1135  0778  3001               	movlw	(low (fp__Scheduler_Core-i1fpbase))& (0+255)
  1136  0779  160A  118A  23FE  120A  118A  	fcall	_Timer1_set_callback_function
  1137  077E                     l4194:	
  1138                           
  1139                           ;scheduler.c: 179:         Global_interrupt_enable();
  1140  077E  160A  118A  23F2  120A  118A  	fcall	_Global_interrupt_enable
  1141  0783                     l4196:	
  1142                           
  1143                           ;scheduler.c: 181:         Peripherals_interrupt_enable();
  1144  0783  160A  118A  23F4  120A  118A  	fcall	_Peripherals_interrupt_enable
  1145  0788                     l4198:	
  1146                           
  1147                           ;scheduler.c: 183:         for(uint16 Counter = 0 ; Counter < 10u ; Counter++)
  1148  0788  1283               	bcf	3,5	;RP0=0, select bank0
  1149  0789  1303               	bcf	3,6	;RP1=0, select bank0
  1150  078A  01D6               	clrf	Scheduler_Initialization@Counter
  1151  078B  01D7               	clrf	Scheduler_Initialization@Counter+1
  1152  078C                     l4204:	
  1153                           
  1154                           ;scheduler.c: 184:         {;scheduler.c: 185:             Scheduler_Tasks[Counter].Task
      +                          _ID = 0;
  1155  078C  0856               	movf	Scheduler_Initialization@Counter,w
  1156  078D  00D2               	movwf	??_Scheduler_Initialization
  1157  078E  3002               	movlw	2
  1158  078F                     u5125:	
  1159  078F  1003               	clrc
  1160  0790  0DD2               	rlf	??_Scheduler_Initialization,f
  1161  0791  3EFF               	addlw	-1
  1162  0792  1D03               	skipz
  1163  0793  2F8F               	goto	u5125
  1164  0794  1003               	clrc
  1165  0795  0D52               	rlf	??_Scheduler_Initialization,w
  1166  0796  3EA0               	addlw	(low (_Scheduler_Tasks| 0))& (0+255)
  1167  0797  0084               	movwf	4
  1168  0798  1383               	bcf	3,7	;select IRP bank1
  1169  0799  0180               	clrf	0
  1170                           
  1171                           ;scheduler.c: 186:             Scheduler_Tasks[Counter].Task_Periodicity = 0;
  1172  079A  0856               	movf	Scheduler_Initialization@Counter,w
  1173  079B  00D2               	movwf	??_Scheduler_Initialization
  1174  079C  3002               	movlw	2
  1175  079D                     u5135:	
  1176  079D  1003               	clrc
  1177  079E  0DD2               	rlf	??_Scheduler_Initialization,f
  1178  079F  3EFF               	addlw	-1
  1179  07A0  1D03               	skipz
  1180  07A1  2F9D               	goto	u5135
  1181  07A2  1003               	clrc
  1182  07A3  0D52               	rlf	??_Scheduler_Initialization,w
  1183  07A4  3EA3               	addlw	(low ((_Scheduler_Tasks| 0+3)))& (0+255)
  1184  07A5  0084               	movwf	4
  1185  07A6  0180               	clrf	0
  1186  07A7  0A84               	incf	4,f
  1187  07A8  0180               	clrf	0
  1188                           
  1189                           ;scheduler.c: 187:             Scheduler_Tasks[Counter].Task_RepeatType = ONCE;
  1190  07A9  0856               	movf	Scheduler_Initialization@Counter,w
  1191  07AA  00D2               	movwf	??_Scheduler_Initialization
  1192  07AB  3002               	movlw	2
  1193  07AC                     u5145:	
  1194  07AC  1003               	clrc
  1195  07AD  0DD2               	rlf	??_Scheduler_Initialization,f
  1196  07AE  3EFF               	addlw	-1
  1197  07AF  1D03               	skipz
  1198  07B0  2FAC               	goto	u5145
  1199  07B1  1003               	clrc
  1200  07B2  0D52               	rlf	??_Scheduler_Initialization,w
  1201  07B3  3EA5               	addlw	(low ((_Scheduler_Tasks| 0+5)))& (0+255)
  1202  07B4  0084               	movwf	4
  1203  07B5  0180               	clrf	0
  1204                           
  1205                           ;scheduler.c: 188:             Scheduler_Tasks[Counter].Task_ExecutionTime = 0;
  1206  07B6  0856               	movf	Scheduler_Initialization@Counter,w
  1207  07B7  00D2               	movwf	??_Scheduler_Initialization
  1208  07B8  3002               	movlw	2
  1209  07B9                     u5155:	
  1210  07B9  1003               	clrc
  1211  07BA  0DD2               	rlf	??_Scheduler_Initialization,f
  1212  07BB  3EFF               	addlw	-1
  1213  07BC  1D03               	skipz
  1214  07BD  2FB9               	goto	u5155
  1215  07BE  1003               	clrc
  1216  07BF  0D52               	rlf	??_Scheduler_Initialization,w
  1217  07C0  3EA1               	addlw	(low ((_Scheduler_Tasks| 0+1)))& (0+255)
  1218  07C1  0084               	movwf	4
  1219  07C2  0180               	clrf	0
  1220  07C3  0A84               	incf	4,f
  1221  07C4  0180               	clrf	0
  1222                           
  1223                           ;scheduler.c: 189:             Scheduler_Tasks[Counter].Task_State = WAITING;
  1224  07C5  3002               	movlw	2
  1225  07C6  00D2               	movwf	??_Scheduler_Initialization
  1226  07C7  0856               	movf	Scheduler_Initialization@Counter,w
  1227  07C8  00D3               	movwf	??_Scheduler_Initialization+1
  1228  07C9  3002               	movlw	2
  1229  07CA                     u5165:	
  1230  07CA  1003               	clrc
  1231  07CB  0DD3               	rlf	??_Scheduler_Initialization+1,f
  1232  07CC  3EFF               	addlw	-1
  1233  07CD  1D03               	skipz
  1234  07CE  2FCA               	goto	u5165
  1235  07CF  1003               	clrc
  1236  07D0  0D53               	rlf	??_Scheduler_Initialization+1,w
  1237  07D1  3EA6               	addlw	(low ((_Scheduler_Tasks| 0+6)))& (0+255)
  1238  07D2  0084               	movwf	4
  1239  07D3  0852               	movf	??_Scheduler_Initialization,w
  1240  07D4  0080               	movwf	0
  1241                           
  1242                           ;scheduler.c: 190:             Scheduler_Tasks[Counter].Task_Function = (void*)0x00;
  1243  07D5  0856               	movf	Scheduler_Initialization@Counter,w
  1244  07D6  00D2               	movwf	??_Scheduler_Initialization
  1245  07D7  3002               	movlw	2
  1246  07D8                     u5175:	
  1247  07D8  1003               	clrc
  1248  07D9  0DD2               	rlf	??_Scheduler_Initialization,f
  1249  07DA  3EFF               	addlw	-1
  1250  07DB  1D03               	skipz
  1251  07DC  2FD8               	goto	u5175
  1252  07DD  1003               	clrc
  1253  07DE  0D52               	rlf	??_Scheduler_Initialization,w
  1254  07DF  3EA7               	addlw	(low ((_Scheduler_Tasks| 0+7)))& (0+255)
  1255  07E0  0084               	movwf	4
  1256  07E1  0180               	clrf	0
  1257  07E2                     l4206:	
  1258                           
  1259                           ;scheduler.c: 191:         }
  1260  07E2  3001               	movlw	1
  1261  07E3  07D6               	addwf	Scheduler_Initialization@Counter,f
  1262  07E4  1803               	skipnc
  1263  07E5  0AD7               	incf	Scheduler_Initialization@Counter+1,f
  1264  07E6  3000               	movlw	0
  1265  07E7  07D7               	addwf	Scheduler_Initialization@Counter+1,f
  1266  07E8                     l4208:	
  1267  07E8  3000               	movlw	0
  1268  07E9  0257               	subwf	Scheduler_Initialization@Counter+1,w
  1269  07EA  300A               	movlw	10
  1270  07EB  1903               	skipnz
  1271  07EC  0256               	subwf	Scheduler_Initialization@Counter,w
  1272  07ED  1C03               	skipc
  1273  07EE  2FF0               	goto	u5181
  1274  07EF  2FF1               	goto	u5180
  1275  07F0                     u5181:	
  1276  07F0  2F8C               	goto	l4204
  1277  07F1                     u5180:	
  1278  07F1                     l4210:	
  1279                           
  1280                           ;scheduler.c: 193:         Timer1_enable();
  1281  07F1  160A  118A  23FA  120A  118A  	fcall	_Timer1_enable
  1282                           
  1283                           ;scheduler.c: 194:     }
  1284  07F6  2FF7               	goto	l712
  1285  07F7                     l4212:	
  1286  07F7                     l712:	
  1287  07F7  0008               	return
  1288  07F8                     __end_of_Scheduler_Initialization:	
  1289                           
  1290                           	psect	text2
  1291  13FE                     __ptext2:	
  1292 ;; *************** function _Timer1_set_callback_function *****************
  1293 ;; Defined at:
  1294 ;;		line 129 in file "interrupt.c"
  1295 ;; Parameters:    Size  Location     Type
  1296 ;;  a_function_p    1    wreg     PTR FTN()void 
  1297 ;;		 -> Scheduler_Core(1), 
  1298 ;; Auto vars:     Size  Location     Type
  1299 ;;  a_function_p    1    1[BANK0 ] PTR FTN()void 
  1300 ;;		 -> Scheduler_Core(1), 
  1301 ;; Return value:  Size  Location     Type
  1302 ;;                  1    wreg      void 
  1303 ;; Registers used:
  1304 ;;		wreg
  1305 ;; Tracked objects:
  1306 ;;		On entry : 0/0
  1307 ;;		On exit  : 0/0
  1308 ;;		Unchanged: 0/0
  1309 ;; Data sizes:     COMMON   BANK0   BANK1   BANK3   BANK2
  1310 ;;      Params:         0       0       0       0       0
  1311 ;;      Locals:         0       1       0       0       0
  1312 ;;      Temps:          0       1       0       0       0
  1313 ;;      Totals:         0       2       0       0       0
  1314 ;;Total ram usage:        2 bytes
  1315 ;; Hardware stack levels used:    1
  1316 ;; Hardware stack levels required when called:    3
  1317 ;; This function calls:
  1318 ;;		Nothing
  1319 ;; This function is called by:
  1320 ;;		_Scheduler_Initialization
  1321 ;; This function uses a non-reentrant model
  1322 ;;
  1323                           
  1324                           
  1325                           ;psect for function _Timer1_set_callback_function
  1326  13FE                     _Timer1_set_callback_function:	
  1327                           
  1328                           ;incstack = 0
  1329                           ; Regs used in _Timer1_set_callback_function: [wreg]
  1330                           ;Timer1_set_callback_function@a_function_ptr stored from wreg
  1331  13FE  1283               	bcf	3,5	;RP0=0, select bank0
  1332  13FF  1303               	bcf	3,6	;RP1=0, select bank0
  1333  1400  00C0               	movwf	Timer1_set_callback_function@a_function_ptr
  1334  1401                     l4108:	
  1335                           
  1336                           ;interrupt.c: 129: void Timer1_set_callback_function(void(*a_function_ptr)(void));interr
      +                          upt.c: 130: {;interrupt.c: 132:     timer1_callback_ptr = a_function_ptr;
  1337  1401  0840               	movf	Timer1_set_callback_function@a_function_ptr,w
  1338  1402  00BF               	movwf	??_Timer1_set_callback_function
  1339  1403  083F               	movf	??_Timer1_set_callback_function,w
  1340  1404  00B3               	movwf	_timer1_callback_ptr
  1341  1405                     l588:	
  1342  1405  0008               	return
  1343  1406                     __end_of_Timer1_set_callback_function:	
  1344                           
  1345                           	psect	text3
  1346  13FA                     __ptext3:	
  1347 ;; *************** function _Timer1_enable *****************
  1348 ;; Defined at:
  1349 ;;		line 181 in file "timers.c"
  1350 ;; Parameters:    Size  Location     Type
  1351 ;;		None
  1352 ;; Auto vars:     Size  Location     Type
  1353 ;;		None
  1354 ;; Return value:  Size  Location     Type
  1355 ;;                  1    wreg      void 
  1356 ;; Registers used:
  1357 ;;		None
  1358 ;; Tracked objects:
  1359 ;;		On entry : 0/0
  1360 ;;		On exit  : 0/0
  1361 ;;		Unchanged: 0/0
  1362 ;; Data sizes:     COMMON   BANK0   BANK1   BANK3   BANK2
  1363 ;;      Params:         0       0       0       0       0
  1364 ;;      Locals:         0       0       0       0       0
  1365 ;;      Temps:          0       0       0       0       0
  1366 ;;      Totals:         0       0       0       0       0
  1367 ;;Total ram usage:        0 bytes
  1368 ;; Hardware stack levels used:    1
  1369 ;; Hardware stack levels required when called:    3
  1370 ;; This function calls:
  1371 ;;		Nothing
  1372 ;; This function is called by:
  1373 ;;		_Scheduler_Initialization
  1374 ;; This function uses a non-reentrant model
  1375 ;;
  1376                           
  1377                           
  1378                           ;psect for function _Timer1_enable
  1379  13FA                     _Timer1_enable:	
  1380  13FA                     l4172:	
  1381                           ;incstack = 0
  1382                           ; Regs used in _Timer1_enable: []
  1383                           
  1384                           
  1385                           ;timers.c: 183:     *(volatile uint8*)0x10 |= 1 << 0u;
  1386  13FA  1283               	bcf	3,5	;RP0=0, select bank0
  1387  13FB  1303               	bcf	3,6	;RP1=0, select bank0
  1388  13FC  1410               	bsf	16,0	;volatile
  1389  13FD                     l793:	
  1390  13FD  0008               	return
  1391  13FE                     __end_of_Timer1_enable:	
  1392                           
  1393                           	psect	text4
  1394  0462                     __ptext4:	
  1395 ;; *************** function _Scheduler_Tick_time_calculation *****************
  1396 ;; Defined at:
  1397 ;;		line 108 in file "scheduler.c"
  1398 ;; Parameters:    Size  Location     Type
  1399 ;;  a_u8tickTme     1    wreg     unsigned char 
  1400 ;; Auto vars:     Size  Location     Type
  1401 ;;  a_u8tickTme     1   17[BANK0 ] unsigned char 
  1402 ;;  tick_calcula    1   18[BANK0 ] enum E15
  1403 ;; Return value:  Size  Location     Type
  1404 ;;                  1    wreg      enum E15
  1405 ;; Registers used:
  1406 ;;		wreg, fsr0l, fsr0h, status,2, status,0, pclath, cstack
  1407 ;; Tracked objects:
  1408 ;;		On entry : 0/0
  1409 ;;		On exit  : 0/0
  1410 ;;		Unchanged: 0/0
  1411 ;; Data sizes:     COMMON   BANK0   BANK1   BANK3   BANK2
  1412 ;;      Params:         0       0       0       0       0
  1413 ;;      Locals:         0       2       0       0       0
  1414 ;;      Temps:          0       4       0       0       0
  1415 ;;      Totals:         0       6       0       0       0
  1416 ;;Total ram usage:        6 bytes
  1417 ;; Hardware stack levels used:    1
  1418 ;; Hardware stack levels required when called:    4
  1419 ;; This function calls:
  1420 ;;		_Timer1_Initialization
  1421 ;;		___lmul
  1422 ;; This function is called by:
  1423 ;;		_Scheduler_Initialization
  1424 ;; This function uses a non-reentrant model
  1425 ;;
  1426                           
  1427                           
  1428                           ;psect for function _Scheduler_Tick_time_calculation
  1429  0462                     _Scheduler_Tick_time_calculation:	
  1430                           
  1431                           ;incstack = 0
  1432                           ; Regs used in _Scheduler_Tick_time_calculation: [wreg-fsr0h+status,2+status,0+pclath+cs
      +                          tack]
  1433                           ;Scheduler_Tick_time_calculation@a_u8tickTme stored from wreg
  1434  0462  1283               	bcf	3,5	;RP0=0, select bank0
  1435  0463  1303               	bcf	3,6	;RP1=0, select bank0
  1436  0464  00D0               	movwf	Scheduler_Tick_time_calculation@a_u8tickTme
  1437  0465                     l4124:	
  1438  0465                     l4126:	
  1439                           
  1440                           ;scheduler.c: 113:     u32compare_value = (8000000u / 4000) * a_u8tickTme;
  1441  0465  0850               	movf	Scheduler_Tick_time_calculation@a_u8tickTme,w
  1442  0466  00CC               	movwf	??_Scheduler_Tick_time_calculation
  1443  0467  01CD               	clrf	??_Scheduler_Tick_time_calculation+1
  1444  0468  01CE               	clrf	??_Scheduler_Tick_time_calculation+2
  1445  0469  01CF               	clrf	??_Scheduler_Tick_time_calculation+3
  1446  046A  084F               	movf	??_Scheduler_Tick_time_calculation+3,w
  1447  046B  00C2               	movwf	___lmul@multiplier+3
  1448  046C  084E               	movf	??_Scheduler_Tick_time_calculation+2,w
  1449  046D  00C1               	movwf	___lmul@multiplier+2
  1450  046E  084D               	movf	??_Scheduler_Tick_time_calculation+1,w
  1451  046F  00C0               	movwf	___lmul@multiplier+1
  1452  0470  084C               	movf	??_Scheduler_Tick_time_calculation,w
  1453  0471  00BF               	movwf	___lmul@multiplier
  1454  0472  3000               	movlw	0
  1455  0473  00C6               	movwf	___lmul@multiplicand+3
  1456  0474  3000               	movlw	0
  1457  0475  00C5               	movwf	___lmul@multiplicand+2
  1458  0476  3007               	movlw	7
  1459  0477  00C4               	movwf	___lmul@multiplicand+1
  1460  0478  30D0               	movlw	208
  1461  0479  00C3               	movwf	___lmul@multiplicand
  1462  047A  160A  118A  271B  120A  118A  	fcall	___lmul
  1463  047F  1283               	bcf	3,5	;RP0=0, select bank0
  1464  0480  1303               	bcf	3,6	;RP1=0, select bank0
  1465  0481  0842               	movf	?___lmul+3,w
  1466  0482  00AD               	movwf	_u32compare_value+3
  1467  0483  0841               	movf	?___lmul+2,w
  1468  0484  00AC               	movwf	_u32compare_value+2
  1469  0485  0840               	movf	?___lmul+1,w
  1470  0486  00AB               	movwf	_u32compare_value+1
  1471  0487  083F               	movf	?___lmul,w
  1472  0488  00AA               	movwf	_u32compare_value
  1473  0489                     l4128:	
  1474                           
  1475                           ;scheduler.c: 115:     if(u32compare_value < 65535u)
  1476  0489  082D               	movf	_u32compare_value+3,w
  1477  048A  1D03               	btfss	3,2
  1478  048B  2C9A               	goto	u5011
  1479  048C  082C               	movf	_u32compare_value+2,w
  1480  048D  1D03               	btfss	3,2
  1481  048E  2C9A               	goto	u5011
  1482  048F  30FF               	movlw	255
  1483  0490  022B               	subwf	_u32compare_value+1,w
  1484  0491  1D03               	skipz
  1485  0492  2C97               	goto	u5013
  1486  0493  30FF               	movlw	255
  1487  0494  022A               	subwf	_u32compare_value,w
  1488  0495  1D03               	skipz
  1489  0496  2C97               	goto	u5013
  1490  0497                     u5013:	
  1491  0497  1803               	btfsc	3,0
  1492  0498  2C9A               	goto	u5011
  1493  0499  2C9B               	goto	u5010
  1494  049A                     u5011:	
  1495  049A  2CA8               	goto	l4136
  1496  049B                     u5010:	
  1497  049B                     l4130:	
  1498                           
  1499                           ;scheduler.c: 116:     {;scheduler.c: 117:         Timer1_config_t.timer_prescaler_t = T
      +                          IMER1_NO_PRESCALER;
  1500  049B  01E8               	clrf	_Timer1_config_t
  1501  049C                     l4132:	
  1502                           
  1503                           ;scheduler.c: 119:         Timer1_Initialization();
  1504  049C  120A  158A  200E  120A  118A  	fcall	_Timer1_Initialization
  1505  04A1                     l4134:	
  1506                           
  1507                           ;scheduler.c: 120:         tick_calculation_t = SCHEDULER_NO_ERROR;
  1508  04A1  3003               	movlw	3
  1509  04A2  1283               	bcf	3,5	;RP0=0, select bank0
  1510  04A3  1303               	bcf	3,6	;RP1=0, select bank0
  1511  04A4  00CC               	movwf	??_Scheduler_Tick_time_calculation
  1512  04A5  084C               	movf	??_Scheduler_Tick_time_calculation,w
  1513  04A6  00D1               	movwf	Scheduler_Tick_time_calculation@tick_calculation_t
  1514                           
  1515                           ;scheduler.c: 121:     }
  1516  04A7  2D3A               	goto	l4168
  1517  04A8                     l4136:	
  1518  04A8  082A               	movf	_u32compare_value,w
  1519  04A9  00CC               	movwf	??_Scheduler_Tick_time_calculation
  1520  04AA  082B               	movf	_u32compare_value+1,w
  1521  04AB  00CD               	movwf	??_Scheduler_Tick_time_calculation+1
  1522  04AC  082C               	movf	_u32compare_value+2,w
  1523  04AD  00CE               	movwf	??_Scheduler_Tick_time_calculation+2
  1524  04AE  082D               	movf	_u32compare_value+3,w
  1525  04AF  00CF               	movwf	??_Scheduler_Tick_time_calculation+3
  1526  04B0  3001               	movlw	1
  1527  04B1                     u5025:	
  1528  04B1  1003               	clrc
  1529  04B2  0CCF               	rrf	??_Scheduler_Tick_time_calculation+3,f
  1530  04B3  0CCE               	rrf	??_Scheduler_Tick_time_calculation+2,f
  1531  04B4  0CCD               	rrf	??_Scheduler_Tick_time_calculation+1,f
  1532  04B5  0CCC               	rrf	??_Scheduler_Tick_time_calculation,f
  1533  04B6                     u5020:	
  1534  04B6  3EFF               	addlw	-1
  1535  04B7  1D03               	skipz
  1536  04B8  2CB1               	goto	u5025
  1537  04B9  084F               	movf	??_Scheduler_Tick_time_calculation+3,w
  1538  04BA  1D03               	btfss	3,2
  1539  04BB  2CCA               	goto	u5031
  1540  04BC  084E               	movf	??_Scheduler_Tick_time_calculation+2,w
  1541  04BD  1D03               	btfss	3,2
  1542  04BE  2CCA               	goto	u5031
  1543  04BF  30FF               	movlw	255
  1544  04C0  024D               	subwf	??_Scheduler_Tick_time_calculation+1,w
  1545  04C1  1D03               	skipz
  1546  04C2  2CC7               	goto	u5033
  1547  04C3  30FF               	movlw	255
  1548  04C4  024C               	subwf	??_Scheduler_Tick_time_calculation,w
  1549  04C5  1D03               	skipz
  1550  04C6  2CC7               	goto	u5033
  1551  04C7                     u5033:	
  1552  04C7  1803               	btfsc	3,0
  1553  04C8  2CCA               	goto	u5031
  1554  04C9  2CCB               	goto	u5030
  1555  04CA                     u5031:	
  1556  04CA  2CD7               	goto	l4146
  1557  04CB                     u5030:	
  1558  04CB                     l4138:	
  1559                           
  1560                           ;scheduler.c: 123:     {;scheduler.c: 124:         Timer1_config_t.timer_prescaler_t = T
      +                          IMER1_PRESCALER_2;
  1561  04CB  01E8               	clrf	_Timer1_config_t
  1562  04CC  0AE8               	incf	_Timer1_config_t,f
  1563  04CD                     l4140:	
  1564                           
  1565                           ;scheduler.c: 125:         u32compare_value /= 2;
  1566  04CD  3001               	movlw	1
  1567  04CE                     u5045:	
  1568  04CE  1003               	clrc
  1569  04CF  0CAD               	rrf	_u32compare_value+3,f
  1570  04D0  0CAC               	rrf	_u32compare_value+2,f
  1571  04D1  0CAB               	rrf	_u32compare_value+1,f
  1572  04D2  0CAA               	rrf	_u32compare_value,f
  1573  04D3  3EFF               	addlw	-1
  1574  04D4  1D03               	skipz
  1575  04D5  2CCE               	goto	u5045
  1576  04D6  2C9C               	goto	l4132
  1577  04D7                     l4146:	
  1578  04D7  082A               	movf	_u32compare_value,w
  1579  04D8  00CC               	movwf	??_Scheduler_Tick_time_calculation
  1580  04D9  082B               	movf	_u32compare_value+1,w
  1581  04DA  00CD               	movwf	??_Scheduler_Tick_time_calculation+1
  1582  04DB  082C               	movf	_u32compare_value+2,w
  1583  04DC  00CE               	movwf	??_Scheduler_Tick_time_calculation+2
  1584  04DD  082D               	movf	_u32compare_value+3,w
  1585  04DE  00CF               	movwf	??_Scheduler_Tick_time_calculation+3
  1586  04DF  3002               	movlw	2
  1587  04E0                     u5055:	
  1588  04E0  1003               	clrc
  1589  04E1  0CCF               	rrf	??_Scheduler_Tick_time_calculation+3,f
  1590  04E2  0CCE               	rrf	??_Scheduler_Tick_time_calculation+2,f
  1591  04E3  0CCD               	rrf	??_Scheduler_Tick_time_calculation+1,f
  1592  04E4  0CCC               	rrf	??_Scheduler_Tick_time_calculation,f
  1593  04E5                     u5050:	
  1594  04E5  3EFF               	addlw	-1
  1595  04E6  1D03               	skipz
  1596  04E7  2CE0               	goto	u5055
  1597  04E8  084F               	movf	??_Scheduler_Tick_time_calculation+3,w
  1598  04E9  1D03               	btfss	3,2
  1599  04EA  2CF9               	goto	u5061
  1600  04EB  084E               	movf	??_Scheduler_Tick_time_calculation+2,w
  1601  04EC  1D03               	btfss	3,2
  1602  04ED  2CF9               	goto	u5061
  1603  04EE  30FF               	movlw	255
  1604  04EF  024D               	subwf	??_Scheduler_Tick_time_calculation+1,w
  1605  04F0  1D03               	skipz
  1606  04F1  2CF6               	goto	u5063
  1607  04F2  30FF               	movlw	255
  1608  04F3  024C               	subwf	??_Scheduler_Tick_time_calculation,w
  1609  04F4  1D03               	skipz
  1610  04F5  2CF6               	goto	u5063
  1611  04F6                     u5063:	
  1612  04F6  1803               	btfsc	3,0
  1613  04F7  2CF9               	goto	u5061
  1614  04F8  2CFA               	goto	u5060
  1615  04F9                     u5061:	
  1616  04F9  2D08               	goto	l4156
  1617  04FA                     u5060:	
  1618  04FA                     l4148:	
  1619                           
  1620                           ;scheduler.c: 131:     {;scheduler.c: 132:         Timer1_config_t.timer_prescaler_t = T
      +                          IMER1_PRESCALER_4;
  1621  04FA  3002               	movlw	2
  1622  04FB  00CC               	movwf	??_Scheduler_Tick_time_calculation
  1623  04FC  084C               	movf	??_Scheduler_Tick_time_calculation,w
  1624  04FD  00E8               	movwf	_Timer1_config_t
  1625  04FE                     l4150:	
  1626                           
  1627                           ;scheduler.c: 133:         u32compare_value /= 4;
  1628  04FE  3002               	movlw	2
  1629  04FF                     u5075:	
  1630  04FF  1003               	clrc
  1631  0500  0CAD               	rrf	_u32compare_value+3,f
  1632  0501  0CAC               	rrf	_u32compare_value+2,f
  1633  0502  0CAB               	rrf	_u32compare_value+1,f
  1634  0503  0CAA               	rrf	_u32compare_value,f
  1635  0504  3EFF               	addlw	-1
  1636  0505  1D03               	skipz
  1637  0506  2CFF               	goto	u5075
  1638  0507  2C9C               	goto	l4132
  1639  0508                     l4156:	
  1640  0508  082A               	movf	_u32compare_value,w
  1641  0509  00CC               	movwf	??_Scheduler_Tick_time_calculation
  1642  050A  082B               	movf	_u32compare_value+1,w
  1643  050B  00CD               	movwf	??_Scheduler_Tick_time_calculation+1
  1644  050C  082C               	movf	_u32compare_value+2,w
  1645  050D  00CE               	movwf	??_Scheduler_Tick_time_calculation+2
  1646  050E  082D               	movf	_u32compare_value+3,w
  1647  050F  00CF               	movwf	??_Scheduler_Tick_time_calculation+3
  1648  0510  3003               	movlw	3
  1649  0511                     u5085:	
  1650  0511  1003               	clrc
  1651  0512  0CCF               	rrf	??_Scheduler_Tick_time_calculation+3,f
  1652  0513  0CCE               	rrf	??_Scheduler_Tick_time_calculation+2,f
  1653  0514  0CCD               	rrf	??_Scheduler_Tick_time_calculation+1,f
  1654  0515  0CCC               	rrf	??_Scheduler_Tick_time_calculation,f
  1655  0516                     u5080:	
  1656  0516  3EFF               	addlw	-1
  1657  0517  1D03               	skipz
  1658  0518  2D11               	goto	u5085
  1659  0519  084F               	movf	??_Scheduler_Tick_time_calculation+3,w
  1660  051A  1D03               	btfss	3,2
  1661  051B  2D2A               	goto	u5091
  1662  051C  084E               	movf	??_Scheduler_Tick_time_calculation+2,w
  1663  051D  1D03               	btfss	3,2
  1664  051E  2D2A               	goto	u5091
  1665  051F  30FF               	movlw	255
  1666  0520  024D               	subwf	??_Scheduler_Tick_time_calculation+1,w
  1667  0521  1D03               	skipz
  1668  0522  2D27               	goto	u5093
  1669  0523  30FF               	movlw	255
  1670  0524  024C               	subwf	??_Scheduler_Tick_time_calculation,w
  1671  0525  1D03               	skipz
  1672  0526  2D27               	goto	u5093
  1673  0527                     u5093:	
  1674  0527  1803               	btfsc	3,0
  1675  0528  2D2A               	goto	u5091
  1676  0529  2D2B               	goto	u5090
  1677  052A                     u5091:	
  1678  052A  2D39               	goto	l4166
  1679  052B                     u5090:	
  1680  052B                     l4158:	
  1681                           
  1682                           ;scheduler.c: 139:     {;scheduler.c: 140:         Timer1_config_t.timer_prescaler_t = T
      +                          IMER1_PRESCALER_8;
  1683  052B  3003               	movlw	3
  1684  052C  00CC               	movwf	??_Scheduler_Tick_time_calculation
  1685  052D  084C               	movf	??_Scheduler_Tick_time_calculation,w
  1686  052E  00E8               	movwf	_Timer1_config_t
  1687  052F                     l4160:	
  1688                           
  1689                           ;scheduler.c: 141:         u32compare_value /= 8;
  1690  052F  3003               	movlw	3
  1691  0530                     u5105:	
  1692  0530  1003               	clrc
  1693  0531  0CAD               	rrf	_u32compare_value+3,f
  1694  0532  0CAC               	rrf	_u32compare_value+2,f
  1695  0533  0CAB               	rrf	_u32compare_value+1,f
  1696  0534  0CAA               	rrf	_u32compare_value,f
  1697  0535  3EFF               	addlw	-1
  1698  0536  1D03               	skipz
  1699  0537  2D30               	goto	u5105
  1700  0538  2C9C               	goto	l4132
  1701  0539                     l4166:	
  1702                           
  1703                           ;scheduler.c: 147:     {;scheduler.c: 148:         tick_calculation_t = SCHEDULER_NOT_AV
      +                          AILABLE_TICK_TIME_ERROR;
  1704  0539  01D1               	clrf	Scheduler_Tick_time_calculation@tick_calculation_t
  1705  053A                     l4168:	
  1706                           
  1707                           ;scheduler.c: 150:     return tick_calculation_t;
  1708  053A  0851               	movf	Scheduler_Tick_time_calculation@tick_calculation_t,w
  1709  053B                     l705:	
  1710  053B  0008               	return
  1711  053C                     __end_of_Scheduler_Tick_time_calculation:	
  1712                           
  1713                           	psect	text5
  1714  171B                     __ptext5:	
  1715 ;; *************** function ___lmul *****************
  1716 ;; Defined at:
  1717 ;;		line 15 in file "C:\Program Files (x86)\Microchip\xc8\v2.10\pic\sources\c90\common\Umul32.c"
  1718 ;; Parameters:    Size  Location     Type
  1719 ;;  multiplier      4    0[BANK0 ] unsigned long 
  1720 ;;  multiplicand    4    4[BANK0 ] unsigned long 
  1721 ;; Auto vars:     Size  Location     Type
  1722 ;;  product         4    9[BANK0 ] unsigned long 
  1723 ;; Return value:  Size  Location     Type
  1724 ;;                  4    0[BANK0 ] unsigned long 
  1725 ;; Registers used:
  1726 ;;		wreg, status,2, status,0
  1727 ;; Tracked objects:
  1728 ;;		On entry : 0/0
  1729 ;;		On exit  : 0/0
  1730 ;;		Unchanged: 0/0
  1731 ;; Data sizes:     COMMON   BANK0   BANK1   BANK3   BANK2
  1732 ;;      Params:         0       8       0       0       0
  1733 ;;      Locals:         0       4       0       0       0
  1734 ;;      Temps:          0       1       0       0       0
  1735 ;;      Totals:         0      13       0       0       0
  1736 ;;Total ram usage:       13 bytes
  1737 ;; Hardware stack levels used:    1
  1738 ;; Hardware stack levels required when called:    3
  1739 ;; This function calls:
  1740 ;;		Nothing
  1741 ;; This function is called by:
  1742 ;;		_Scheduler_Tick_time_calculation
  1743 ;; This function uses a non-reentrant model
  1744 ;;
  1745                           
  1746                           
  1747                           ;psect for function ___lmul
  1748  171B                     ___lmul:	
  1749  171B                     l3658:	
  1750                           ;incstack = 0
  1751                           ; Regs used in ___lmul: [wreg+status,2+status,0]
  1752                           
  1753  171B  3000               	movlw	0
  1754  171C  1283               	bcf	3,5	;RP0=0, select bank0
  1755  171D  1303               	bcf	3,6	;RP1=0, select bank0
  1756  171E  00CB               	movwf	___lmul@product+3
  1757  171F  3000               	movlw	0
  1758  1720  00CA               	movwf	___lmul@product+2
  1759  1721  3000               	movlw	0
  1760  1722  00C9               	movwf	___lmul@product+1
  1761  1723  3000               	movlw	0
  1762  1724  00C8               	movwf	___lmul@product
  1763  1725                     l3660:	
  1764  1725  1C3F               	btfss	___lmul@multiplier,0
  1765  1726  2F28               	goto	u4261
  1766  1727  2F29               	goto	u4260
  1767  1728                     u4261:	
  1768  1728  2F40               	goto	l3664
  1769  1729                     u4260:	
  1770  1729                     l3662:	
  1771  1729  0843               	movf	___lmul@multiplicand,w
  1772  172A  07C8               	addwf	___lmul@product,f
  1773  172B  0844               	movf	___lmul@multiplicand+1,w
  1774  172C  1103               	clrz
  1775  172D  1803               	skipnc
  1776  172E  3E01               	addlw	1
  1777  172F  1903               	skipnz
  1778  1730  2F32               	goto	u4271
  1779  1731  07C9               	addwf	___lmul@product+1,f
  1780  1732                     u4271:	
  1781  1732  0845               	movf	___lmul@multiplicand+2,w
  1782  1733  1103               	clrz
  1783  1734  1803               	skipnc
  1784  1735  3E01               	addlw	1
  1785  1736  1903               	skipnz
  1786  1737  2F39               	goto	u4272
  1787  1738  07CA               	addwf	___lmul@product+2,f
  1788  1739                     u4272:	
  1789  1739  0846               	movf	___lmul@multiplicand+3,w
  1790  173A  1103               	clrz
  1791  173B  1803               	skipnc
  1792  173C  3E01               	addlw	1
  1793  173D  1903               	skipnz
  1794  173E  2F40               	goto	u4273
  1795  173F  07CB               	addwf	___lmul@product+3,f
  1796  1740                     u4273:	
  1797  1740                     l3664:	
  1798  1740  3001               	movlw	1
  1799  1741  00C7               	movwf	??___lmul
  1800  1742                     u4285:	
  1801  1742  1003               	clrc
  1802  1743  0DC3               	rlf	___lmul@multiplicand,f
  1803  1744  0DC4               	rlf	___lmul@multiplicand+1,f
  1804  1745  0DC5               	rlf	___lmul@multiplicand+2,f
  1805  1746  0DC6               	rlf	___lmul@multiplicand+3,f
  1806  1747  0BC7               	decfsz	??___lmul,f
  1807  1748  2F42               	goto	u4285
  1808  1749                     l3666:	
  1809  1749  3001               	movlw	1
  1810  174A                     u4295:	
  1811  174A  1003               	clrc
  1812  174B  0CC2               	rrf	___lmul@multiplier+3,f
  1813  174C  0CC1               	rrf	___lmul@multiplier+2,f
  1814  174D  0CC0               	rrf	___lmul@multiplier+1,f
  1815  174E  0CBF               	rrf	___lmul@multiplier,f
  1816  174F  3EFF               	addlw	-1
  1817  1750  1D03               	skipz
  1818  1751  2F4A               	goto	u4295
  1819  1752  0842               	movf	___lmul@multiplier+3,w
  1820  1753  0441               	iorwf	___lmul@multiplier+2,w
  1821  1754  0440               	iorwf	___lmul@multiplier+1,w
  1822  1755  043F               	iorwf	___lmul@multiplier,w
  1823  1756  1D03               	skipz
  1824  1757  2F59               	goto	u4301
  1825  1758  2F5A               	goto	u4300
  1826  1759                     u4301:	
  1827  1759  2F25               	goto	l3660
  1828  175A                     u4300:	
  1829  175A                     l3668:	
  1830  175A  084B               	movf	___lmul@product+3,w
  1831  175B  00C2               	movwf	?___lmul+3
  1832  175C  084A               	movf	___lmul@product+2,w
  1833  175D  00C1               	movwf	?___lmul+2
  1834  175E  0849               	movf	___lmul@product+1,w
  1835  175F  00C0               	movwf	?___lmul+1
  1836  1760  0848               	movf	___lmul@product,w
  1837  1761  00BF               	movwf	?___lmul
  1838  1762                     l908:	
  1839  1762  0008               	return
  1840  1763                     __end_of___lmul:	
  1841                           
  1842                           	psect	text6
  1843  080E                     __ptext6:	
  1844 ;; *************** function _Timer1_Initialization *****************
  1845 ;; Defined at:
  1846 ;;		line 124 in file "timers.c"
  1847 ;; Parameters:    Size  Location     Type
  1848 ;;		None
  1849 ;; Auto vars:     Size  Location     Type
  1850 ;;		None
  1851 ;; Return value:  Size  Location     Type
  1852 ;;                  1    wreg      void 
  1853 ;; Registers used:
  1854 ;;		wreg, fsr0l, fsr0h, status,2, status,0
  1855 ;; Tracked objects:
  1856 ;;		On entry : 0/0
  1857 ;;		On exit  : 0/0
  1858 ;;		Unchanged: 0/0
  1859 ;; Data sizes:     COMMON   BANK0   BANK1   BANK3   BANK2
  1860 ;;      Params:         0       0       0       0       0
  1861 ;;      Locals:         0       0       0       0       0
  1862 ;;      Temps:          0       2       0       0       0
  1863 ;;      Totals:         0       2       0       0       0
  1864 ;;Total ram usage:        2 bytes
  1865 ;; Hardware stack levels used:    1
  1866 ;; Hardware stack levels required when called:    3
  1867 ;; This function calls:
  1868 ;;		Nothing
  1869 ;; This function is called by:
  1870 ;;		_Scheduler_Tick_time_calculation
  1871 ;; This function uses a non-reentrant model
  1872 ;;
  1873                           
  1874                           
  1875                           ;psect for function _Timer1_Initialization
  1876  080E                     _Timer1_Initialization:	
  1877  080E                     l3634:	
  1878                           ;incstack = 0
  1879                           ; Regs used in _Timer1_Initialization: [wreg-fsr0h+status,2+status,0]
  1880                           
  1881                           
  1882                           ;timers.c: 127:     if(Timer1_config_t.timer_clock_source_t == TIMER1_INTERNAL_CLOCK)
  1883  080E  1283               	bcf	3,5	;RP0=0, select bank0
  1884  080F  1303               	bcf	3,6	;RP1=0, select bank0
  1885  0810  0869               	movf	_Timer1_config_t+1,w
  1886  0811  1D03               	btfss	3,2
  1887  0812  2814               	goto	u4231
  1888  0813  2815               	goto	u4230
  1889  0814                     u4231:	
  1890  0814  281A               	goto	l779
  1891  0815                     u4230:	
  1892  0815                     l3636:	
  1893                           
  1894                           ;timers.c: 128:     {;timers.c: 129:         *(volatile uint8*)0x10 &= ~(1 << 1u);
  1895  0815  30FD               	movlw	253
  1896  0816  00BF               	movwf	??_Timer1_Initialization
  1897  0817  083F               	movf	??_Timer1_Initialization,w
  1898  0818  0590               	andwf	16,f	;volatile
  1899                           
  1900                           ;timers.c: 130:     }
  1901  0819  281B               	goto	l3638
  1902  081A                     l779:	
  1903                           ;timers.c: 131:     else
  1904                           
  1905                           
  1906                           ;timers.c: 132:     {;timers.c: 133:         *(volatile uint8*)0x10 |= 1 << 1u;
  1907  081A  1490               	bsf	16,1	;volatile
  1908  081B                     l3638:	
  1909                           
  1910                           ;timers.c: 136:     if(Timer1_config_t.timer_clock_source_t != TIMER1_INTERNAL_CLOCK)
  1911  081B  0869               	movf	_Timer1_config_t+1,w
  1912  081C  1903               	btfsc	3,2
  1913  081D  281F               	goto	u4241
  1914  081E  2820               	goto	u4240
  1915  081F                     u4241:	
  1916  081F  284A               	goto	l3652
  1917  0820                     u4240:	
  1918  0820                     l3640:	
  1919                           
  1920                           ;timers.c: 137:     {;timers.c: 138:         *(volatile uint8*)0x10 &= 0xFB;
  1921  0820  30FB               	movlw	251
  1922  0821  00BF               	movwf	??_Timer1_Initialization
  1923  0822  083F               	movf	??_Timer1_Initialization,w
  1924  0823  0590               	andwf	16,f	;volatile
  1925                           
  1926                           ;timers.c: 139:         *(volatile uint8*)0x10 |= Timer1_config_t.timer_sync_with_extern
      +                          al_clock << 2;
  1927  0824  086A               	movf	_Timer1_config_t+2,w
  1928  0825  00BF               	movwf	??_Timer1_Initialization
  1929  0826  3001               	movlw	1
  1930  0827                     u4255:	
  1931  0827  1003               	clrc
  1932  0828  0DBF               	rlf	??_Timer1_Initialization,f
  1933  0829  3EFF               	addlw	-1
  1934  082A  1D03               	skipz
  1935  082B  2827               	goto	u4255
  1936  082C  1003               	clrc
  1937  082D  0D3F               	rlf	??_Timer1_Initialization,w
  1938  082E  00C0               	movwf	??_Timer1_Initialization+1
  1939  082F  0840               	movf	??_Timer1_Initialization+1,w
  1940  0830  0490               	iorwf	16,f	;volatile
  1941                           
  1942                           ;timers.c: 140:     }
  1943  0831  284A               	goto	l3652
  1944  0832                     l3642:	
  1945                           
  1946                           ;timers.c: 149:             *(volatile uint8*)0x10 &= ~(1 << 5u);
  1947  0832  30DF               	movlw	223
  1948  0833  00BF               	movwf	??_Timer1_Initialization
  1949  0834  083F               	movf	??_Timer1_Initialization,w
  1950  0835  0590               	andwf	16,f	;volatile
  1951                           
  1952                           ;timers.c: 150:             *(volatile uint8*)0x10 &= ~(1 << 4u);
  1953  0836  30EF               	movlw	239
  1954  0837  00BF               	movwf	??_Timer1_Initialization
  1955  0838  083F               	movf	??_Timer1_Initialization,w
  1956  0839  0590               	andwf	16,f	;volatile
  1957                           
  1958                           ;timers.c: 151:             break;
  1959  083A  2860               	goto	l790
  1960  083B                     l3644:	
  1961                           
  1962                           ;timers.c: 153:             *(volatile uint8*)0x10 &= ~(1 << 5u);
  1963  083B  30DF               	movlw	223
  1964  083C  00BF               	movwf	??_Timer1_Initialization
  1965  083D  083F               	movf	??_Timer1_Initialization,w
  1966  083E  0590               	andwf	16,f	;volatile
  1967  083F                     l3646:	
  1968                           
  1969                           ;timers.c: 154:             *(volatile uint8*)0x10 |= 1 << 4u;
  1970  083F  1610               	bsf	16,4	;volatile
  1971                           
  1972                           ;timers.c: 155:             break;
  1973  0840  2860               	goto	l790
  1974  0841                     l787:	
  1975                           ;timers.c: 156:         case TIMER1_PRESCALER_4:
  1976                           
  1977                           
  1978                           ;timers.c: 157:             *(volatile uint8*)0x10 |= 1 << 5u;
  1979  0841  1690               	bsf	16,5	;volatile
  1980  0842                     l3648:	
  1981                           
  1982                           ;timers.c: 158:             *(volatile uint8*)0x10 &= ~(1 << 4u);
  1983  0842  30EF               	movlw	239
  1984  0843  00BF               	movwf	??_Timer1_Initialization
  1985  0844  083F               	movf	??_Timer1_Initialization,w
  1986  0845  0590               	andwf	16,f	;volatile
  1987                           
  1988                           ;timers.c: 159:             break;
  1989  0846  2860               	goto	l790
  1990  0847                     l788:	
  1991                           ;timers.c: 160:         case TIMER1_PRESCALER_8:
  1992                           
  1993                           
  1994                           ;timers.c: 161:             *(volatile uint8*)0x10 |= 1 << 5u;
  1995  0847  1690               	bsf	16,5	;volatile
  1996                           
  1997                           ;timers.c: 162:             *(volatile uint8*)0x10 |= 1 << 4u;
  1998  0848  1610               	bsf	16,4	;volatile
  1999                           
  2000                           ;timers.c: 163:             break;
  2001  0849  2860               	goto	l790
  2002  084A                     l3652:	
  2003  084A  0868               	movf	_Timer1_config_t,w
  2004  084B  00BF               	movwf	??_Timer1_Initialization
  2005  084C  01C0               	clrf	??_Timer1_Initialization+1
  2006                           
  2007                           ; Switch on 2 bytes has been partitioned into a top level switch of size 1, and 1 sub-sw
      +                          itches
  2008                           ; Switch size 1, requested type "simple"
  2009                           ; Number of cases is 1, Range of values is 0 to 0
  2010                           ; switch strategies available:
  2011                           ; Name         Instructions Cycles
  2012                           ; simple_byte            4     3 (average)
  2013                           ; direct_byte           11     8 (fixed)
  2014                           ; jumptable            260     6 (fixed)
  2015                           ;	Chosen strategy is simple_byte
  2016  084D  0840               	movf	??_Timer1_Initialization+1,w
  2017  084E  3A00               	xorlw	0	; case 0
  2018  084F  1903               	skipnz
  2019  0850  2852               	goto	l4730
  2020  0851  2860               	goto	l790
  2021  0852                     l4730:	
  2022                           
  2023                           ; Switch size 1, requested type "simple"
  2024                           ; Number of cases is 4, Range of values is 0 to 3
  2025                           ; switch strategies available:
  2026                           ; Name         Instructions Cycles
  2027                           ; simple_byte           13     7 (average)
  2028                           ; direct_byte           20     8 (fixed)
  2029                           ; jumptable            260     6 (fixed)
  2030                           ;	Chosen strategy is simple_byte
  2031  0852  083F               	movf	??_Timer1_Initialization,w
  2032  0853  3A00               	xorlw	0	; case 0
  2033  0854  1903               	skipnz
  2034  0855  2832               	goto	l3642
  2035  0856  3A01               	xorlw	1	; case 1
  2036  0857  1903               	skipnz
  2037  0858  283B               	goto	l3644
  2038  0859  3A03               	xorlw	3	; case 2
  2039  085A  1903               	skipnz
  2040  085B  2841               	goto	l787
  2041  085C  3A01               	xorlw	1	; case 3
  2042  085D  1903               	skipnz
  2043  085E  2847               	goto	l788
  2044  085F  2860               	goto	l790
  2045  0860                     l790:	
  2046  0860  0008               	return
  2047  0861                     __end_of_Timer1_Initialization:	
  2048                           
  2049                           	psect	text7
  2050  13F4                     __ptext7:	
  2051 ;; *************** function _Peripherals_interrupt_enable *****************
  2052 ;; Defined at:
  2053 ;;		line 950 in file "interrupt.c"
  2054 ;; Parameters:    Size  Location     Type
  2055 ;;		None
  2056 ;; Auto vars:     Size  Location     Type
  2057 ;;		None
  2058 ;; Return value:  Size  Location     Type
  2059 ;;                  1    wreg      void 
  2060 ;; Registers used:
  2061 ;;		None
  2062 ;; Tracked objects:
  2063 ;;		On entry : 0/0
  2064 ;;		On exit  : 0/0
  2065 ;;		Unchanged: 0/0
  2066 ;; Data sizes:     COMMON   BANK0   BANK1   BANK3   BANK2
  2067 ;;      Params:         0       0       0       0       0
  2068 ;;      Locals:         0       0       0       0       0
  2069 ;;      Temps:          0       0       0       0       0
  2070 ;;      Totals:         0       0       0       0       0
  2071 ;;Total ram usage:        0 bytes
  2072 ;; Hardware stack levels used:    1
  2073 ;; Hardware stack levels required when called:    3
  2074 ;; This function calls:
  2075 ;;		Nothing
  2076 ;; This function is called by:
  2077 ;;		_Scheduler_Initialization
  2078 ;; This function uses a non-reentrant model
  2079 ;;
  2080                           
  2081                           
  2082                           ;psect for function _Peripherals_interrupt_enable
  2083  13F4                     _Peripherals_interrupt_enable:	
  2084  13F4                     l4112:	
  2085                           ;incstack = 0
  2086                           ; Regs used in _Peripherals_interrupt_enable: []
  2087                           
  2088                           
  2089                           ;interrupt.c: 952:     *(volatile uint8*)0x0B |= 1 << 6u;
  2090  13F4  170B               	bsf	11,6	;volatile
  2091  13F5                     l614:	
  2092  13F5  0008               	return
  2093  13F6                     __end_of_Peripherals_interrupt_enable:	
  2094                           
  2095                           	psect	text8
  2096  13F2                     __ptext8:	
  2097 ;; *************** function _Global_interrupt_enable *****************
  2098 ;; Defined at:
  2099 ;;		line 916 in file "interrupt.c"
  2100 ;; Parameters:    Size  Location     Type
  2101 ;;		None
  2102 ;; Auto vars:     Size  Location     Type
  2103 ;;		None
  2104 ;; Return value:  Size  Location     Type
  2105 ;;                  1    wreg      void 
  2106 ;; Registers used:
  2107 ;;		None
  2108 ;; Tracked objects:
  2109 ;;		On entry : 0/0
  2110 ;;		On exit  : 0/0
  2111 ;;		Unchanged: 0/0
  2112 ;; Data sizes:     COMMON   BANK0   BANK1   BANK3   BANK2
  2113 ;;      Params:         0       0       0       0       0
  2114 ;;      Locals:         0       0       0       0       0
  2115 ;;      Temps:          0       0       0       0       0
  2116 ;;      Totals:         0       0       0       0       0
  2117 ;;Total ram usage:        0 bytes
  2118 ;; Hardware stack levels used:    1
  2119 ;; Hardware stack levels required when called:    3
  2120 ;; This function calls:
  2121 ;;		Nothing
  2122 ;; This function is called by:
  2123 ;;		_Scheduler_Initialization
  2124 ;; This function uses a non-reentrant model
  2125 ;;
  2126                           
  2127                           
  2128                           ;psect for function _Global_interrupt_enable
  2129  13F2                     _Global_interrupt_enable:	
  2130  13F2                     l4110:	
  2131                           ;incstack = 0
  2132                           ; Regs used in _Global_interrupt_enable: []
  2133                           
  2134                           
  2135                           ;interrupt.c: 918:     *(volatile uint8*)0x0B |= 1 << 7u;
  2136  13F2  178B               	bsf	11,7	;volatile
  2137  13F3                     l608:	
  2138  13F3  0008               	return
  2139  13F4                     __end_of_Global_interrupt_enable:	
  2140                           
  2141                           	psect	text9
  2142  053C                     __ptext9:	
  2143 ;; *************** function _Scheduler_Dispatcher *****************
  2144 ;; Defined at:
  2145 ;;		line 319 in file "scheduler.c"
  2146 ;; Parameters:    Size  Location     Type
  2147 ;;		None
  2148 ;; Auto vars:     Size  Location     Type
  2149 ;;  Counter         2   29[BANK0 ] unsigned short 
  2150 ;; Return value:  Size  Location     Type
  2151 ;;                  1    wreg      void 
  2152 ;; Registers used:
  2153 ;;		wreg, fsr0l, fsr0h, status,2, status,0, pclath, cstack
  2154 ;; Tracked objects:
  2155 ;;		On entry : 0/0
  2156 ;;		On exit  : 0/0
  2157 ;;		Unchanged: 0/0
  2158 ;; Data sizes:     COMMON   BANK0   BANK1   BANK3   BANK2
  2159 ;;      Params:         0       0       0       0       0
  2160 ;;      Locals:         0       2       0       0       0
  2161 ;;      Temps:          0       2       0       0       0
  2162 ;;      Totals:         0       4       0       0       0
  2163 ;;Total ram usage:        4 bytes
  2164 ;; Hardware stack levels used:    1
  2165 ;; Hardware stack levels required when called:    7
  2166 ;; This function calls:
  2167 ;;		_Heater_Display_Task
  2168 ;;		_Heater_Heating_Cooling_Task
  2169 ;;		_Heater_LED_Task
  2170 ;;		_Heater_On_Off_Button_Task
  2171 ;;		_Heater_Reading_Temperature_Sensor_Task
  2172 ;;		_Heater_Up_Down_Buttons_Task
  2173 ;;		_initialization_Tasks
  2174 ;; This function is called by:
  2175 ;;		_main
  2176 ;; This function uses a non-reentrant model
  2177 ;;
  2178                           
  2179                           
  2180                           ;psect for function _Scheduler_Dispatcher
  2181  053C                     _Scheduler_Dispatcher:	
  2182  053C                     l4216:	
  2183                           ;incstack = 0
  2184                           ; Regs used in _Scheduler_Dispatcher: [wreg-fsr0h+status,2+status,0+pclath+cstack]
  2185                           
  2186                           
  2187                           ;scheduler.c: 322:  for(uint16 Counter = 0 ; Counter < 10u ; Counter++)
  2188  053C  1283               	bcf	3,5	;RP0=0, select bank0
  2189  053D  1303               	bcf	3,6	;RP1=0, select bank0
  2190  053E  01DC               	clrf	Scheduler_Dispatcher@Counter
  2191  053F  01DD               	clrf	Scheduler_Dispatcher@Counter+1
  2192  0540                     l4222:	
  2193                           
  2194                           ;scheduler.c: 323:  {;scheduler.c: 325:   if(Scheduler_Tasks[Counter].Task_State == READ
      +                          Y)
  2195  0540  085C               	movf	Scheduler_Dispatcher@Counter,w
  2196  0541  00DA               	movwf	??_Scheduler_Dispatcher
  2197  0542  3002               	movlw	2
  2198  0543                     u5195:	
  2199  0543  1003               	clrc
  2200  0544  0DDA               	rlf	??_Scheduler_Dispatcher,f
  2201  0545  3EFF               	addlw	-1
  2202  0546  1D03               	skipz
  2203  0547  2D43               	goto	u5195
  2204  0548  1003               	clrc
  2205  0549  0D5A               	rlf	??_Scheduler_Dispatcher,w
  2206  054A  3EA6               	addlw	(low ((_Scheduler_Tasks| 0+6)))& (0+255)
  2207  054B  0084               	movwf	4
  2208  054C  1383               	bcf	3,7	;select IRP bank1
  2209  054D  0800               	movf	0,w
  2210  054E  1D03               	btfss	3,2
  2211  054F  2D51               	goto	u5201
  2212  0550  2D52               	goto	u5200
  2213  0551                     u5201:	
  2214  0551  2DEB               	goto	l4234
  2215  0552                     u5200:	
  2216  0552                     l4224:	
  2217                           
  2218                           ;scheduler.c: 326:   {;scheduler.c: 327:    Scheduler_Tasks[Counter].Task_State = RUNNIN
      +                          G;
  2219  0552  085C               	movf	Scheduler_Dispatcher@Counter,w
  2220  0553  00DA               	movwf	??_Scheduler_Dispatcher
  2221  0554  3002               	movlw	2
  2222  0555                     u5215:	
  2223  0555  1003               	clrc
  2224  0556  0DDA               	rlf	??_Scheduler_Dispatcher,f
  2225  0557  3EFF               	addlw	-1
  2226  0558  1D03               	skipz
  2227  0559  2D55               	goto	u5215
  2228  055A  1003               	clrc
  2229  055B  0D5A               	rlf	??_Scheduler_Dispatcher,w
  2230  055C  3EA6               	addlw	(low ((_Scheduler_Tasks| 0+6)))& (0+255)
  2231  055D  0084               	movwf	4
  2232  055E  0180               	clrf	0
  2233  055F  0A80               	incf	0,f
  2234  0560                     l4226:	
  2235                           
  2236                           ;scheduler.c: 328:    Scheduler_Tasks[Counter].Task_Function();
  2237  0560  085C               	movf	Scheduler_Dispatcher@Counter,w
  2238  0561  00DA               	movwf	??_Scheduler_Dispatcher
  2239  0562  3002               	movlw	2
  2240  0563                     u5225:	
  2241  0563  1003               	clrc
  2242  0564  0DDA               	rlf	??_Scheduler_Dispatcher,f
  2243  0565  3EFF               	addlw	-1
  2244  0566  1D03               	skipz
  2245  0567  2D63               	goto	u5225
  2246  0568  1003               	clrc
  2247  0569  0D5A               	rlf	??_Scheduler_Dispatcher,w
  2248  056A  3EA7               	addlw	(low ((_Scheduler_Tasks| 0+7)))& (0+255)
  2249  056B  0084               	movwf	4
  2250  056C  0800               	movf	0,w
  2251  056D  120A  118A  2037  120A  118A  	fcall	fptable
  2252  0572                     l4228:	
  2253                           
  2254                           ;scheduler.c: 329:    Scheduler_Tasks[Counter].Task_State = WAITING;
  2255  0572  3002               	movlw	2
  2256  0573  1283               	bcf	3,5	;RP0=0, select bank0
  2257  0574  1303               	bcf	3,6	;RP1=0, select bank0
  2258  0575  00DA               	movwf	??_Scheduler_Dispatcher
  2259  0576  085C               	movf	Scheduler_Dispatcher@Counter,w
  2260  0577  00DB               	movwf	??_Scheduler_Dispatcher+1
  2261  0578  3002               	movlw	2
  2262  0579                     u5235:	
  2263  0579  1003               	clrc
  2264  057A  0DDB               	rlf	??_Scheduler_Dispatcher+1,f
  2265  057B  3EFF               	addlw	-1
  2266  057C  1D03               	skipz
  2267  057D  2D79               	goto	u5235
  2268  057E  1003               	clrc
  2269  057F  0D5B               	rlf	??_Scheduler_Dispatcher+1,w
  2270  0580  3EA6               	addlw	(low ((_Scheduler_Tasks| 0+6)))& (0+255)
  2271  0581  0084               	movwf	4
  2272  0582  085A               	movf	??_Scheduler_Dispatcher,w
  2273  0583  1383               	bcf	3,7	;select IRP bank1
  2274  0584  0080               	movwf	0
  2275  0585                     l4230:	
  2276                           
  2277                           ;scheduler.c: 331:             if(Scheduler_Tasks[Counter].Task_RepeatType == ONCE)
  2278  0585  085C               	movf	Scheduler_Dispatcher@Counter,w
  2279  0586  00DA               	movwf	??_Scheduler_Dispatcher
  2280  0587  3002               	movlw	2
  2281  0588                     u5245:	
  2282  0588  1003               	clrc
  2283  0589  0DDA               	rlf	??_Scheduler_Dispatcher,f
  2284  058A  3EFF               	addlw	-1
  2285  058B  1D03               	skipz
  2286  058C  2D88               	goto	u5245
  2287  058D  1003               	clrc
  2288  058E  0D5A               	rlf	??_Scheduler_Dispatcher,w
  2289  058F  3EA5               	addlw	(low ((_Scheduler_Tasks| 0+5)))& (0+255)
  2290  0590  0084               	movwf	4
  2291  0591  0800               	movf	0,w
  2292  0592  1D03               	btfss	3,2
  2293  0593  2D95               	goto	u5251
  2294  0594  2D96               	goto	u5250
  2295  0595                     u5251:	
  2296  0595  2DEB               	goto	l4234
  2297  0596                     u5250:	
  2298  0596                     l4232:	
  2299                           
  2300                           ;scheduler.c: 332:             {;scheduler.c: 334:                 Scheduler_Tasks[Count
      +                          er].Task_ID = 0;
  2301  0596  085C               	movf	Scheduler_Dispatcher@Counter,w
  2302  0597  00DA               	movwf	??_Scheduler_Dispatcher
  2303  0598  3002               	movlw	2
  2304  0599                     u5265:	
  2305  0599  1003               	clrc
  2306  059A  0DDA               	rlf	??_Scheduler_Dispatcher,f
  2307  059B  3EFF               	addlw	-1
  2308  059C  1D03               	skipz
  2309  059D  2D99               	goto	u5265
  2310  059E  1003               	clrc
  2311  059F  0D5A               	rlf	??_Scheduler_Dispatcher,w
  2312  05A0  3EA0               	addlw	(low (_Scheduler_Tasks| 0))& (0+255)
  2313  05A1  0084               	movwf	4
  2314  05A2  0180               	clrf	0
  2315                           
  2316                           ;scheduler.c: 335:                 Scheduler_Tasks[Counter].Task_Periodicity = 0;
  2317  05A3  085C               	movf	Scheduler_Dispatcher@Counter,w
  2318  05A4  00DA               	movwf	??_Scheduler_Dispatcher
  2319  05A5  3002               	movlw	2
  2320  05A6                     u5275:	
  2321  05A6  1003               	clrc
  2322  05A7  0DDA               	rlf	??_Scheduler_Dispatcher,f
  2323  05A8  3EFF               	addlw	-1
  2324  05A9  1D03               	skipz
  2325  05AA  2DA6               	goto	u5275
  2326  05AB  1003               	clrc
  2327  05AC  0D5A               	rlf	??_Scheduler_Dispatcher,w
  2328  05AD  3EA3               	addlw	(low ((_Scheduler_Tasks| 0+3)))& (0+255)
  2329  05AE  0084               	movwf	4
  2330  05AF  0180               	clrf	0
  2331  05B0  0A84               	incf	4,f
  2332  05B1  0180               	clrf	0
  2333                           
  2334                           ;scheduler.c: 336:                 Scheduler_Tasks[Counter].Task_RepeatType = ONCE;
  2335  05B2  085C               	movf	Scheduler_Dispatcher@Counter,w
  2336  05B3  00DA               	movwf	??_Scheduler_Dispatcher
  2337  05B4  3002               	movlw	2
  2338  05B5                     u5285:	
  2339  05B5  1003               	clrc
  2340  05B6  0DDA               	rlf	??_Scheduler_Dispatcher,f
  2341  05B7  3EFF               	addlw	-1
  2342  05B8  1D03               	skipz
  2343  05B9  2DB5               	goto	u5285
  2344  05BA  1003               	clrc
  2345  05BB  0D5A               	rlf	??_Scheduler_Dispatcher,w
  2346  05BC  3EA5               	addlw	(low ((_Scheduler_Tasks| 0+5)))& (0+255)
  2347  05BD  0084               	movwf	4
  2348  05BE  0180               	clrf	0
  2349                           
  2350                           ;scheduler.c: 337:                 Scheduler_Tasks[Counter].Task_ExecutionTime = 0;
  2351  05BF  085C               	movf	Scheduler_Dispatcher@Counter,w
  2352  05C0  00DA               	movwf	??_Scheduler_Dispatcher
  2353  05C1  3002               	movlw	2
  2354  05C2                     u5295:	
  2355  05C2  1003               	clrc
  2356  05C3  0DDA               	rlf	??_Scheduler_Dispatcher,f
  2357  05C4  3EFF               	addlw	-1
  2358  05C5  1D03               	skipz
  2359  05C6  2DC2               	goto	u5295
  2360  05C7  1003               	clrc
  2361  05C8  0D5A               	rlf	??_Scheduler_Dispatcher,w
  2362  05C9  3EA1               	addlw	(low ((_Scheduler_Tasks| 0+1)))& (0+255)
  2363  05CA  0084               	movwf	4
  2364  05CB  0180               	clrf	0
  2365  05CC  0A84               	incf	4,f
  2366  05CD  0180               	clrf	0
  2367                           
  2368                           ;scheduler.c: 338:                 Scheduler_Tasks[Counter].Task_State = WAITING;
  2369  05CE  3002               	movlw	2
  2370  05CF  00DA               	movwf	??_Scheduler_Dispatcher
  2371  05D0  085C               	movf	Scheduler_Dispatcher@Counter,w
  2372  05D1  00DB               	movwf	??_Scheduler_Dispatcher+1
  2373  05D2  3002               	movlw	2
  2374  05D3                     u5305:	
  2375  05D3  1003               	clrc
  2376  05D4  0DDB               	rlf	??_Scheduler_Dispatcher+1,f
  2377  05D5  3EFF               	addlw	-1
  2378  05D6  1D03               	skipz
  2379  05D7  2DD3               	goto	u5305
  2380  05D8  1003               	clrc
  2381  05D9  0D5B               	rlf	??_Scheduler_Dispatcher+1,w
  2382  05DA  3EA6               	addlw	(low ((_Scheduler_Tasks| 0+6)))& (0+255)
  2383  05DB  0084               	movwf	4
  2384  05DC  085A               	movf	??_Scheduler_Dispatcher,w
  2385  05DD  0080               	movwf	0
  2386                           
  2387                           ;scheduler.c: 339:                 Scheduler_Tasks[Counter].Task_Function = (void*)0x00;
  2388  05DE  085C               	movf	Scheduler_Dispatcher@Counter,w
  2389  05DF  00DA               	movwf	??_Scheduler_Dispatcher
  2390  05E0  3002               	movlw	2
  2391  05E1                     u5315:	
  2392  05E1  1003               	clrc
  2393  05E2  0DDA               	rlf	??_Scheduler_Dispatcher,f
  2394  05E3  3EFF               	addlw	-1
  2395  05E4  1D03               	skipz
  2396  05E5  2DE1               	goto	u5315
  2397  05E6  1003               	clrc
  2398  05E7  0D5A               	rlf	??_Scheduler_Dispatcher,w
  2399  05E8  3EA7               	addlw	(low ((_Scheduler_Tasks| 0+7)))& (0+255)
  2400  05E9  0084               	movwf	4
  2401  05EA  0180               	clrf	0
  2402  05EB                     l4234:	
  2403                           ;scheduler.c: 340:             }
  2404                           
  2405                           
  2406                           ;scheduler.c: 350:  }
  2407  05EB  3001               	movlw	1
  2408  05EC  07DC               	addwf	Scheduler_Dispatcher@Counter,f
  2409  05ED  1803               	skipnc
  2410  05EE  0ADD               	incf	Scheduler_Dispatcher@Counter+1,f
  2411  05EF  3000               	movlw	0
  2412  05F0  07DD               	addwf	Scheduler_Dispatcher@Counter+1,f
  2413  05F1  3000               	movlw	0
  2414  05F2  025D               	subwf	Scheduler_Dispatcher@Counter+1,w
  2415  05F3  300A               	movlw	10
  2416  05F4  1903               	skipnz
  2417  05F5  025C               	subwf	Scheduler_Dispatcher@Counter,w
  2418  05F6  1C03               	skipc
  2419  05F7  2DF9               	goto	u5321
  2420  05F8  2DFA               	goto	u5320
  2421  05F9                     u5321:	
  2422  05F9  2D40               	goto	l4222
  2423  05FA                     u5320:	
  2424  05FA                     l741:	
  2425  05FA  0008               	return
  2426  05FB                     __end_of_Scheduler_Dispatcher:	
  2427                           
  2428                           	psect	text10
  2429  05FB                     __ptext10:	
  2430 ;; *************** function _Heater_Reading_Temperature_Sensor_Task *****************
  2431 ;; Defined at:
  2432 ;;		line 608 in file "heater.c"
  2433 ;; Parameters:    Size  Location     Type
  2434 ;;		None
  2435 ;; Auto vars:     Size  Location     Type
  2436 ;;  g_u8Current_    1   17[BANK0 ] unsigned char 
  2437 ;; Return value:  Size  Location     Type
  2438 ;;                  1    wreg      void 
  2439 ;; Registers used:
  2440 ;;		wreg, fsr0l, fsr0h, status,2, status,0, pclath, cstack
  2441 ;; Tracked objects:
  2442 ;;		On entry : 0/0
  2443 ;;		On exit  : 0/0
  2444 ;;		Unchanged: 0/0
  2445 ;; Data sizes:     COMMON   BANK0   BANK1   BANK3   BANK2
  2446 ;;      Params:         0       0       0       0       0
  2447 ;;      Locals:         0       3       0       0       0
  2448 ;;      Temps:          0       4       0       0       0
  2449 ;;      Totals:         0       7       0       0       0
  2450 ;;Total ram usage:        7 bytes
  2451 ;; Hardware stack levels used:    1
  2452 ;; Hardware stack levels required when called:    4
  2453 ;; This function calls:
  2454 ;;		_ADC_Read_value
  2455 ;;		_ADC_Start_conversion
  2456 ;;		___lwdiv
  2457 ;; This function is called by:
  2458 ;;		_initialization_Tasks
  2459 ;;		_Scheduler_Dispatcher
  2460 ;; This function uses a non-reentrant model
  2461 ;;
  2462                           
  2463                           
  2464                           ;psect for function _Heater_Reading_Temperature_Sensor_Task
  2465  05FB                     _Heater_Reading_Temperature_Sensor_Task:	
  2466  05FB                     l4066:	
  2467                           ;incstack = 0
  2468                           ; Regs used in _Heater_Reading_Temperature_Sensor_Task: [wreg-fsr0h+status,2+status,0+pc
      +                          lath+cstack]
  2469                           
  2470                           
  2471                           ;heater.c: 611:     uint8 g_u8Current_reading_temperature;;heater.c: 612:     switch(g_H
      +                          eater_state_t)
  2472  05FB  2E9C               	goto	l4102
  2473  05FC                     l4068:	
  2474                           
  2475                           ;heater.c: 619:             ADC_Start_conversion();
  2476  05FC  160A  118A  2441  120A  118A  	fcall	_ADC_Start_conversion
  2477                           
  2478                           ;heater.c: 621:             g_u8Current_reading_temperature = ADC_Read_value() / 2;
  2479  0601  160A  118A  2763  120A  118A  	fcall	_ADC_Read_value
  2480  0606  1283               	bcf	3,5	;RP0=0, select bank0
  2481  0607  1303               	bcf	3,6	;RP1=0, select bank0
  2482  0608  083F               	movf	?_ADC_Read_value,w
  2483  0609  00CA               	movwf	??_Heater_Reading_Temperature_Sensor_Task
  2484  060A  0840               	movf	?_ADC_Read_value+1,w
  2485  060B  00CB               	movwf	??_Heater_Reading_Temperature_Sensor_Task+1
  2486  060C  1003               	clrc
  2487  060D  0CCB               	rrf	??_Heater_Reading_Temperature_Sensor_Task+1,f
  2488  060E  0CCA               	rrf	??_Heater_Reading_Temperature_Sensor_Task,f
  2489  060F  084A               	movf	??_Heater_Reading_Temperature_Sensor_Task,w
  2490  0610  00CC               	movwf	??_Heater_Reading_Temperature_Sensor_Task+2
  2491  0611  084C               	movf	??_Heater_Reading_Temperature_Sensor_Task+2,w
  2492  0612  00D0               	movwf	Heater_Reading_Temperature_Sensor_Task@g_u8Current_reading_temperature
  2493  0613                     l4070:	
  2494                           
  2495                           ;heater.c: 623:             g_u8Current_reading_temperature = g_u8Current_reading_temper
      +                          ature > 40 ?
  2496  0613  3029               	movlw	41
  2497  0614  0250               	subwf	Heater_Reading_Temperature_Sensor_Task@g_u8Current_reading_temperature,w
  2498  0615  1803               	skipnc
  2499  0616  2E18               	goto	u4971
  2500  0617  2E19               	goto	u4970
  2501  0618                     u4971:	
  2502  0618  2E21               	goto	l4074
  2503  0619                     u4970:	
  2504  0619                     l4072:	
  2505  0619  0850               	movf	Heater_Reading_Temperature_Sensor_Task@g_u8Current_reading_temperature,w
  2506  061A  00CA               	movwf	??_Heater_Reading_Temperature_Sensor_Task
  2507  061B  01CB               	clrf	??_Heater_Reading_Temperature_Sensor_Task+1
  2508  061C  084A               	movf	??_Heater_Reading_Temperature_Sensor_Task,w
  2509  061D  00CE               	movwf	_Heater_Reading_Temperature_Sensor_Task$310
  2510  061E  084B               	movf	??_Heater_Reading_Temperature_Sensor_Task+1,w
  2511  061F  00CF               	movwf	_Heater_Reading_Temperature_Sensor_Task$310+1
  2512  0620  2E28               	goto	l499
  2513  0621                     l4074:	
  2514  0621  0850               	movf	Heater_Reading_Temperature_Sensor_Task@g_u8Current_reading_temperature,w
  2515  0622  3EFF               	addlw	255
  2516  0623  00CE               	movwf	_Heater_Reading_Temperature_Sensor_Task$310
  2517  0624  30FF               	movlw	255
  2518  0625  1803               	skipnc
  2519  0626  3000               	movlw	0
  2520  0627  00CF               	movwf	_Heater_Reading_Temperature_Sensor_Task$310+1
  2521  0628                     l499:	
  2522  0628  084E               	movf	_Heater_Reading_Temperature_Sensor_Task$310,w
  2523  0629  00CA               	movwf	??_Heater_Reading_Temperature_Sensor_Task
  2524  062A  084A               	movf	??_Heater_Reading_Temperature_Sensor_Task,w
  2525  062B  00D0               	movwf	Heater_Reading_Temperature_Sensor_Task@g_u8Current_reading_temperature
  2526                           
  2527                           ;heater.c: 626:             if(g_u8Reading_counter < 10)
  2528  062C  300A               	movlw	10
  2529  062D  0238               	subwf	_g_u8Reading_counter,w
  2530  062E  1803               	skipnc
  2531  062F  2E31               	goto	u4981
  2532  0630  2E32               	goto	u4980
  2533  0631                     u4981:	
  2534  0631  2E4C               	goto	l4084
  2535  0632                     u4980:	
  2536  0632                     l4076:	
  2537                           
  2538                           ;heater.c: 627:             {;heater.c: 629:                 g_u16Sum_of_ten_readings +=
      +                           g_u8Current_reading_temperature;
  2539  0632  0850               	movf	Heater_Reading_Temperature_Sensor_Task@g_u8Current_reading_temperature,w
  2540  0633  00CA               	movwf	??_Heater_Reading_Temperature_Sensor_Task
  2541  0634  01CB               	clrf	??_Heater_Reading_Temperature_Sensor_Task+1
  2542  0635  084A               	movf	??_Heater_Reading_Temperature_Sensor_Task,w
  2543  0636  07B0               	addwf	_g_u16Sum_of_ten_readings,f
  2544  0637  1803               	skipnc
  2545  0638  0AB1               	incf	_g_u16Sum_of_ten_readings+1,f
  2546  0639  084B               	movf	??_Heater_Reading_Temperature_Sensor_Task+1,w
  2547  063A  07B1               	addwf	_g_u16Sum_of_ten_readings+1,f
  2548  063B                     l4078:	
  2549                           
  2550                           ;heater.c: 631:                 g_u8Reading_arr[g_u8Reading_counter] = g_u8Current_readi
      +                          ng_temperature;
  2551  063B  0850               	movf	Heater_Reading_Temperature_Sensor_Task@g_u8Current_reading_temperature,w
  2552  063C  00CA               	movwf	??_Heater_Reading_Temperature_Sensor_Task
  2553  063D  0838               	movf	_g_u8Reading_counter,w
  2554  063E  3E20               	addlw	(low (_g_u8Reading_arr| 0))& (0+255)
  2555  063F  0084               	movwf	4
  2556  0640  084A               	movf	??_Heater_Reading_Temperature_Sensor_Task,w
  2557  0641  1383               	bcf	3,7	;select IRP bank0
  2558  0642  0080               	movwf	0
  2559  0643                     l4080:	
  2560                           
  2561                           ;heater.c: 633:                 g_u8Reading_counter++;
  2562  0643  3001               	movlw	1
  2563  0644  00CA               	movwf	??_Heater_Reading_Temperature_Sensor_Task
  2564  0645  084A               	movf	??_Heater_Reading_Temperature_Sensor_Task,w
  2565  0646  07B8               	addwf	_g_u8Reading_counter,f
  2566  0647                     l4082:	
  2567                           
  2568                           ;heater.c: 635:                 g_u8Heater_real_time_temperature = g_u8Heater_desired_te
      +                          mperature;
  2569  0647  086C               	movf	_g_u8Heater_desired_temperature,w
  2570  0648  00CA               	movwf	??_Heater_Reading_Temperature_Sensor_Task
  2571  0649  084A               	movf	??_Heater_Reading_Temperature_Sensor_Task,w
  2572  064A  00EB               	movwf	_g_u8Heater_real_time_temperature
  2573                           
  2574                           ;heater.c: 636:             }
  2575  064B  2EB1               	goto	l508
  2576  064C                     l4084:	
  2577                           
  2578                           ;heater.c: 639:             {;heater.c: 641:                 g_u16Sum_of_ten_readings = 
      +                          g_u16Sum_of_ten_readings + g_u8Current_reading_temperature -
  2579  064C  0837               	movf	_g_u8Reading_deleted_element,w
  2580  064D  3E20               	addlw	(low (_g_u8Reading_arr| 0))& (0+255)
  2581  064E  0084               	movwf	4
  2582  064F  0850               	movf	Heater_Reading_Temperature_Sensor_Task@g_u8Current_reading_temperature,w
  2583  0650  00CA               	movwf	??_Heater_Reading_Temperature_Sensor_Task
  2584  0651  01CB               	clrf	??_Heater_Reading_Temperature_Sensor_Task+1
  2585  0652  084B               	movf	??_Heater_Reading_Temperature_Sensor_Task+1,w
  2586  0653  00CD               	movwf	??_Heater_Reading_Temperature_Sensor_Task+3
  2587  0654  1383               	bcf	3,7	;select IRP bank0
  2588  0655  0800               	movf	0,w
  2589  0656  024A               	subwf	??_Heater_Reading_Temperature_Sensor_Task,w
  2590  0657  00CC               	movwf	??_Heater_Reading_Temperature_Sensor_Task+2
  2591  0658  1C03               	skipc
  2592  0659  03CD               	decf	??_Heater_Reading_Temperature_Sensor_Task+3,f
  2593  065A  0830               	movf	_g_u16Sum_of_ten_readings,w
  2594  065B  074C               	addwf	??_Heater_Reading_Temperature_Sensor_Task+2,w
  2595  065C  00B0               	movwf	_g_u16Sum_of_ten_readings
  2596  065D  0831               	movf	_g_u16Sum_of_ten_readings+1,w
  2597  065E  1803               	skipnc
  2598  065F  0A31               	incf	_g_u16Sum_of_ten_readings+1,w
  2599  0660  074D               	addwf	??_Heater_Reading_Temperature_Sensor_Task+3,w
  2600  0661  00B1               	movwf	_g_u16Sum_of_ten_readings+1
  2601                           
  2602                           ;heater.c: 644:                 g_u8Reading_arr[g_u8Reading_deleted_element] = g_u8Curre
      +                          nt_reading_temperature;
  2603  0662  0850               	movf	Heater_Reading_Temperature_Sensor_Task@g_u8Current_reading_temperature,w
  2604  0663  00CA               	movwf	??_Heater_Reading_Temperature_Sensor_Task
  2605  0664  0837               	movf	_g_u8Reading_deleted_element,w
  2606  0665  3E20               	addlw	(low (_g_u8Reading_arr| 0))& (0+255)
  2607  0666  0084               	movwf	4
  2608  0667  084A               	movf	??_Heater_Reading_Temperature_Sensor_Task,w
  2609  0668  0080               	movwf	0
  2610  0669                     l4086:	
  2611                           
  2612                           ;heater.c: 646:                 if(g_u8Reading_deleted_element == 9)
  2613  0669  3009               	movlw	9
  2614  066A  0637               	xorwf	_g_u8Reading_deleted_element,w
  2615  066B  1D03               	btfss	3,2
  2616  066C  2E6E               	goto	u4991
  2617  066D  2E6F               	goto	u4990
  2618  066E                     u4991:	
  2619  066E  2E71               	goto	l4090
  2620  066F                     u4990:	
  2621  066F                     l4088:	
  2622                           
  2623                           ;heater.c: 647:                 {;heater.c: 648:                     g_u8Reading_deleted
      +                          _element = 0;
  2624  066F  01B7               	clrf	_g_u8Reading_deleted_element
  2625                           
  2626                           ;heater.c: 649:                 }
  2627  0670  2E75               	goto	l4092
  2628  0671                     l4090:	
  2629                           
  2630                           ;heater.c: 651:                 {;heater.c: 653:                     g_u8Reading_deleted
      +                          _element++;
  2631  0671  3001               	movlw	1
  2632  0672  00CA               	movwf	??_Heater_Reading_Temperature_Sensor_Task
  2633  0673  084A               	movf	??_Heater_Reading_Temperature_Sensor_Task,w
  2634  0674  07B7               	addwf	_g_u8Reading_deleted_element,f
  2635  0675                     l4092:	
  2636                           
  2637                           ;heater.c: 656:                 g_u8Heater_real_time_temperature = g_u16Sum_of_ten_readi
      +                          ngs / 10;
  2638  0675  300A               	movlw	10
  2639  0676  00BF               	movwf	___lwdiv@divisor
  2640  0677  3000               	movlw	0
  2641  0678  00C0               	movwf	___lwdiv@divisor+1
  2642  0679  0831               	movf	_g_u16Sum_of_ten_readings+1,w
  2643  067A  00C2               	movwf	___lwdiv@dividend+1
  2644  067B  0830               	movf	_g_u16Sum_of_ten_readings,w
  2645  067C  00C1               	movwf	___lwdiv@dividend
  2646  067D  160A  118A  26D5  120A  118A  	fcall	___lwdiv
  2647  0682  1283               	bcf	3,5	;RP0=0, select bank0
  2648  0683  1303               	bcf	3,6	;RP1=0, select bank0
  2649  0684  083F               	movf	?___lwdiv,w
  2650  0685  00CA               	movwf	??_Heater_Reading_Temperature_Sensor_Task
  2651  0686  084A               	movf	??_Heater_Reading_Temperature_Sensor_Task,w
  2652  0687  00EB               	movwf	_g_u8Heater_real_time_temperature
  2653  0688  2EB1               	goto	l508
  2654  0689                     l4094:	
  2655                           
  2656                           ;heater.c: 661:             g_u8Display_blank_counter++;
  2657  0689  3001               	movlw	1
  2658  068A  00CA               	movwf	??_Heater_Reading_Temperature_Sensor_Task
  2659  068B  084A               	movf	??_Heater_Reading_Temperature_Sensor_Task,w
  2660  068C  07B6               	addwf	_g_u8Display_blank_counter,f
  2661                           
  2662                           ;heater.c: 664:             g_u8End_setup_state++;
  2663  068D  3001               	movlw	1
  2664  068E  00CA               	movwf	??_Heater_Reading_Temperature_Sensor_Task
  2665  068F  084A               	movf	??_Heater_Reading_Temperature_Sensor_Task,w
  2666  0690  07B5               	addwf	_g_u8End_setup_state,f
  2667                           
  2668                           ;heater.c: 667:             if(g_u8End_setup_state == 50)
  2669  0691  3032               	movlw	50
  2670  0692  0635               	xorwf	_g_u8End_setup_state,w
  2671  0693  1D03               	btfss	3,2
  2672  0694  2E96               	goto	u5001
  2673  0695  2E97               	goto	u5000
  2674  0696                     u5001:	
  2675  0696  2EB1               	goto	l508
  2676  0697                     u5000:	
  2677  0697                     l4096:	
  2678                           
  2679                           ;heater.c: 668:             {;heater.c: 670:                 g_u8Display_blank_counter =
      +                           0;
  2680  0697  01B6               	clrf	_g_u8Display_blank_counter
  2681                           
  2682                           ;heater.c: 672:                 g_u8End_setup_state = 0;
  2683  0698  01B5               	clrf	_g_u8End_setup_state
  2684  0699                     l4098:	
  2685                           
  2686                           ;heater.c: 674:                 g_Heater_state_t = HEATER_ON_STATE;
  2687  0699  01BB               	clrf	_g_Heater_state_t
  2688  069A  0ABB               	incf	_g_Heater_state_t,f
  2689                           
  2690                           ;heater.c: 675:             }
  2691  069B  2EB1               	goto	l508
  2692  069C                     l4102:	
  2693  069C  1283               	bcf	3,5	;RP0=0, select bank0
  2694  069D  1303               	bcf	3,6	;RP1=0, select bank0
  2695  069E  083B               	movf	_g_Heater_state_t,w
  2696  069F  00CA               	movwf	??_Heater_Reading_Temperature_Sensor_Task
  2697  06A0  01CB               	clrf	??_Heater_Reading_Temperature_Sensor_Task+1
  2698                           
  2699                           ; Switch on 2 bytes has been partitioned into a top level switch of size 1, and 1 sub-sw
      +                          itches
  2700                           ; Switch size 1, requested type "simple"
  2701                           ; Number of cases is 1, Range of values is 0 to 0
  2702                           ; switch strategies available:
  2703                           ; Name         Instructions Cycles
  2704                           ; simple_byte            4     3 (average)
  2705                           ; direct_byte           11     8 (fixed)
  2706                           ; jumptable            260     6 (fixed)
  2707                           ;	Chosen strategy is simple_byte
  2708  06A1  084B               	movf	??_Heater_Reading_Temperature_Sensor_Task+1,w
  2709  06A2  3A00               	xorlw	0	; case 0
  2710  06A3  1903               	skipnz
  2711  06A4  2EA6               	goto	l4732
  2712  06A5  2EB1               	goto	l508
  2713  06A6                     l4732:	
  2714                           
  2715                           ; Switch size 1, requested type "simple"
  2716                           ; Number of cases is 3, Range of values is 0 to 2
  2717                           ; switch strategies available:
  2718                           ; Name         Instructions Cycles
  2719                           ; simple_byte           10     6 (average)
  2720                           ; direct_byte           17     8 (fixed)
  2721                           ; jumptable            260     6 (fixed)
  2722                           ;	Chosen strategy is simple_byte
  2723  06A6  084A               	movf	??_Heater_Reading_Temperature_Sensor_Task,w
  2724  06A7  3A00               	xorlw	0	; case 0
  2725  06A8  1903               	skipnz
  2726  06A9  2EB1               	goto	l508
  2727  06AA  3A01               	xorlw	1	; case 1
  2728  06AB  1903               	skipnz
  2729  06AC  2DFC               	goto	l4068
  2730  06AD  3A03               	xorlw	3	; case 2
  2731  06AE  1903               	skipnz
  2732  06AF  2E89               	goto	l4094
  2733  06B0  2EB1               	goto	l508
  2734  06B1                     l508:	
  2735  06B1  0008               	return
  2736  06B2                     __end_of_Heater_Reading_Temperature_Sensor_Task:	
  2737                           
  2738                           	psect	text11
  2739  0D0C                     __ptext11:	
  2740 ;; *************** function _Heater_Heating_Cooling_Task *****************
  2741 ;; Defined at:
  2742 ;;		line 551 in file "heater.c"
  2743 ;; Parameters:    Size  Location     Type
  2744 ;;		None
  2745 ;; Auto vars:     Size  Location     Type
  2746 ;;		None
  2747 ;; Return value:  Size  Location     Type
  2748 ;;                  1    wreg      void 
  2749 ;; Registers used:
  2750 ;;		wreg, fsr0l, fsr0h, status,2, status,0, pclath, cstack
  2751 ;; Tracked objects:
  2752 ;;		On entry : 0/0
  2753 ;;		On exit  : 0/0
  2754 ;;		Unchanged: 0/0
  2755 ;; Data sizes:     COMMON   BANK0   BANK1   BANK3   BANK2
  2756 ;;      Params:         0       0       0       0       0
  2757 ;;      Locals:         0       0       0       0       0
  2758 ;;      Temps:          0       2       0       0       0
  2759 ;;      Totals:         0       2       0       0       0
  2760 ;;Total ram usage:        2 bytes
  2761 ;; Hardware stack levels used:    1
  2762 ;; Hardware stack levels required when called:    4
  2763 ;; This function calls:
  2764 ;;		_GPIO_WriteOnPin
  2765 ;; This function is called by:
  2766 ;;		_initialization_Tasks
  2767 ;;		_Scheduler_Dispatcher
  2768 ;; This function uses a non-reentrant model
  2769 ;;
  2770                           
  2771                           
  2772                           ;psect for function _Heater_Heating_Cooling_Task
  2773  0D0C                     _Heater_Heating_Cooling_Task:	
  2774  0D0C                     l4044:	
  2775                           ;incstack = 0
  2776                           ; Regs used in _Heater_Heating_Cooling_Task: [wreg-fsr0h+status,2+status,0+pclath+cstack
      +                          ]
  2777                           
  2778                           
  2779                           ;heater.c: 553:     switch(g_Heater_state_t)
  2780  0D0C  2D7F               	goto	l4060
  2781  0D0D                     l4046:	
  2782                           
  2783                           ;heater.c: 560:             if(g_u8Heater_desired_temperature < g_u8Heater_real_time_tem
      +                          perature)
  2784  0D0D  086B               	movf	_g_u8Heater_real_time_temperature,w
  2785  0D0E  026C               	subwf	_g_u8Heater_desired_temperature,w
  2786  0D0F  1803               	skipnc
  2787  0D10  2D12               	goto	u4951
  2788  0D11  2D13               	goto	u4950
  2789  0D12                     u4951:	
  2790  0D12  2D2D               	goto	l4050
  2791  0D13                     u4950:	
  2792  0D13                     l4048:	
  2793                           
  2794                           ;heater.c: 561:             {;heater.c: 563:                 GPIO_WriteOnPin(2u , 2u , 1
      +                          u);
  2795  0D13  3002               	movlw	2
  2796  0D14  00C5               	movwf	??_Heater_Heating_Cooling_Task
  2797  0D15  0845               	movf	??_Heater_Heating_Cooling_Task,w
  2798  0D16  00BF               	movwf	GPIO_WriteOnPin@a_u8pin
  2799  0D17  01C0               	clrf	GPIO_WriteOnPin@a_u8value
  2800  0D18  0AC0               	incf	GPIO_WriteOnPin@a_u8value,f
  2801  0D19  3002               	movlw	2
  2802  0D1A  120A  118A  2277  120A  158A  	fcall	_GPIO_WriteOnPin
  2803                           
  2804                           ;heater.c: 565:                 GPIO_WriteOnPin(2u , 5u , 0u);
  2805  0D1F  3005               	movlw	5
  2806  0D20  1283               	bcf	3,5	;RP0=0, select bank0
  2807  0D21  1303               	bcf	3,6	;RP1=0, select bank0
  2808  0D22  00C5               	movwf	??_Heater_Heating_Cooling_Task
  2809  0D23  0845               	movf	??_Heater_Heating_Cooling_Task,w
  2810  0D24  00BF               	movwf	GPIO_WriteOnPin@a_u8pin
  2811  0D25  01C0               	clrf	GPIO_WriteOnPin@a_u8value
  2812  0D26  3002               	movlw	2
  2813  0D27  120A  118A  2277  120A  158A  	fcall	_GPIO_WriteOnPin
  2814                           
  2815                           ;heater.c: 566:             }
  2816  0D2C  2D94               	goto	l489
  2817  0D2D                     l4050:	
  2818  0D2D  086C               	movf	_g_u8Heater_desired_temperature,w
  2819  0D2E  026B               	subwf	_g_u8Heater_real_time_temperature,w
  2820  0D2F  1803               	skipnc
  2821  0D30  2D32               	goto	u4961
  2822  0D31  2D33               	goto	u4960
  2823  0D32                     u4961:	
  2824  0D32  2D4D               	goto	l4054
  2825  0D33                     u4960:	
  2826  0D33                     l4052:	
  2827                           
  2828                           ;heater.c: 569:             {;heater.c: 571:                 GPIO_WriteOnPin(2u , 2u , 0
      +                          u);
  2829  0D33  3002               	movlw	2
  2830  0D34  00C5               	movwf	??_Heater_Heating_Cooling_Task
  2831  0D35  0845               	movf	??_Heater_Heating_Cooling_Task,w
  2832  0D36  00BF               	movwf	GPIO_WriteOnPin@a_u8pin
  2833  0D37  01C0               	clrf	GPIO_WriteOnPin@a_u8value
  2834  0D38  3002               	movlw	2
  2835  0D39  120A  118A  2277  120A  158A  	fcall	_GPIO_WriteOnPin
  2836                           
  2837                           ;heater.c: 573:                 GPIO_WriteOnPin(2u , 5u , 1u);
  2838  0D3E  3005               	movlw	5
  2839  0D3F  1283               	bcf	3,5	;RP0=0, select bank0
  2840  0D40  1303               	bcf	3,6	;RP1=0, select bank0
  2841  0D41  00C5               	movwf	??_Heater_Heating_Cooling_Task
  2842  0D42  0845               	movf	??_Heater_Heating_Cooling_Task,w
  2843  0D43  00BF               	movwf	GPIO_WriteOnPin@a_u8pin
  2844  0D44  01C0               	clrf	GPIO_WriteOnPin@a_u8value
  2845  0D45  0AC0               	incf	GPIO_WriteOnPin@a_u8value,f
  2846  0D46  3002               	movlw	2
  2847  0D47  120A  118A  2277  120A  158A  	fcall	_GPIO_WriteOnPin
  2848                           
  2849                           ;heater.c: 574:             }
  2850  0D4C  2D94               	goto	l489
  2851  0D4D                     l4054:	
  2852                           
  2853                           ;heater.c: 577:             {;heater.c: 579:                 GPIO_WriteOnPin(2u , 2u , 0
      +                          u);
  2854  0D4D  3002               	movlw	2
  2855  0D4E  00C5               	movwf	??_Heater_Heating_Cooling_Task
  2856  0D4F  0845               	movf	??_Heater_Heating_Cooling_Task,w
  2857  0D50  00BF               	movwf	GPIO_WriteOnPin@a_u8pin
  2858  0D51  01C0               	clrf	GPIO_WriteOnPin@a_u8value
  2859  0D52  3002               	movlw	2
  2860  0D53  120A  118A  2277  120A  158A  	fcall	_GPIO_WriteOnPin
  2861                           
  2862                           ;heater.c: 581:                 GPIO_WriteOnPin(2u , 5u , 0u);
  2863  0D58  3005               	movlw	5
  2864  0D59  1283               	bcf	3,5	;RP0=0, select bank0
  2865  0D5A  1303               	bcf	3,6	;RP1=0, select bank0
  2866  0D5B  00C5               	movwf	??_Heater_Heating_Cooling_Task
  2867  0D5C  0845               	movf	??_Heater_Heating_Cooling_Task,w
  2868  0D5D  00BF               	movwf	GPIO_WriteOnPin@a_u8pin
  2869  0D5E  01C0               	clrf	GPIO_WriteOnPin@a_u8value
  2870  0D5F  3002               	movlw	2
  2871  0D60  120A  118A  2277  120A  158A  	fcall	_GPIO_WriteOnPin
  2872  0D65  2D94               	goto	l489
  2873  0D66                     l4056:	
  2874                           
  2875                           ;heater.c: 586:             GPIO_WriteOnPin(2u , 2u , 0u);
  2876  0D66  3002               	movlw	2
  2877  0D67  00C5               	movwf	??_Heater_Heating_Cooling_Task
  2878  0D68  0845               	movf	??_Heater_Heating_Cooling_Task,w
  2879  0D69  00BF               	movwf	GPIO_WriteOnPin@a_u8pin
  2880  0D6A  01C0               	clrf	GPIO_WriteOnPin@a_u8value
  2881  0D6B  3002               	movlw	2
  2882  0D6C  120A  118A  2277  120A  158A  	fcall	_GPIO_WriteOnPin
  2883                           
  2884                           ;heater.c: 588:             GPIO_WriteOnPin(2u , 5u , 0u);
  2885  0D71  3005               	movlw	5
  2886  0D72  1283               	bcf	3,5	;RP0=0, select bank0
  2887  0D73  1303               	bcf	3,6	;RP1=0, select bank0
  2888  0D74  00C5               	movwf	??_Heater_Heating_Cooling_Task
  2889  0D75  0845               	movf	??_Heater_Heating_Cooling_Task,w
  2890  0D76  00BF               	movwf	GPIO_WriteOnPin@a_u8pin
  2891  0D77  01C0               	clrf	GPIO_WriteOnPin@a_u8value
  2892  0D78  3002               	movlw	2
  2893  0D79  120A  118A  2277  120A  158A  	fcall	_GPIO_WriteOnPin
  2894                           
  2895                           ;heater.c: 589:             break;
  2896  0D7E  2D94               	goto	l489
  2897  0D7F                     l4060:	
  2898  0D7F  1283               	bcf	3,5	;RP0=0, select bank0
  2899  0D80  1303               	bcf	3,6	;RP1=0, select bank0
  2900  0D81  083B               	movf	_g_Heater_state_t,w
  2901  0D82  00C5               	movwf	??_Heater_Heating_Cooling_Task
  2902  0D83  01C6               	clrf	??_Heater_Heating_Cooling_Task+1
  2903                           
  2904                           ; Switch on 2 bytes has been partitioned into a top level switch of size 1, and 1 sub-sw
      +                          itches
  2905                           ; Switch size 1, requested type "simple"
  2906                           ; Number of cases is 1, Range of values is 0 to 0
  2907                           ; switch strategies available:
  2908                           ; Name         Instructions Cycles
  2909                           ; simple_byte            4     3 (average)
  2910                           ; direct_byte           11     8 (fixed)
  2911                           ; jumptable            260     6 (fixed)
  2912                           ;	Chosen strategy is simple_byte
  2913  0D84  0846               	movf	??_Heater_Heating_Cooling_Task+1,w
  2914  0D85  3A00               	xorlw	0	; case 0
  2915  0D86  1903               	skipnz
  2916  0D87  2D89               	goto	l4734
  2917  0D88  2D94               	goto	l489
  2918  0D89                     l4734:	
  2919                           
  2920                           ; Switch size 1, requested type "simple"
  2921                           ; Number of cases is 3, Range of values is 0 to 2
  2922                           ; switch strategies available:
  2923                           ; Name         Instructions Cycles
  2924                           ; simple_byte           10     6 (average)
  2925                           ; direct_byte           17     8 (fixed)
  2926                           ; jumptable            260     6 (fixed)
  2927                           ;	Chosen strategy is simple_byte
  2928  0D89  0845               	movf	??_Heater_Heating_Cooling_Task,w
  2929  0D8A  3A00               	xorlw	0	; case 0
  2930  0D8B  1903               	skipnz
  2931  0D8C  2D94               	goto	l489
  2932  0D8D  3A01               	xorlw	1	; case 1
  2933  0D8E  1903               	skipnz
  2934  0D8F  2D0D               	goto	l4046
  2935  0D90  3A03               	xorlw	3	; case 2
  2936  0D91  1903               	skipnz
  2937  0D92  2D66               	goto	l4056
  2938  0D93  2D94               	goto	l489
  2939  0D94                     l489:	
  2940  0D94  0008               	return
  2941  0D95                     __end_of_Heater_Heating_Cooling_Task:	
  2942                           
  2943                           	psect	text12
  2944  0B93                     __ptext12:	
  2945 ;; *************** function _Heater_LED_Task *****************
  2946 ;; Defined at:
  2947 ;;		line 480 in file "heater.c"
  2948 ;; Parameters:    Size  Location     Type
  2949 ;;		None
  2950 ;; Auto vars:     Size  Location     Type
  2951 ;;		None
  2952 ;; Return value:  Size  Location     Type
  2953 ;;                  1    wreg      void 
  2954 ;; Registers used:
  2955 ;;		wreg, fsr0l, fsr0h, status,2, status,0, pclath, cstack
  2956 ;; Tracked objects:
  2957 ;;		On entry : 0/0
  2958 ;;		On exit  : 0/0
  2959 ;;		Unchanged: 0/0
  2960 ;; Data sizes:     COMMON   BANK0   BANK1   BANK3   BANK2
  2961 ;;      Params:         0       0       0       0       0
  2962 ;;      Locals:         0       0       0       0       0
  2963 ;;      Temps:          0       2       0       0       0
  2964 ;;      Totals:         0       2       0       0       0
  2965 ;;Total ram usage:        2 bytes
  2966 ;; Hardware stack levels used:    1
  2967 ;; Hardware stack levels required when called:    4
  2968 ;; This function calls:
  2969 ;;		_GPIO_WriteOnPin
  2970 ;; This function is called by:
  2971 ;;		_initialization_Tasks
  2972 ;;		_Scheduler_Dispatcher
  2973 ;; This function uses a non-reentrant model
  2974 ;;
  2975                           
  2976                           
  2977                           ;psect for function _Heater_LED_Task
  2978  0B93                     _Heater_LED_Task:	
  2979  0B93                     l4008:	
  2980                           ;incstack = 0
  2981                           ; Regs used in _Heater_LED_Task: [wreg-fsr0h+status,2+status,0+pclath+cstack]
  2982                           
  2983                           
  2984                           ;heater.c: 482:     switch(g_Heater_state_t)
  2985  0B93  2BED               	goto	l4038
  2986  0B94                     l4010:	
  2987                           
  2988                           ;heater.c: 489:             if(g_u8Heater_desired_temperature < g_u8Heater_real_time_tem
      +                          perature)
  2989  0B94  086B               	movf	_g_u8Heater_real_time_temperature,w
  2990  0B95  026C               	subwf	_g_u8Heater_desired_temperature,w
  2991  0B96  1803               	skipnc
  2992  0B97  2B99               	goto	u4911
  2993  0B98  2B9A               	goto	u4910
  2994  0B99                     u4911:	
  2995  0B99  2BAD               	goto	l4016
  2996  0B9A                     u4910:	
  2997  0B9A                     l4012:	
  2998                           
  2999                           ;heater.c: 490:             {;heater.c: 492:                 GPIO_WriteOnPin(1u , 7u , 1
      +                          u);
  3000  0B9A  3007               	movlw	7
  3001  0B9B  00C5               	movwf	??_Heater_LED_Task
  3002  0B9C  0845               	movf	??_Heater_LED_Task,w
  3003  0B9D  00BF               	movwf	GPIO_WriteOnPin@a_u8pin
  3004  0B9E  01C0               	clrf	GPIO_WriteOnPin@a_u8value
  3005  0B9F  0AC0               	incf	GPIO_WriteOnPin@a_u8value,f
  3006  0BA0  3001               	movlw	1
  3007  0BA1  120A  118A  2277  120A  158A  	fcall	_GPIO_WriteOnPin
  3008  0BA6                     l4014:	
  3009                           
  3010                           ;heater.c: 494:                 g_u8Led_blank_counter = 20;
  3011  0BA6  3014               	movlw	20
  3012  0BA7  1283               	bcf	3,5	;RP0=0, select bank0
  3013  0BA8  1303               	bcf	3,6	;RP1=0, select bank0
  3014  0BA9  00C5               	movwf	??_Heater_LED_Task
  3015  0BAA  0845               	movf	??_Heater_LED_Task,w
  3016  0BAB  00B4               	movwf	_g_u8Led_blank_counter
  3017                           
  3018                           ;heater.c: 495:             }
  3019  0BAC  2C02               	goto	l476
  3020  0BAD                     l4016:	
  3021  0BAD  086C               	movf	_g_u8Heater_desired_temperature,w
  3022  0BAE  026B               	subwf	_g_u8Heater_real_time_temperature,w
  3023  0BAF  1803               	skipnc
  3024  0BB0  2BB2               	goto	u4921
  3025  0BB1  2BB3               	goto	u4920
  3026  0BB2                     u4921:	
  3027  0BB2  2C02               	goto	l476
  3028  0BB3                     u4920:	
  3029  0BB3                     l4018:	
  3030                           
  3031                           ;heater.c: 498:             {;heater.c: 500:                 if(g_u8Led_blank_counter ==
      +                           10)
  3032  0BB3  300A               	movlw	10
  3033  0BB4  0634               	xorwf	_g_u8Led_blank_counter,w
  3034  0BB5  1D03               	btfss	3,2
  3035  0BB6  2BB8               	goto	u4931
  3036  0BB7  2BB9               	goto	u4930
  3037  0BB8                     u4931:	
  3038  0BB8  2BCC               	goto	l4024
  3039  0BB9                     u4930:	
  3040  0BB9                     l4020:	
  3041                           
  3042                           ;heater.c: 501:                 {;heater.c: 503:                     GPIO_WriteOnPin(1u 
      +                          , 7u , 1u);
  3043  0BB9  3007               	movlw	7
  3044  0BBA  00C5               	movwf	??_Heater_LED_Task
  3045  0BBB  0845               	movf	??_Heater_LED_Task,w
  3046  0BBC  00BF               	movwf	GPIO_WriteOnPin@a_u8pin
  3047  0BBD  01C0               	clrf	GPIO_WriteOnPin@a_u8value
  3048  0BBE  0AC0               	incf	GPIO_WriteOnPin@a_u8value,f
  3049  0BBF  3001               	movlw	1
  3050  0BC0  120A  118A  2277  120A  158A  	fcall	_GPIO_WriteOnPin
  3051  0BC5                     l4022:	
  3052                           
  3053                           ;heater.c: 505:                     g_u8Led_blank_counter++;
  3054  0BC5  3001               	movlw	1
  3055  0BC6  1283               	bcf	3,5	;RP0=0, select bank0
  3056  0BC7  1303               	bcf	3,6	;RP1=0, select bank0
  3057  0BC8  00C5               	movwf	??_Heater_LED_Task
  3058  0BC9  0845               	movf	??_Heater_LED_Task,w
  3059  0BCA  07B4               	addwf	_g_u8Led_blank_counter,f
  3060                           
  3061                           ;heater.c: 507:                 }
  3062  0BCB  2C02               	goto	l476
  3063  0BCC                     l4024:	
  3064  0BCC  3014               	movlw	20
  3065  0BCD  0634               	xorwf	_g_u8Led_blank_counter,w
  3066  0BCE  1D03               	btfss	3,2
  3067  0BCF  2BD1               	goto	u4941
  3068  0BD0  2BD2               	goto	u4940
  3069  0BD1                     u4941:	
  3070  0BD1  2BC5               	goto	l4022
  3071  0BD2                     u4940:	
  3072  0BD2                     l4026:	
  3073                           
  3074                           ;heater.c: 509:                 {;heater.c: 511:                     GPIO_WriteOnPin(1u 
      +                          , 7u , 0u);
  3075  0BD2  3007               	movlw	7
  3076  0BD3  00C5               	movwf	??_Heater_LED_Task
  3077  0BD4  0845               	movf	??_Heater_LED_Task,w
  3078  0BD5  00BF               	movwf	GPIO_WriteOnPin@a_u8pin
  3079  0BD6  01C0               	clrf	GPIO_WriteOnPin@a_u8value
  3080  0BD7  3001               	movlw	1
  3081  0BD8  120A  118A  2277  120A  158A  	fcall	_GPIO_WriteOnPin
  3082  0BDD                     l4028:	
  3083                           
  3084                           ;heater.c: 513:                     g_u8Led_blank_counter = 0;
  3085  0BDD  1283               	bcf	3,5	;RP0=0, select bank0
  3086  0BDE  1303               	bcf	3,6	;RP1=0, select bank0
  3087  0BDF  01B4               	clrf	_g_u8Led_blank_counter
  3088                           
  3089                           ;heater.c: 514:                 }
  3090  0BE0  2C02               	goto	l476
  3091  0BE1                     l4032:	
  3092                           
  3093                           ;heater.c: 529:             GPIO_WriteOnPin(1u , 7u , 0u);
  3094  0BE1  3007               	movlw	7
  3095  0BE2  00C5               	movwf	??_Heater_LED_Task
  3096  0BE3  0845               	movf	??_Heater_LED_Task,w
  3097  0BE4  00BF               	movwf	GPIO_WriteOnPin@a_u8pin
  3098  0BE5  01C0               	clrf	GPIO_WriteOnPin@a_u8value
  3099  0BE6  3001               	movlw	1
  3100  0BE7  120A  118A  2277  120A  158A  	fcall	_GPIO_WriteOnPin
  3101  0BEC  2BDD               	goto	l4028
  3102  0BED                     l4038:	
  3103  0BED  1283               	bcf	3,5	;RP0=0, select bank0
  3104  0BEE  1303               	bcf	3,6	;RP1=0, select bank0
  3105  0BEF  083B               	movf	_g_Heater_state_t,w
  3106  0BF0  00C5               	movwf	??_Heater_LED_Task
  3107  0BF1  01C6               	clrf	??_Heater_LED_Task+1
  3108                           
  3109                           ; Switch on 2 bytes has been partitioned into a top level switch of size 1, and 1 sub-sw
      +                          itches
  3110                           ; Switch size 1, requested type "simple"
  3111                           ; Number of cases is 1, Range of values is 0 to 0
  3112                           ; switch strategies available:
  3113                           ; Name         Instructions Cycles
  3114                           ; simple_byte            4     3 (average)
  3115                           ; direct_byte           11     8 (fixed)
  3116                           ; jumptable            260     6 (fixed)
  3117                           ;	Chosen strategy is simple_byte
  3118  0BF2  0846               	movf	??_Heater_LED_Task+1,w
  3119  0BF3  3A00               	xorlw	0	; case 0
  3120  0BF4  1903               	skipnz
  3121  0BF5  2BF7               	goto	l4736
  3122  0BF6  2C02               	goto	l476
  3123  0BF7                     l4736:	
  3124                           
  3125                           ; Switch size 1, requested type "simple"
  3126                           ; Number of cases is 3, Range of values is 0 to 2
  3127                           ; switch strategies available:
  3128                           ; Name         Instructions Cycles
  3129                           ; simple_byte           10     6 (average)
  3130                           ; direct_byte           17     8 (fixed)
  3131                           ; jumptable            260     6 (fixed)
  3132                           ;	Chosen strategy is simple_byte
  3133  0BF7  0845               	movf	??_Heater_LED_Task,w
  3134  0BF8  3A00               	xorlw	0	; case 0
  3135  0BF9  1903               	skipnz
  3136  0BFA  2C02               	goto	l476
  3137  0BFB  3A01               	xorlw	1	; case 1
  3138  0BFC  1903               	skipnz
  3139  0BFD  2B94               	goto	l4010
  3140  0BFE  3A03               	xorlw	3	; case 2
  3141  0BFF  1903               	skipnz
  3142  0C00  2BE1               	goto	l4032
  3143  0C01  2C02               	goto	l476
  3144  0C02                     l476:	
  3145  0C02  0008               	return
  3146  0C03                     __end_of_Heater_LED_Task:	
  3147                           
  3148                           	psect	text13
  3149  0E20                     __ptext13:	
  3150 ;; *************** function _Heater_Up_Down_Buttons_Task *****************
  3151 ;; Defined at:
  3152 ;;		line 393 in file "heater.c"
  3153 ;; Parameters:    Size  Location     Type
  3154 ;;		None
  3155 ;; Auto vars:     Size  Location     Type
  3156 ;;		None
  3157 ;; Return value:  Size  Location     Type
  3158 ;;                  1    wreg      void 
  3159 ;; Registers used:
  3160 ;;		wreg, fsr0l, fsr0h, status,2, status,0, pclath, cstack
  3161 ;; Tracked objects:
  3162 ;;		On entry : 0/0
  3163 ;;		On exit  : 0/0
  3164 ;;		Unchanged: 0/0
  3165 ;; Data sizes:     COMMON   BANK0   BANK1   BANK3   BANK2
  3166 ;;      Params:         0       0       0       0       0
  3167 ;;      Locals:         0       0       0       0       0
  3168 ;;      Temps:          0       2       0       0       0
  3169 ;;      Totals:         0       2       0       0       0
  3170 ;;Total ram usage:        2 bytes
  3171 ;; Hardware stack levels used:    1
  3172 ;; Hardware stack levels required when called:    5
  3173 ;; This function calls:
  3174 ;;		_Check_ON_Push_Button
  3175 ;;		_EEPROM_Save_Byte
  3176 ;; This function is called by:
  3177 ;;		_initialization_Tasks
  3178 ;;		_Scheduler_Dispatcher
  3179 ;; This function uses a non-reentrant model
  3180 ;;
  3181                           
  3182                           
  3183                           ;psect for function _Heater_Up_Down_Buttons_Task
  3184  0E20                     _Heater_Up_Down_Buttons_Task:	
  3185  0E20                     l3972:	
  3186                           ;incstack = 0
  3187                           ; Regs used in _Heater_Up_Down_Buttons_Task: [wreg-fsr0h+status,2+status,0+pclath+cstack
      +                          ]
  3188                           
  3189                           
  3190                           ;heater.c: 396:     static EnumButton_State_t Up_Button;;heater.c: 397:     static EnumB
      +                          utton_State_t Down_Button;;heater.c: 398:     switch(g_Heater_state_t)
  3191  0E20  2E9D               	goto	l4002
  3192  0E21                     l3974:	
  3193                           
  3194                           ;heater.c: 405:             if(Check_ON_Push_Button(1u , 1u , &Down_Button) == PUSH_BUTT
      +                          ON_IS_PRESSED ||
  3195  0E21  01C4               	clrf	Check_ON_Push_Button@a_u8Pin
  3196  0E22  0AC4               	incf	Check_ON_Push_Button@a_u8Pin,f
  3197  0E23  303C               	movlw	(low (Heater_Up_Down_Buttons_Task@Down_Button| 0))& (0+255)
  3198  0E24  00C9               	movwf	??_Heater_Up_Down_Buttons_Task
  3199  0E25  0849               	movf	??_Heater_Up_Down_Buttons_Task,w
  3200  0E26  00C5               	movwf	Check_ON_Push_Button@retVal_t
  3201  0E27  3001               	movlw	1
  3202  0E28  160A  118A  27B1  120A  158A  	fcall	_Check_ON_Push_Button
  3203  0E2D  3A00               	xorlw	0
  3204  0E2E  1903               	skipnz
  3205  0E2F  2E31               	goto	u4851
  3206  0E30  2E32               	goto	u4850
  3207  0E31                     u4851:	
  3208  0E31  2E47               	goto	l3978
  3209  0E32                     u4850:	
  3210  0E32                     l3976:	
  3211  0E32  3002               	movlw	2
  3212  0E33  1283               	bcf	3,5	;RP0=0, select bank0
  3213  0E34  1303               	bcf	3,6	;RP1=0, select bank0
  3214  0E35  00C9               	movwf	??_Heater_Up_Down_Buttons_Task
  3215  0E36  0849               	movf	??_Heater_Up_Down_Buttons_Task,w
  3216  0E37  00C4               	movwf	Check_ON_Push_Button@a_u8Pin
  3217  0E38  303D               	movlw	(low (Heater_Up_Down_Buttons_Task@Up_Button| 0))& (0+255)
  3218  0E39  00CA               	movwf	??_Heater_Up_Down_Buttons_Task+1
  3219  0E3A  084A               	movf	??_Heater_Up_Down_Buttons_Task+1,w
  3220  0E3B  00C5               	movwf	Check_ON_Push_Button@retVal_t
  3221  0E3C  3001               	movlw	1
  3222  0E3D  160A  118A  27B1  120A  158A  	fcall	_Check_ON_Push_Button
  3223  0E42  3A00               	xorlw	0
  3224  0E43  1D03               	skipz
  3225  0E44  2E46               	goto	u4861
  3226  0E45  2E47               	goto	u4860
  3227  0E46                     u4861:	
  3228  0E46  2EB2               	goto	l459
  3229  0E47                     u4860:	
  3230  0E47                     l3978:	
  3231                           
  3232                           ;heater.c: 407:             {;heater.c: 409:                 g_Heater_state_t = HEATER_S
      +                          ET_TEMERATURE;
  3233  0E47  3002               	movlw	2
  3234  0E48  1283               	bcf	3,5	;RP0=0, select bank0
  3235  0E49  1303               	bcf	3,6	;RP1=0, select bank0
  3236  0E4A  00C9               	movwf	??_Heater_Up_Down_Buttons_Task
  3237  0E4B  0849               	movf	??_Heater_Up_Down_Buttons_Task,w
  3238  0E4C  00BB               	movwf	_g_Heater_state_t
  3239                           
  3240                           ;heater.c: 410:             }
  3241  0E4D  2EB2               	goto	l459
  3242  0E4E                     l3980:	
  3243                           
  3244                           ;heater.c: 418:             if(Check_ON_Push_Button(1u , 1u , &Down_Button) == PUSH_BUTT
      +                          ON_IS_PRESSED)
  3245  0E4E  01C4               	clrf	Check_ON_Push_Button@a_u8Pin
  3246  0E4F  0AC4               	incf	Check_ON_Push_Button@a_u8Pin,f
  3247  0E50  303C               	movlw	(low (Heater_Up_Down_Buttons_Task@Down_Button| 0))& (0+255)
  3248  0E51  00C9               	movwf	??_Heater_Up_Down_Buttons_Task
  3249  0E52  0849               	movf	??_Heater_Up_Down_Buttons_Task,w
  3250  0E53  00C5               	movwf	Check_ON_Push_Button@retVal_t
  3251  0E54  3001               	movlw	1
  3252  0E55  160A  118A  27B1  120A  158A  	fcall	_Check_ON_Push_Button
  3253  0E5A  3A00               	xorlw	0
  3254  0E5B  1D03               	skipz
  3255  0E5C  2E5E               	goto	u4871
  3256  0E5D  2E5F               	goto	u4870
  3257  0E5E                     u4871:	
  3258  0E5E  2E79               	goto	l3990
  3259  0E5F                     u4870:	
  3260  0E5F                     l3982:	
  3261                           
  3262                           ;heater.c: 419:             {;heater.c: 421:                 g_u8End_setup_state = 0;
  3263  0E5F  1283               	bcf	3,5	;RP0=0, select bank0
  3264  0E60  1303               	bcf	3,6	;RP1=0, select bank0
  3265  0E61  01B5               	clrf	_g_u8End_setup_state
  3266                           
  3267                           ;heater.c: 423:                 g_u8Display_blank_counter = 0;
  3268  0E62  01B6               	clrf	_g_u8Display_blank_counter
  3269  0E63                     l3984:	
  3270                           
  3271                           ;heater.c: 425:                 if(g_u8Heater_desired_temperature > 35u)
  3272  0E63  3024               	movlw	36
  3273  0E64  026C               	subwf	_g_u8Heater_desired_temperature,w
  3274  0E65  1C03               	skipc
  3275  0E66  2E68               	goto	u4881
  3276  0E67  2E69               	goto	u4880
  3277  0E68                     u4881:	
  3278  0E68  2EB2               	goto	l459
  3279  0E69                     u4880:	
  3280  0E69                     l3986:	
  3281                           
  3282                           ;heater.c: 426:                 {;heater.c: 428:                     g_u8Heater_desired_
      +                          temperature -= 5;
  3283  0E69  3005               	movlw	5
  3284  0E6A  02EC               	subwf	_g_u8Heater_desired_temperature,f
  3285  0E6B                     l3988:	
  3286                           
  3287                           ;heater.c: 430:                     EEPROM_Save_Byte(25u , g_u8Heater_desired_temperatur
      +                          e);
  3288  0E6B  3019               	movlw	25
  3289  0E6C  00C4               	movwf	EEPROM_Save_Byte@a_u16Location
  3290  0E6D  3000               	movlw	0
  3291  0E6E  00C5               	movwf	EEPROM_Save_Byte@a_u16Location+1
  3292  0E6F  086C               	movf	_g_u8Heater_desired_temperature,w
  3293  0E70  00C9               	movwf	??_Heater_Up_Down_Buttons_Task
  3294  0E71  0849               	movf	??_Heater_Up_Down_Buttons_Task,w
  3295  0E72  00C6               	movwf	EEPROM_Save_Byte@a_u8Data
  3296  0E73  160A  118A  24AC  120A  158A  	fcall	_EEPROM_Save_Byte
  3297                           
  3298                           ;heater.c: 431:                 }
  3299  0E78  2EB2               	goto	l459
  3300  0E79                     l3990:	
  3301  0E79  3002               	movlw	2
  3302  0E7A  1283               	bcf	3,5	;RP0=0, select bank0
  3303  0E7B  1303               	bcf	3,6	;RP1=0, select bank0
  3304  0E7C  00C9               	movwf	??_Heater_Up_Down_Buttons_Task
  3305  0E7D  0849               	movf	??_Heater_Up_Down_Buttons_Task,w
  3306  0E7E  00C4               	movwf	Check_ON_Push_Button@a_u8Pin
  3307  0E7F  303D               	movlw	(low (Heater_Up_Down_Buttons_Task@Up_Button| 0))& (0+255)
  3308  0E80  00CA               	movwf	??_Heater_Up_Down_Buttons_Task+1
  3309  0E81  084A               	movf	??_Heater_Up_Down_Buttons_Task+1,w
  3310  0E82  00C5               	movwf	Check_ON_Push_Button@retVal_t
  3311  0E83  3001               	movlw	1
  3312  0E84  160A  118A  27B1  120A  158A  	fcall	_Check_ON_Push_Button
  3313  0E89  3A00               	xorlw	0
  3314  0E8A  1D03               	skipz
  3315  0E8B  2E8D               	goto	u4891
  3316  0E8C  2E8E               	goto	u4890
  3317  0E8D                     u4891:	
  3318  0E8D  2EB2               	goto	l459
  3319  0E8E                     u4890:	
  3320  0E8E                     l3992:	
  3321                           
  3322                           ;heater.c: 439:             {;heater.c: 441:                 g_u8End_setup_state = 0;
  3323  0E8E  1283               	bcf	3,5	;RP0=0, select bank0
  3324  0E8F  1303               	bcf	3,6	;RP1=0, select bank0
  3325  0E90  01B5               	clrf	_g_u8End_setup_state
  3326                           
  3327                           ;heater.c: 443:                 g_u8Display_blank_counter = 0;
  3328  0E91  01B6               	clrf	_g_u8Display_blank_counter
  3329  0E92                     l3994:	
  3330                           
  3331                           ;heater.c: 445:                 if(g_u8Heater_desired_temperature < 75u)
  3332  0E92  304B               	movlw	75
  3333  0E93  026C               	subwf	_g_u8Heater_desired_temperature,w
  3334  0E94  1803               	skipnc
  3335  0E95  2E97               	goto	u4901
  3336  0E96  2E98               	goto	u4900
  3337  0E97                     u4901:	
  3338  0E97  2EB2               	goto	l459
  3339  0E98                     u4900:	
  3340  0E98                     l3996:	
  3341                           
  3342                           ;heater.c: 446:                 {;heater.c: 448:                     g_u8Heater_desired_
      +                          temperature += 5;
  3343  0E98  3005               	movlw	5
  3344  0E99  00C9               	movwf	??_Heater_Up_Down_Buttons_Task
  3345  0E9A  0849               	movf	??_Heater_Up_Down_Buttons_Task,w
  3346  0E9B  07EC               	addwf	_g_u8Heater_desired_temperature,f
  3347  0E9C  2E6B               	goto	l3988
  3348  0E9D                     l4002:	
  3349  0E9D  1283               	bcf	3,5	;RP0=0, select bank0
  3350  0E9E  1303               	bcf	3,6	;RP1=0, select bank0
  3351  0E9F  083B               	movf	_g_Heater_state_t,w
  3352  0EA0  00C9               	movwf	??_Heater_Up_Down_Buttons_Task
  3353  0EA1  01CA               	clrf	??_Heater_Up_Down_Buttons_Task+1
  3354                           
  3355                           ; Switch on 2 bytes has been partitioned into a top level switch of size 1, and 1 sub-sw
      +                          itches
  3356                           ; Switch size 1, requested type "simple"
  3357                           ; Number of cases is 1, Range of values is 0 to 0
  3358                           ; switch strategies available:
  3359                           ; Name         Instructions Cycles
  3360                           ; simple_byte            4     3 (average)
  3361                           ; direct_byte           11     8 (fixed)
  3362                           ; jumptable            260     6 (fixed)
  3363                           ;	Chosen strategy is simple_byte
  3364  0EA2  084A               	movf	??_Heater_Up_Down_Buttons_Task+1,w
  3365  0EA3  3A00               	xorlw	0	; case 0
  3366  0EA4  1903               	skipnz
  3367  0EA5  2EA7               	goto	l4738
  3368  0EA6  2EB2               	goto	l459
  3369  0EA7                     l4738:	
  3370                           
  3371                           ; Switch size 1, requested type "simple"
  3372                           ; Number of cases is 3, Range of values is 0 to 2
  3373                           ; switch strategies available:
  3374                           ; Name         Instructions Cycles
  3375                           ; simple_byte           10     6 (average)
  3376                           ; direct_byte           17     8 (fixed)
  3377                           ; jumptable            260     6 (fixed)
  3378                           ;	Chosen strategy is simple_byte
  3379  0EA7  0849               	movf	??_Heater_Up_Down_Buttons_Task,w
  3380  0EA8  3A00               	xorlw	0	; case 0
  3381  0EA9  1903               	skipnz
  3382  0EAA  2EB2               	goto	l459
  3383  0EAB  3A01               	xorlw	1	; case 1
  3384  0EAC  1903               	skipnz
  3385  0EAD  2E21               	goto	l3974
  3386  0EAE  3A03               	xorlw	3	; case 2
  3387  0EAF  1903               	skipnz
  3388  0EB0  2E4E               	goto	l3980
  3389  0EB1  2EB2               	goto	l459
  3390  0EB2                     l459:	
  3391  0EB2  0008               	return
  3392  0EB3                     __end_of_Heater_Up_Down_Buttons_Task:	
  3393                           
  3394                           	psect	text14
  3395  0B25                     __ptext14:	
  3396 ;; *************** function _Heater_On_Off_Button_Task *****************
  3397 ;; Defined at:
  3398 ;;		line 332 in file "heater.c"
  3399 ;; Parameters:    Size  Location     Type
  3400 ;;		None
  3401 ;; Auto vars:     Size  Location     Type
  3402 ;;  u8Saved_temp    1   16[BANK0 ] unsigned char 
  3403 ;; Return value:  Size  Location     Type
  3404 ;;                  1    wreg      void 
  3405 ;; Registers used:
  3406 ;;		wreg, fsr0l, fsr0h, status,2, status,0, pclath, cstack
  3407 ;; Tracked objects:
  3408 ;;		On entry : 0/0
  3409 ;;		On exit  : 0/0
  3410 ;;		Unchanged: 0/0
  3411 ;; Data sizes:     COMMON   BANK0   BANK1   BANK3   BANK2
  3412 ;;      Params:         0       0       0       0       0
  3413 ;;      Locals:         0       3       0       0       0
  3414 ;;      Temps:          0       2       0       0       0
  3415 ;;      Totals:         0       5       0       0       0
  3416 ;;Total ram usage:        5 bytes
  3417 ;; Hardware stack levels used:    1
  3418 ;; Hardware stack levels required when called:    6
  3419 ;; This function calls:
  3420 ;;		_CPU_sleep
  3421 ;;		_Check_ON_Push_Button
  3422 ;;		_EEPROM_Read_Byte
  3423 ;;		_Heater_turn_off
  3424 ;; This function is called by:
  3425 ;;		_initialization_Tasks
  3426 ;;		_Scheduler_Dispatcher
  3427 ;; This function uses a non-reentrant model
  3428 ;;
  3429                           
  3430                           
  3431                           ;psect for function _Heater_On_Off_Button_Task
  3432  0B25                     _Heater_On_Off_Button_Task:	
  3433  0B25                     l3940:	
  3434                           ;incstack = 0
  3435                           ; Regs used in _Heater_On_Off_Button_Task: [wreg-fsr0h+status,2+status,0+pclath+cstack]
  3436                           
  3437                           
  3438                           ;heater.c: 335:     static EnumButton_State_t On_Off_Button;;heater.c: 337:     uint8 u8
      +                          Saved_temperature_in_EEPROM;;heater.c: 339:     Check_ON_Push_Button(1u , 0u , &On_Off_B
      +                          utton);
  3439  0B25  1283               	bcf	3,5	;RP0=0, select bank0
  3440  0B26  1303               	bcf	3,6	;RP1=0, select bank0
  3441  0B27  01C4               	clrf	Check_ON_Push_Button@a_u8Pin
  3442  0B28  303E               	movlw	(low (Heater_On_Off_Button_Task@On_Off_Button| 0))& (0+255)
  3443  0B29  00CB               	movwf	??_Heater_On_Off_Button_Task
  3444  0B2A  084B               	movf	??_Heater_On_Off_Button_Task,w
  3445  0B2B  00C5               	movwf	Check_ON_Push_Button@retVal_t
  3446  0B2C  3001               	movlw	1
  3447  0B2D  160A  118A  27B1  120A  158A  	fcall	_Check_ON_Push_Button
  3448                           
  3449                           ;heater.c: 340:     switch(g_Heater_state_t)
  3450  0B32  2B7D               	goto	l3966
  3451  0B33                     l3942:	
  3452                           
  3453                           ;heater.c: 343:             if(On_Off_Button == PUSH_BUTTON_IS_PRESSED)
  3454  0B33  083E               	movf	Heater_On_Off_Button_Task@On_Off_Button,w
  3455  0B34  1D03               	btfss	3,2
  3456  0B35  2B37               	goto	u4801
  3457  0B36  2B38               	goto	u4800
  3458  0B37                     u4801:	
  3459  0B37  2B65               	goto	l3956
  3460  0B38                     u4800:	
  3461  0B38                     l3944:	
  3462                           
  3463                           ;heater.c: 344:             {;heater.c: 346:                 u8Saved_temperature_in_EEPR
      +                          OM = EEPROM_Read_Byte(25u);
  3464  0B38  3019               	movlw	25
  3465  0B39  00C7               	movwf	EEPROM_Read_Byte@a_u16Location
  3466  0B3A  3000               	movlw	0
  3467  0B3B  00C8               	movwf	EEPROM_Read_Byte@a_u16Location+1
  3468  0B3C  160A  118A  268F  120A  158A  	fcall	_EEPROM_Read_Byte
  3469  0B41  1283               	bcf	3,5	;RP0=0, select bank0
  3470  0B42  1303               	bcf	3,6	;RP1=0, select bank0
  3471  0B43  00CB               	movwf	??_Heater_On_Off_Button_Task
  3472  0B44  084B               	movf	??_Heater_On_Off_Button_Task,w
  3473  0B45  00CF               	movwf	Heater_On_Off_Button_Task@u8Saved_temperature_in_EEPROM
  3474  0B46                     l3946:	
  3475                           
  3476                           ;heater.c: 348:                 g_u8Heater_desired_temperature = (u8Saved_temperature_in
      +                          _EEPROM >= 35 &&
  3477  0B46  3023               	movlw	35
  3478  0B47  024F               	subwf	Heater_On_Off_Button_Task@u8Saved_temperature_in_EEPROM,w
  3479  0B48  1C03               	skipc
  3480  0B49  2B4B               	goto	u4811
  3481  0B4A  2B4C               	goto	u4810
  3482  0B4B                     u4811:	
  3483  0B4B  2B52               	goto	l3950
  3484  0B4C                     u4810:	
  3485  0B4C                     l3948:	
  3486  0B4C  304C               	movlw	76
  3487  0B4D  024F               	subwf	Heater_On_Off_Button_Task@u8Saved_temperature_in_EEPROM,w
  3488  0B4E  1C03               	skipc
  3489  0B4F  2B51               	goto	u4821
  3490  0B50  2B52               	goto	u4820
  3491  0B51                     u4821:	
  3492  0B51  2B57               	goto	l3952
  3493  0B52                     u4820:	
  3494  0B52                     l3950:	
  3495  0B52  303C               	movlw	60
  3496  0B53  00CD               	movwf	_Heater_On_Off_Button_Task$298
  3497  0B54  3000               	movlw	0
  3498  0B55  00CE               	movwf	_Heater_On_Off_Button_Task$298+1
  3499  0B56  2B5E               	goto	l422
  3500  0B57                     l3952:	
  3501  0B57  084F               	movf	Heater_On_Off_Button_Task@u8Saved_temperature_in_EEPROM,w
  3502  0B58  00CB               	movwf	??_Heater_On_Off_Button_Task
  3503  0B59  01CC               	clrf	??_Heater_On_Off_Button_Task+1
  3504  0B5A  084B               	movf	??_Heater_On_Off_Button_Task,w
  3505  0B5B  00CD               	movwf	_Heater_On_Off_Button_Task$298
  3506  0B5C  084C               	movf	??_Heater_On_Off_Button_Task+1,w
  3507  0B5D  00CE               	movwf	_Heater_On_Off_Button_Task$298+1
  3508  0B5E                     l422:	
  3509  0B5E  084D               	movf	_Heater_On_Off_Button_Task$298,w
  3510  0B5F  00CB               	movwf	??_Heater_On_Off_Button_Task
  3511  0B60  084B               	movf	??_Heater_On_Off_Button_Task,w
  3512  0B61  00EC               	movwf	_g_u8Heater_desired_temperature
  3513  0B62                     l3954:	
  3514                           
  3515                           ;heater.c: 352:                 g_Heater_state_t = HEATER_ON_STATE;
  3516  0B62  01BB               	clrf	_g_Heater_state_t
  3517  0B63  0ABB               	incf	_g_Heater_state_t,f
  3518                           
  3519                           ;heater.c: 353:             }
  3520  0B64  2B92               	goto	l434
  3521  0B65                     l3956:	
  3522  0B65  3003               	movlw	3
  3523  0B66  063E               	xorwf	Heater_On_Off_Button_Task@On_Off_Button,w
  3524  0B67  1D03               	btfss	3,2
  3525  0B68  2B6A               	goto	u4831
  3526  0B69  2B6B               	goto	u4830
  3527  0B6A                     u4831:	
  3528  0B6A  2B71               	goto	l425
  3529  0B6B                     u4830:	
  3530  0B6B                     l3958:	
  3531                           
  3532                           ;heater.c: 355:             {;heater.c: 357:                 CPU_sleep();
  3533  0B6B  160A  118A  23F0  120A  158A  	fcall	_CPU_sleep
  3534                           
  3535                           ;heater.c: 358:             }
  3536  0B70  2B92               	goto	l434
  3537  0B71                     l425:	
  3538                           
  3539                           ;heater.c: 363:             break;
  3540  0B71  2B92               	goto	l434
  3541  0B72                     l3960:	
  3542                           
  3543                           ;heater.c: 366:             if(On_Off_Button == PUSH_BUTTON_IS_PRESSED)
  3544  0B72  083E               	movf	Heater_On_Off_Button_Task@On_Off_Button,w
  3545  0B73  1D03               	btfss	3,2
  3546  0B74  2B76               	goto	u4841
  3547  0B75  2B77               	goto	u4840
  3548  0B76                     u4841:	
  3549  0B76  2B92               	goto	l434
  3550  0B77                     u4840:	
  3551  0B77                     l3962:	
  3552                           
  3553                           ;heater.c: 367:             {;heater.c: 368:                 Heater_turn_off();
  3554  0B77  160A  118A  25C4  120A  158A  	fcall	_Heater_turn_off
  3555                           
  3556                           ;heater.c: 369:             }
  3557  0B7C  2B92               	goto	l434
  3558  0B7D                     l3966:	
  3559  0B7D  1283               	bcf	3,5	;RP0=0, select bank0
  3560  0B7E  1303               	bcf	3,6	;RP1=0, select bank0
  3561  0B7F  083B               	movf	_g_Heater_state_t,w
  3562  0B80  00CB               	movwf	??_Heater_On_Off_Button_Task
  3563  0B81  01CC               	clrf	??_Heater_On_Off_Button_Task+1
  3564                           
  3565                           ; Switch on 2 bytes has been partitioned into a top level switch of size 1, and 1 sub-sw
      +                          itches
  3566                           ; Switch size 1, requested type "simple"
  3567                           ; Number of cases is 1, Range of values is 0 to 0
  3568                           ; switch strategies available:
  3569                           ; Name         Instructions Cycles
  3570                           ; simple_byte            4     3 (average)
  3571                           ; direct_byte           11     8 (fixed)
  3572                           ; jumptable            260     6 (fixed)
  3573                           ;	Chosen strategy is simple_byte
  3574  0B82  084C               	movf	??_Heater_On_Off_Button_Task+1,w
  3575  0B83  3A00               	xorlw	0	; case 0
  3576  0B84  1903               	skipnz
  3577  0B85  2B87               	goto	l4740
  3578  0B86  2B92               	goto	l434
  3579  0B87                     l4740:	
  3580                           
  3581                           ; Switch size 1, requested type "simple"
  3582                           ; Number of cases is 3, Range of values is 0 to 2
  3583                           ; switch strategies available:
  3584                           ; Name         Instructions Cycles
  3585                           ; simple_byte           10     6 (average)
  3586                           ; direct_byte           17     8 (fixed)
  3587                           ; jumptable            260     6 (fixed)
  3588                           ;	Chosen strategy is simple_byte
  3589  0B87  084B               	movf	??_Heater_On_Off_Button_Task,w
  3590  0B88  3A00               	xorlw	0	; case 0
  3591  0B89  1903               	skipnz
  3592  0B8A  2B33               	goto	l3942
  3593  0B8B  3A01               	xorlw	1	; case 1
  3594  0B8C  1903               	skipnz
  3595  0B8D  2B72               	goto	l3960
  3596  0B8E  3A03               	xorlw	3	; case 2
  3597  0B8F  1903               	skipnz
  3598  0B90  2B72               	goto	l3960
  3599  0B91  2B92               	goto	l434
  3600  0B92                     l434:	
  3601  0B92  0008               	return
  3602  0B93                     __end_of_Heater_On_Off_Button_Task:	
  3603                           
  3604                           	psect	text15
  3605  0377                     __ptext15:	
  3606 ;; *************** function _Heater_Display_Task *****************
  3607 ;; Defined at:
  3608 ;;		line 234 in file "heater.c"
  3609 ;; Parameters:    Size  Location     Type
  3610 ;;		None
  3611 ;; Auto vars:     Size  Location     Type
  3612 ;;		None
  3613 ;; Return value:  Size  Location     Type
  3614 ;;                  1    wreg      void 
  3615 ;; Registers used:
  3616 ;;		wreg, fsr0l, fsr0h, status,2, status,0, pclath, cstack
  3617 ;; Tracked objects:
  3618 ;;		On entry : 0/0
  3619 ;;		On exit  : 0/0
  3620 ;;		Unchanged: 0/0
  3621 ;; Data sizes:     COMMON   BANK0   BANK1   BANK3   BANK2
  3622 ;;      Params:         0       0       0       0       0
  3623 ;;      Locals:         0       0       0       0       0
  3624 ;;      Temps:          0       2       0       0       0
  3625 ;;      Totals:         0       2       0       0       0
  3626 ;;Total ram usage:        2 bytes
  3627 ;; Hardware stack levels used:    1
  3628 ;; Hardware stack levels required when called:    5
  3629 ;; This function calls:
  3630 ;;		_SevenSegment_Display
  3631 ;;		_SevenSegment_SelectChip
  3632 ;;		___awdiv
  3633 ;;		___awmod
  3634 ;; This function is called by:
  3635 ;;		_initialization_Tasks
  3636 ;;		_Scheduler_Dispatcher
  3637 ;; This function uses a non-reentrant model
  3638 ;;
  3639                           
  3640                           
  3641                           ;psect for function _Heater_Display_Task
  3642  0377                     _Heater_Display_Task:	
  3643  0377                     l3900:	
  3644                           ;incstack = 0
  3645                           ; Regs used in _Heater_Display_Task: [wreg-fsr0h+status,2+status,0+pclath+cstack]
  3646                           
  3647                           
  3648                           ;heater.c: 237:     SevenSegment_SelectChip(SEVEN_SEGMENT_DISABLE_CHIP , SEVEN_SEGMENT_D
      +                          ISABLE_CHIP ,
  3649  0377  1283               	bcf	3,5	;RP0=0, select bank0
  3650  0378  1303               	bcf	3,6	;RP1=0, select bank0
  3651  0379  01C5               	clrf	SevenSegment_SelectChip@a_Chip2
  3652  037A  0AC5               	incf	SevenSegment_SelectChip@a_Chip2,f
  3653  037B  01C6               	clrf	SevenSegment_SelectChip@a_Chip3
  3654  037C  0AC6               	incf	SevenSegment_SelectChip@a_Chip3,f
  3655  037D  01C7               	clrf	SevenSegment_SelectChip@a_Chip4
  3656  037E  0AC7               	incf	SevenSegment_SelectChip@a_Chip4,f
  3657  037F  3001               	movlw	1
  3658  0380  120A  118A  26B2  120A  118A  	fcall	_SevenSegment_SelectChip
  3659                           
  3660                           ;heater.c: 239:     switch(g_Heater_state_t)
  3661  0385  2C4C               	goto	l3934
  3662  0386                     l3902:	
  3663                           
  3664                           ;heater.c: 246:             if(g_u8Sync_flag == 0)
  3665  0386  083A               	movf	_g_u8Sync_flag,w
  3666  0387  1D03               	btfss	3,2
  3667  0388  2B8A               	goto	u4751
  3668  0389  2B8B               	goto	u4750
  3669  038A                     u4751:	
  3670  038A  2BB7               	goto	l3908
  3671  038B                     u4750:	
  3672  038B                     l3904:	
  3673                           
  3674                           ;heater.c: 247:             {;heater.c: 249:                 SevenSegment_Display(g_u8He
      +                          ater_real_time_temperature / 10 ,
  3675  038B  01C8               	clrf	SevenSegment_Display@a_displayDot
  3676  038C  0AC8               	incf	SevenSegment_Display@a_displayDot,f
  3677  038D  300A               	movlw	10
  3678  038E  00BF               	movwf	___awdiv@divisor
  3679  038F  3000               	movlw	0
  3680  0390  00C0               	movwf	___awdiv@divisor+1
  3681  0391  086B               	movf	_g_u8Heater_real_time_temperature,w
  3682  0392  00D8               	movwf	??_Heater_Display_Task
  3683  0393  01D9               	clrf	??_Heater_Display_Task+1
  3684  0394  0858               	movf	??_Heater_Display_Task,w
  3685  0395  00C1               	movwf	___awdiv@dividend
  3686  0396  0859               	movf	??_Heater_Display_Task+1,w
  3687  0397  00C2               	movwf	___awdiv@dividend+1
  3688  0398  120A  158A  21E3  120A  118A  	fcall	___awdiv
  3689  039D  1283               	bcf	3,5	;RP0=0, select bank0
  3690  039E  1303               	bcf	3,6	;RP1=0, select bank0
  3691  039F  083F               	movf	?___awdiv,w
  3692  03A0  160A  118A  264A  120A  118A  	fcall	_SevenSegment_Display
  3693                           
  3694                           ;heater.c: 252:                 SevenSegment_SelectChip(SEVEN_SEGMENT_DISABLE_CHIP ,
  3695  03A5  1283               	bcf	3,5	;RP0=0, select bank0
  3696  03A6  1303               	bcf	3,6	;RP1=0, select bank0
  3697  03A7  01C5               	clrf	SevenSegment_SelectChip@a_Chip2
  3698  03A8  01C6               	clrf	SevenSegment_SelectChip@a_Chip3
  3699  03A9  0AC6               	incf	SevenSegment_SelectChip@a_Chip3,f
  3700  03AA  01C7               	clrf	SevenSegment_SelectChip@a_Chip4
  3701  03AB  0AC7               	incf	SevenSegment_SelectChip@a_Chip4,f
  3702  03AC  3001               	movlw	1
  3703  03AD  120A  118A  26B2  120A  118A  	fcall	_SevenSegment_SelectChip
  3704  03B2                     l3906:	
  3705                           
  3706                           ;heater.c: 256:                 g_u8Sync_flag = 1;
  3707  03B2  1283               	bcf	3,5	;RP0=0, select bank0
  3708  03B3  1303               	bcf	3,6	;RP1=0, select bank0
  3709  03B4  01BA               	clrf	_g_u8Sync_flag
  3710  03B5  0ABA               	incf	_g_u8Sync_flag,f
  3711                           
  3712                           ;heater.c: 257:             }
  3713  03B6  2C61               	goto	l411
  3714  03B7                     l3908:	
  3715                           
  3716                           ;heater.c: 259:             {;heater.c: 261:                 SevenSegment_Display(g_u8He
      +                          ater_real_time_temperature % 10 ,
  3717  03B7  01C8               	clrf	SevenSegment_Display@a_displayDot
  3718  03B8  0AC8               	incf	SevenSegment_Display@a_displayDot,f
  3719  03B9  300A               	movlw	10
  3720  03BA  00BF               	movwf	___awmod@divisor
  3721  03BB  3000               	movlw	0
  3722  03BC  00C0               	movwf	___awmod@divisor+1
  3723  03BD  086B               	movf	_g_u8Heater_real_time_temperature,w
  3724  03BE  00D8               	movwf	??_Heater_Display_Task
  3725  03BF  01D9               	clrf	??_Heater_Display_Task+1
  3726  03C0  0858               	movf	??_Heater_Display_Task,w
  3727  03C1  00C1               	movwf	___awmod@dividend
  3728  03C2  0859               	movf	??_Heater_Display_Task+1,w
  3729  03C3  00C2               	movwf	___awmod@dividend+1
  3730  03C4  120A  158A  2061  120A  118A  	fcall	___awmod
  3731  03C9  1283               	bcf	3,5	;RP0=0, select bank0
  3732  03CA  1303               	bcf	3,6	;RP1=0, select bank0
  3733  03CB  083F               	movf	?___awmod,w
  3734  03CC  160A  118A  264A  120A  118A  	fcall	_SevenSegment_Display
  3735                           
  3736                           ;heater.c: 264:                 SevenSegment_SelectChip(SEVEN_SEGMENT_DISABLE_CHIP ,
  3737  03D1  1283               	bcf	3,5	;RP0=0, select bank0
  3738  03D2  1303               	bcf	3,6	;RP1=0, select bank0
  3739  03D3  01C5               	clrf	SevenSegment_SelectChip@a_Chip2
  3740  03D4  0AC5               	incf	SevenSegment_SelectChip@a_Chip2,f
  3741  03D5  01C6               	clrf	SevenSegment_SelectChip@a_Chip3
  3742  03D6  01C7               	clrf	SevenSegment_SelectChip@a_Chip4
  3743  03D7  0AC7               	incf	SevenSegment_SelectChip@a_Chip4,f
  3744  03D8  3001               	movlw	1
  3745  03D9  120A  118A  26B2  120A  118A  	fcall	_SevenSegment_SelectChip
  3746  03DE                     l3910:	
  3747                           
  3748                           ;heater.c: 268:                 g_u8Sync_flag = 0;
  3749  03DE  1283               	bcf	3,5	;RP0=0, select bank0
  3750  03DF  1303               	bcf	3,6	;RP1=0, select bank0
  3751  03E0  01BA               	clrf	_g_u8Sync_flag
  3752  03E1  2C61               	goto	l411
  3753  03E2                     l3912:	
  3754                           
  3755                           ;heater.c: 273:             if(g_u8Display_blank_counter < 10)
  3756  03E2  300A               	movlw	10
  3757  03E3  0236               	subwf	_g_u8Display_blank_counter,w
  3758  03E4  1803               	skipnc
  3759  03E5  2BE7               	goto	u4761
  3760  03E6  2BE8               	goto	u4760
  3761  03E7                     u4761:	
  3762  03E7  2C3D               	goto	l3924
  3763  03E8                     u4760:	
  3764  03E8                     l3914:	
  3765                           
  3766                           ;heater.c: 274:             {;heater.c: 276:                 if(g_u8Sync_flag == 0)
  3767  03E8  083A               	movf	_g_u8Sync_flag,w
  3768  03E9  1D03               	btfss	3,2
  3769  03EA  2BEC               	goto	u4771
  3770  03EB  2BED               	goto	u4770
  3771  03EC                     u4771:	
  3772  03EC  2C15               	goto	l3920
  3773  03ED                     u4770:	
  3774  03ED                     l3916:	
  3775                           
  3776                           ;heater.c: 277:                 {;heater.c: 279:                     SevenSegment_Displa
      +                          y(g_u8Heater_desired_temperature / 10 ,
  3777  03ED  01C8               	clrf	SevenSegment_Display@a_displayDot
  3778  03EE  0AC8               	incf	SevenSegment_Display@a_displayDot,f
  3779  03EF  300A               	movlw	10
  3780  03F0  00BF               	movwf	___awdiv@divisor
  3781  03F1  3000               	movlw	0
  3782  03F2  00C0               	movwf	___awdiv@divisor+1
  3783  03F3  086C               	movf	_g_u8Heater_desired_temperature,w
  3784  03F4  00D8               	movwf	??_Heater_Display_Task
  3785  03F5  01D9               	clrf	??_Heater_Display_Task+1
  3786  03F6  0858               	movf	??_Heater_Display_Task,w
  3787  03F7  00C1               	movwf	___awdiv@dividend
  3788  03F8  0859               	movf	??_Heater_Display_Task+1,w
  3789  03F9  00C2               	movwf	___awdiv@dividend+1
  3790  03FA  120A  158A  21E3  120A  118A  	fcall	___awdiv
  3791  03FF  1283               	bcf	3,5	;RP0=0, select bank0
  3792  0400  1303               	bcf	3,6	;RP1=0, select bank0
  3793  0401  083F               	movf	?___awdiv,w
  3794  0402  160A  118A  264A  120A  118A  	fcall	_SevenSegment_Display
  3795                           
  3796                           ;heater.c: 282:                     SevenSegment_SelectChip(SEVEN_SEGMENT_DISABLE_CHIP ,
  3797  0407  1283               	bcf	3,5	;RP0=0, select bank0
  3798  0408  1303               	bcf	3,6	;RP1=0, select bank0
  3799  0409  01C5               	clrf	SevenSegment_SelectChip@a_Chip2
  3800  040A  01C6               	clrf	SevenSegment_SelectChip@a_Chip3
  3801  040B  0AC6               	incf	SevenSegment_SelectChip@a_Chip3,f
  3802  040C  01C7               	clrf	SevenSegment_SelectChip@a_Chip4
  3803  040D  0AC7               	incf	SevenSegment_SelectChip@a_Chip4,f
  3804  040E  3001               	movlw	1
  3805  040F  120A  118A  26B2  120A  118A  	fcall	_SevenSegment_SelectChip
  3806  0414  2BB2               	goto	l3906
  3807  0415                     l3920:	
  3808                           
  3809                           ;heater.c: 289:                 {;heater.c: 291:                     SevenSegment_Displa
      +                          y(g_u8Heater_desired_temperature % 10 ,
  3810  0415  01C8               	clrf	SevenSegment_Display@a_displayDot
  3811  0416  0AC8               	incf	SevenSegment_Display@a_displayDot,f
  3812  0417  300A               	movlw	10
  3813  0418  00BF               	movwf	___awmod@divisor
  3814  0419  3000               	movlw	0
  3815  041A  00C0               	movwf	___awmod@divisor+1
  3816  041B  086C               	movf	_g_u8Heater_desired_temperature,w
  3817  041C  00D8               	movwf	??_Heater_Display_Task
  3818  041D  01D9               	clrf	??_Heater_Display_Task+1
  3819  041E  0858               	movf	??_Heater_Display_Task,w
  3820  041F  00C1               	movwf	___awmod@dividend
  3821  0420  0859               	movf	??_Heater_Display_Task+1,w
  3822  0421  00C2               	movwf	___awmod@dividend+1
  3823  0422  120A  158A  2061  120A  118A  	fcall	___awmod
  3824  0427  1283               	bcf	3,5	;RP0=0, select bank0
  3825  0428  1303               	bcf	3,6	;RP1=0, select bank0
  3826  0429  083F               	movf	?___awmod,w
  3827  042A  160A  118A  264A  120A  118A  	fcall	_SevenSegment_Display
  3828                           
  3829                           ;heater.c: 294:                     SevenSegment_SelectChip(SEVEN_SEGMENT_DISABLE_CHIP ,
  3830  042F  1283               	bcf	3,5	;RP0=0, select bank0
  3831  0430  1303               	bcf	3,6	;RP1=0, select bank0
  3832  0431  01C5               	clrf	SevenSegment_SelectChip@a_Chip2
  3833  0432  0AC5               	incf	SevenSegment_SelectChip@a_Chip2,f
  3834  0433  01C6               	clrf	SevenSegment_SelectChip@a_Chip3
  3835  0434  01C7               	clrf	SevenSegment_SelectChip@a_Chip4
  3836  0435  0AC7               	incf	SevenSegment_SelectChip@a_Chip4,f
  3837  0436  3001               	movlw	1
  3838  0437  120A  118A  26B2  120A  118A  	fcall	_SevenSegment_SelectChip
  3839  043C  2BDE               	goto	l3910
  3840  043D                     l3924:	
  3841  043D  300A               	movlw	10
  3842  043E  0636               	xorwf	_g_u8Display_blank_counter,w
  3843  043F  1D03               	btfss	3,2
  3844  0440  2C42               	goto	u4781
  3845  0441  2C43               	goto	u4780
  3846  0442                     u4781:	
  3847  0442  2C44               	goto	l3928
  3848  0443                     u4780:	
  3849  0443  2BDE               	goto	l3910
  3850  0444                     l3928:	
  3851  0444  3014               	movlw	20
  3852  0445  0636               	xorwf	_g_u8Display_blank_counter,w
  3853  0446  1D03               	btfss	3,2
  3854  0447  2C49               	goto	u4791
  3855  0448  2C4A               	goto	u4790
  3856  0449                     u4791:	
  3857  0449  2C61               	goto	l411
  3858  044A                     u4790:	
  3859  044A                     l3930:	
  3860                           
  3861                           ;heater.c: 307:             {;heater.c: 308:                 g_u8Display_blank_counter =
      +                           0;
  3862  044A  01B6               	clrf	_g_u8Display_blank_counter
  3863                           
  3864                           ;heater.c: 309:             }
  3865  044B  2C61               	goto	l411
  3866  044C                     l3934:	
  3867  044C  1283               	bcf	3,5	;RP0=0, select bank0
  3868  044D  1303               	bcf	3,6	;RP1=0, select bank0
  3869  044E  083B               	movf	_g_Heater_state_t,w
  3870  044F  00D8               	movwf	??_Heater_Display_Task
  3871  0450  01D9               	clrf	??_Heater_Display_Task+1
  3872                           
  3873                           ; Switch on 2 bytes has been partitioned into a top level switch of size 1, and 1 sub-sw
      +                          itches
  3874                           ; Switch size 1, requested type "simple"
  3875                           ; Number of cases is 1, Range of values is 0 to 0
  3876                           ; switch strategies available:
  3877                           ; Name         Instructions Cycles
  3878                           ; simple_byte            4     3 (average)
  3879                           ; direct_byte           11     8 (fixed)
  3880                           ; jumptable            260     6 (fixed)
  3881                           ;	Chosen strategy is simple_byte
  3882  0451  0859               	movf	??_Heater_Display_Task+1,w
  3883  0452  3A00               	xorlw	0	; case 0
  3884  0453  1903               	skipnz
  3885  0454  2C56               	goto	l4742
  3886  0455  2C61               	goto	l411
  3887  0456                     l4742:	
  3888                           
  3889                           ; Switch size 1, requested type "simple"
  3890                           ; Number of cases is 3, Range of values is 0 to 2
  3891                           ; switch strategies available:
  3892                           ; Name         Instructions Cycles
  3893                           ; simple_byte           10     6 (average)
  3894                           ; direct_byte           17     8 (fixed)
  3895                           ; jumptable            260     6 (fixed)
  3896                           ;	Chosen strategy is simple_byte
  3897  0456  0858               	movf	??_Heater_Display_Task,w
  3898  0457  3A00               	xorlw	0	; case 0
  3899  0458  1903               	skipnz
  3900  0459  2C61               	goto	l411
  3901  045A  3A01               	xorlw	1	; case 1
  3902  045B  1903               	skipnz
  3903  045C  2B86               	goto	l3902
  3904  045D  3A03               	xorlw	3	; case 2
  3905  045E  1903               	skipnz
  3906  045F  2BE2               	goto	l3912
  3907  0460  2C61               	goto	l411
  3908  0461                     l411:	
  3909  0461  0008               	return
  3910  0462                     __end_of_Heater_Display_Task:	
  3911                           
  3912                           	psect	text16
  3913  0C03                     __ptext16:	
  3914 ;; *************** function _initialization_Tasks *****************
  3915 ;; Defined at:
  3916 ;;		line 52 in file "main.c"
  3917 ;; Parameters:    Size  Location     Type
  3918 ;;		None
  3919 ;; Auto vars:     Size  Location     Type
  3920 ;;		None
  3921 ;; Return value:  Size  Location     Type
  3922 ;;                  1    wreg      void 
  3923 ;; Registers used:
  3924 ;;		wreg, fsr0l, fsr0h, status,2, status,0, pclath, cstack
  3925 ;; Tracked objects:
  3926 ;;		On entry : 0/0
  3927 ;;		On exit  : 0/0
  3928 ;;		Unchanged: 0/0
  3929 ;; Data sizes:     COMMON   BANK0   BANK1   BANK3   BANK2
  3930 ;;      Params:         0       0       0       0       0
  3931 ;;      Locals:         0       0       0       0       0
  3932 ;;      Temps:          0       1       0       0       0
  3933 ;;      Totals:         0       1       0       0       0
  3934 ;;Total ram usage:        1 bytes
  3935 ;; Hardware stack levels used:    1
  3936 ;; Hardware stack levels required when called:    5
  3937 ;; This function calls:
  3938 ;;		_Scheduler_StartFunction
  3939 ;; This function is called by:
  3940 ;;		_main
  3941 ;;		_Scheduler_Dispatcher
  3942 ;; This function uses a non-reentrant model
  3943 ;;
  3944                           
  3945                           
  3946                           ;psect for function _initialization_Tasks
  3947  0C03                     _initialization_Tasks:	
  3948  0C03                     l4114:	
  3949                           ;incstack = 0
  3950                           ; Regs used in _initialization_Tasks: [wreg-fsr0h+status,2+status,0+pclath+cstack]
  3951                           
  3952                           
  3953                           ;main.c: 55:     Scheduler_StartFunction(Heater_On_Off_Button_Task , 1 , 10 , 0 , REPEAT
      +                          );
  3954  0C03  1283               	bcf	3,5	;RP0=0, select bank0
  3955  0C04  1303               	bcf	3,6	;RP1=0, select bank0
  3956  0C05  01BF               	clrf	Scheduler_StartFunction@a_u8_task_ID
  3957  0C06  0ABF               	incf	Scheduler_StartFunction@a_u8_task_ID,f
  3958  0C07  300A               	movlw	10
  3959  0C08  00C0               	movwf	Scheduler_StartFunction@a_u16_task_periodicity
  3960  0C09  3000               	movlw	0
  3961  0C0A  00C1               	movwf	Scheduler_StartFunction@a_u16_task_periodicity+1
  3962  0C0B  3000               	movlw	0
  3963  0C0C  00C2               	movwf	Scheduler_StartFunction@a_u16_task_start_time
  3964  0C0D  00C3               	movwf	Scheduler_StartFunction@a_u16_task_start_time+1
  3965  0C0E  01C4               	clrf	Scheduler_StartFunction@Enum_Task_RepeatType
  3966  0C0F  0AC4               	incf	Scheduler_StartFunction@Enum_Task_RepeatType,f
  3967  0C10  3011               	movlw	(low (fp__Heater_On_Off_Button_Task-fpbase))& (0+255)
  3968  0C11  120A  158A  26B3  120A  158A  	fcall	_Scheduler_StartFunction
  3969                           
  3970                           ;main.c: 57:     Scheduler_StartFunction(Heater_Up_Down_Buttons_Task , 2 , 10 , 1 , REPE
      +                          AT);
  3971  0C16  3002               	movlw	2
  3972  0C17  1283               	bcf	3,5	;RP0=0, select bank0
  3973  0C18  1303               	bcf	3,6	;RP1=0, select bank0
  3974  0C19  00CE               	movwf	??_initialization_Tasks
  3975  0C1A  084E               	movf	??_initialization_Tasks,w
  3976  0C1B  00BF               	movwf	Scheduler_StartFunction@a_u8_task_ID
  3977  0C1C  300A               	movlw	10
  3978  0C1D  00C0               	movwf	Scheduler_StartFunction@a_u16_task_periodicity
  3979  0C1E  3000               	movlw	0
  3980  0C1F  00C1               	movwf	Scheduler_StartFunction@a_u16_task_periodicity+1
  3981  0C20  3001               	movlw	1
  3982  0C21  00C2               	movwf	Scheduler_StartFunction@a_u16_task_start_time
  3983  0C22  3000               	movlw	0
  3984  0C23  00C3               	movwf	Scheduler_StartFunction@a_u16_task_start_time+1
  3985  0C24  01C4               	clrf	Scheduler_StartFunction@Enum_Task_RepeatType
  3986  0C25  0AC4               	incf	Scheduler_StartFunction@Enum_Task_RepeatType,f
  3987  0C26  300E               	movlw	(low (fp__Heater_Up_Down_Buttons_Task-fpbase))& (0+255)
  3988  0C27  120A  158A  26B3  120A  158A  	fcall	_Scheduler_StartFunction
  3989                           
  3990                           ;main.c: 59:     Scheduler_StartFunction(Heater_Display_Task , 3 , 10 , 3 , REPEAT);
  3991  0C2C  3003               	movlw	3
  3992  0C2D  1283               	bcf	3,5	;RP0=0, select bank0
  3993  0C2E  1303               	bcf	3,6	;RP1=0, select bank0
  3994  0C2F  00CE               	movwf	??_initialization_Tasks
  3995  0C30  084E               	movf	??_initialization_Tasks,w
  3996  0C31  00BF               	movwf	Scheduler_StartFunction@a_u8_task_ID
  3997  0C32  300A               	movlw	10
  3998  0C33  00C0               	movwf	Scheduler_StartFunction@a_u16_task_periodicity
  3999  0C34  3000               	movlw	0
  4000  0C35  00C1               	movwf	Scheduler_StartFunction@a_u16_task_periodicity+1
  4001  0C36  3003               	movlw	3
  4002  0C37  00C2               	movwf	Scheduler_StartFunction@a_u16_task_start_time
  4003  0C38  3000               	movlw	0
  4004  0C39  00C3               	movwf	Scheduler_StartFunction@a_u16_task_start_time+1
  4005  0C3A  01C4               	clrf	Scheduler_StartFunction@Enum_Task_RepeatType
  4006  0C3B  0AC4               	incf	Scheduler_StartFunction@Enum_Task_RepeatType,f
  4007  0C3C  300B               	movlw	(low (fp__Heater_Display_Task-fpbase))& (0+255)
  4008  0C3D  120A  158A  26B3  120A  158A  	fcall	_Scheduler_StartFunction
  4009                           
  4010                           ;main.c: 61:     Scheduler_StartFunction(Heater_Reading_Temperature_Sensor_Task , 4 , 10
      +                          0 , 5 , REPEAT);
  4011  0C42  3004               	movlw	4
  4012  0C43  1283               	bcf	3,5	;RP0=0, select bank0
  4013  0C44  1303               	bcf	3,6	;RP1=0, select bank0
  4014  0C45  00CE               	movwf	??_initialization_Tasks
  4015  0C46  084E               	movf	??_initialization_Tasks,w
  4016  0C47  00BF               	movwf	Scheduler_StartFunction@a_u8_task_ID
  4017  0C48  3064               	movlw	100
  4018  0C49  00C0               	movwf	Scheduler_StartFunction@a_u16_task_periodicity
  4019  0C4A  3000               	movlw	0
  4020  0C4B  00C1               	movwf	Scheduler_StartFunction@a_u16_task_periodicity+1
  4021  0C4C  3005               	movlw	5
  4022  0C4D  00C2               	movwf	Scheduler_StartFunction@a_u16_task_start_time
  4023  0C4E  3000               	movlw	0
  4024  0C4F  00C3               	movwf	Scheduler_StartFunction@a_u16_task_start_time+1
  4025  0C50  01C4               	clrf	Scheduler_StartFunction@Enum_Task_RepeatType
  4026  0C51  0AC4               	incf	Scheduler_StartFunction@Enum_Task_RepeatType,f
  4027  0C52  3008               	movlw	(low (fp__Heater_Reading_Temperature_Sensor_Task-fpbase))& (0+255)
  4028  0C53  120A  158A  26B3  120A  158A  	fcall	_Scheduler_StartFunction
  4029                           
  4030                           ;main.c: 63:     Scheduler_StartFunction(Heater_Heating_Cooling_Task , 5 , 100 , 6 , REP
      +                          EAT);
  4031  0C58  3005               	movlw	5
  4032  0C59  1283               	bcf	3,5	;RP0=0, select bank0
  4033  0C5A  1303               	bcf	3,6	;RP1=0, select bank0
  4034  0C5B  00CE               	movwf	??_initialization_Tasks
  4035  0C5C  084E               	movf	??_initialization_Tasks,w
  4036  0C5D  00BF               	movwf	Scheduler_StartFunction@a_u8_task_ID
  4037  0C5E  3064               	movlw	100
  4038  0C5F  00C0               	movwf	Scheduler_StartFunction@a_u16_task_periodicity
  4039  0C60  3000               	movlw	0
  4040  0C61  00C1               	movwf	Scheduler_StartFunction@a_u16_task_periodicity+1
  4041  0C62  3006               	movlw	6
  4042  0C63  00C2               	movwf	Scheduler_StartFunction@a_u16_task_start_time
  4043  0C64  3000               	movlw	0
  4044  0C65  00C3               	movwf	Scheduler_StartFunction@a_u16_task_start_time+1
  4045  0C66  01C4               	clrf	Scheduler_StartFunction@Enum_Task_RepeatType
  4046  0C67  0AC4               	incf	Scheduler_StartFunction@Enum_Task_RepeatType,f
  4047  0C68  3005               	movlw	(low (fp__Heater_Heating_Cooling_Task-fpbase))& (0+255)
  4048  0C69  120A  158A  26B3  120A  158A  	fcall	_Scheduler_StartFunction
  4049                           
  4050                           ;main.c: 65:     Scheduler_StartFunction(Heater_LED_Task , 6 , 100 , 7 , REPEAT);
  4051  0C6E  3006               	movlw	6
  4052  0C6F  1283               	bcf	3,5	;RP0=0, select bank0
  4053  0C70  1303               	bcf	3,6	;RP1=0, select bank0
  4054  0C71  00CE               	movwf	??_initialization_Tasks
  4055  0C72  084E               	movf	??_initialization_Tasks,w
  4056  0C73  00BF               	movwf	Scheduler_StartFunction@a_u8_task_ID
  4057  0C74  3064               	movlw	100
  4058  0C75  00C0               	movwf	Scheduler_StartFunction@a_u16_task_periodicity
  4059  0C76  3000               	movlw	0
  4060  0C77  00C1               	movwf	Scheduler_StartFunction@a_u16_task_periodicity+1
  4061  0C78  3007               	movlw	7
  4062  0C79  00C2               	movwf	Scheduler_StartFunction@a_u16_task_start_time
  4063  0C7A  3000               	movlw	0
  4064  0C7B  00C3               	movwf	Scheduler_StartFunction@a_u16_task_start_time+1
  4065  0C7C  01C4               	clrf	Scheduler_StartFunction@Enum_Task_RepeatType
  4066  0C7D  0AC4               	incf	Scheduler_StartFunction@Enum_Task_RepeatType,f
  4067  0C7E  3002               	movlw	(low (fp__Heater_LED_Task-fpbase))& (0+255)
  4068  0C7F  120A  158A  26B3  120A  158A  	fcall	_Scheduler_StartFunction
  4069  0C84                     l663:	
  4070  0C84  0008               	return
  4071  0C85                     __end_of_initialization_Tasks:	
  4072                           
  4073                           	psect	text17
  4074  0EB3                     __ptext17:	
  4075 ;; *************** function _Scheduler_StartFunction *****************
  4076 ;; Defined at:
  4077 ;;		line 217 in file "scheduler.c"
  4078 ;; Parameters:    Size  Location     Type
  4079 ;;  task_functio    1    wreg     PTR FTN()void 
  4080 ;;		 -> initialization_Tasks(1), Heater_Reading_Temperature_Sensor_Task(1), Heater_Heating_Cooling_Task(1), Heater_LED_T
      +ask(1), 
  4081 ;;		 -> Heater_Up_Down_Buttons_Task(1), Heater_On_Off_Button_Task(1), Heater_Display_Task(1), 
  4082 ;;  a_u8_task_ID    1    0[BANK0 ] unsigned char 
  4083 ;;  a_u16_task_p    2    1[BANK0 ] unsigned short 
  4084 ;;  a_u16_task_s    2    3[BANK0 ] unsigned short 
  4085 ;;  Enum_Task_Re    1    5[BANK0 ] enum E11
  4086 ;; Auto vars:     Size  Location     Type
  4087 ;;  task_functio    1   12[BANK0 ] PTR FTN()void 
  4088 ;;		 -> initialization_Tasks(1), Heater_Reading_Temperature_Sensor_Task(1), Heater_Heating_Cooling_Task(1), Heater_LED_T
      +ask(1), 
  4089 ;;		 -> Heater_Up_Down_Buttons_Task(1), Heater_On_Off_Button_Task(1), Heater_Display_Task(1), 
  4090 ;;  Counter         2   13[BANK0 ] unsigned short 
  4091 ;;  starting_tas    1    0        enum E15
  4092 ;; Return value:  Size  Location     Type
  4093 ;;                  1    wreg      enum E57
  4094 ;; Registers used:
  4095 ;;		wreg, fsr0l, fsr0h, status,2, status,0, pclath, cstack
  4096 ;; Tracked objects:
  4097 ;;		On entry : 0/0
  4098 ;;		On exit  : 0/0
  4099 ;;		Unchanged: 0/0
  4100 ;; Data sizes:     COMMON   BANK0   BANK1   BANK3   BANK2
  4101 ;;      Params:         0       6       0       0       0
  4102 ;;      Locals:         0       4       0       0       0
  4103 ;;      Temps:          0       5       0       0       0
  4104 ;;      Totals:         0      15       0       0       0
  4105 ;;Total ram usage:       15 bytes
  4106 ;; Hardware stack levels used:    1
  4107 ;; Hardware stack levels required when called:    4
  4108 ;; This function calls:
  4109 ;;		_Timer1_enable_overflow_interrupt
  4110 ;; This function is called by:
  4111 ;;		_main
  4112 ;;		_initialization_Tasks
  4113 ;; This function uses a non-reentrant model
  4114 ;;
  4115                           
  4116                           
  4117                           ;psect for function _Scheduler_StartFunction
  4118  0EB3                     _Scheduler_StartFunction:	
  4119                           
  4120                           ;incstack = 0
  4121                           ; Regs used in _Scheduler_StartFunction: [wreg-fsr0h+status,2+status,0+pclath+cstack]
  4122                           ;Scheduler_StartFunction@task_function_ptr stored from wreg
  4123  0EB3  1283               	bcf	3,5	;RP0=0, select bank0
  4124  0EB4  1303               	bcf	3,6	;RP1=0, select bank0
  4125  0EB5  00CB               	movwf	Scheduler_StartFunction@task_function_ptr
  4126  0EB6                     l3614:	
  4127  0EB6                     l3616:	
  4128                           
  4129                           ;scheduler.c: 224:  Timer1_enable_overflow_interrupt();
  4130  0EB6  160A  118A  23F6  120A  158A  	fcall	_Timer1_enable_overflow_interrupt
  4131  0EBB                     l3618:	
  4132                           
  4133                           ;scheduler.c: 226:  for(uint16 Counter = 0 ; Counter < 10u ; Counter++)
  4134  0EBB  1283               	bcf	3,5	;RP0=0, select bank0
  4135  0EBC  1303               	bcf	3,6	;RP1=0, select bank0
  4136  0EBD  01CC               	clrf	Scheduler_StartFunction@Counter
  4137  0EBE  01CD               	clrf	Scheduler_StartFunction@Counter+1
  4138  0EBF                     l3624:	
  4139                           
  4140                           ;scheduler.c: 227:  {;scheduler.c: 228:   if(Scheduler_Tasks[Counter].Task_ID == 0)
  4141  0EBF  084C               	movf	Scheduler_StartFunction@Counter,w
  4142  0EC0  00C5               	movwf	??_Scheduler_StartFunction
  4143  0EC1  3002               	movlw	2
  4144  0EC2                     u4145:	
  4145  0EC2  1003               	clrc
  4146  0EC3  0DC5               	rlf	??_Scheduler_StartFunction,f
  4147  0EC4  3EFF               	addlw	-1
  4148  0EC5  1D03               	skipz
  4149  0EC6  2EC2               	goto	u4145
  4150  0EC7  1003               	clrc
  4151  0EC8  0D45               	rlf	??_Scheduler_StartFunction,w
  4152  0EC9  3EA0               	addlw	(low (_Scheduler_Tasks| 0))& (0+255)
  4153  0ECA  0084               	movwf	4
  4154  0ECB  1383               	bcf	3,7	;select IRP bank1
  4155  0ECC  0800               	movf	0,w
  4156  0ECD  1D03               	btfss	3,2
  4157  0ECE  2ED0               	goto	u4151
  4158  0ECF  2ED1               	goto	u4150
  4159  0ED0                     u4151:	
  4160  0ED0  2F44               	goto	l717
  4161  0ED1                     u4150:	
  4162  0ED1                     l3626:	
  4163                           
  4164                           ;scheduler.c: 229:   {;scheduler.c: 230:    Scheduler_Tasks[Counter].Task_ID = a_u8_task
      +                          _ID;
  4165  0ED1  083F               	movf	Scheduler_StartFunction@a_u8_task_ID,w
  4166  0ED2  00C5               	movwf	??_Scheduler_StartFunction
  4167  0ED3  084C               	movf	Scheduler_StartFunction@Counter,w
  4168  0ED4  00C6               	movwf	??_Scheduler_StartFunction+1
  4169  0ED5  3002               	movlw	2
  4170  0ED6                     u4165:	
  4171  0ED6  1003               	clrc
  4172  0ED7  0DC6               	rlf	??_Scheduler_StartFunction+1,f
  4173  0ED8  3EFF               	addlw	-1
  4174  0ED9  1D03               	skipz
  4175  0EDA  2ED6               	goto	u4165
  4176  0EDB  1003               	clrc
  4177  0EDC  0D46               	rlf	??_Scheduler_StartFunction+1,w
  4178  0EDD  3EA0               	addlw	(low (_Scheduler_Tasks| 0))& (0+255)
  4179  0EDE  0084               	movwf	4
  4180  0EDF  0845               	movf	??_Scheduler_StartFunction,w
  4181  0EE0  0080               	movwf	0
  4182                           
  4183                           ;scheduler.c: 231:    Scheduler_Tasks[Counter].Task_Periodicity = a_u16_task_periodicity
      +                          ;
  4184  0EE1  084C               	movf	Scheduler_StartFunction@Counter,w
  4185  0EE2  00C5               	movwf	??_Scheduler_StartFunction
  4186  0EE3  3002               	movlw	2
  4187  0EE4                     u4175:	
  4188  0EE4  1003               	clrc
  4189  0EE5  0DC5               	rlf	??_Scheduler_StartFunction,f
  4190  0EE6  3EFF               	addlw	-1
  4191  0EE7  1D03               	skipz
  4192  0EE8  2EE4               	goto	u4175
  4193  0EE9  1003               	clrc
  4194  0EEA  0D45               	rlf	??_Scheduler_StartFunction,w
  4195  0EEB  3EA3               	addlw	(low ((_Scheduler_Tasks| 0+3)))& (0+255)
  4196  0EEC  0084               	movwf	4
  4197  0EED  0840               	movf	Scheduler_StartFunction@a_u16_task_periodicity,w
  4198  0EEE  0080               	movwf	0
  4199  0EEF  0A84               	incf	4,f
  4200  0EF0  0841               	movf	Scheduler_StartFunction@a_u16_task_periodicity+1,w
  4201  0EF1  0080               	movwf	0
  4202                           
  4203                           ;scheduler.c: 232:    Scheduler_Tasks[Counter].Task_RepeatType = Enum_Task_RepeatType;
  4204  0EF2  0844               	movf	Scheduler_StartFunction@Enum_Task_RepeatType,w
  4205  0EF3  00C5               	movwf	??_Scheduler_StartFunction
  4206  0EF4  084C               	movf	Scheduler_StartFunction@Counter,w
  4207  0EF5  00C6               	movwf	??_Scheduler_StartFunction+1
  4208  0EF6  3002               	movlw	2
  4209  0EF7                     u4185:	
  4210  0EF7  1003               	clrc
  4211  0EF8  0DC6               	rlf	??_Scheduler_StartFunction+1,f
  4212  0EF9  3EFF               	addlw	-1
  4213  0EFA  1D03               	skipz
  4214  0EFB  2EF7               	goto	u4185
  4215  0EFC  1003               	clrc
  4216  0EFD  0D46               	rlf	??_Scheduler_StartFunction+1,w
  4217  0EFE  3EA5               	addlw	(low ((_Scheduler_Tasks| 0+5)))& (0+255)
  4218  0EFF  0084               	movwf	4
  4219  0F00  0845               	movf	??_Scheduler_StartFunction,w
  4220  0F01  0080               	movwf	0
  4221                           
  4222                           ;scheduler.c: 233:    Scheduler_Tasks[Counter].Task_ExecutionTime = a_u16_task_start_tim
      +                          e + g_u16_TickTimeCounter + 1;
  4223  0F02  082E               	movf	_g_u16_TickTimeCounter,w	;volatile
  4224  0F03  0742               	addwf	Scheduler_StartFunction@a_u16_task_start_time,w
  4225  0F04  00C5               	movwf	??_Scheduler_StartFunction
  4226  0F05  082F               	movf	_g_u16_TickTimeCounter+1,w	;volatile
  4227  0F06  1803               	skipnc
  4228  0F07  0A2F               	incf	_g_u16_TickTimeCounter+1,w	;volatile
  4229  0F08  0743               	addwf	Scheduler_StartFunction@a_u16_task_start_time+1,w
  4230  0F09  00C6               	movwf	??_Scheduler_StartFunction+1
  4231  0F0A  0845               	movf	??_Scheduler_StartFunction,w
  4232  0F0B  3E01               	addlw	1
  4233  0F0C  00C7               	movwf	??_Scheduler_StartFunction+2
  4234  0F0D  0846               	movf	??_Scheduler_StartFunction+1,w
  4235  0F0E  1803               	skipnc
  4236  0F0F  3E01               	addlw	1
  4237  0F10  3E00               	addlw	0
  4238  0F11  00C8               	movwf	??_Scheduler_StartFunction+3
  4239  0F12  084C               	movf	Scheduler_StartFunction@Counter,w
  4240  0F13  00C9               	movwf	??_Scheduler_StartFunction+4
  4241  0F14  3002               	movlw	2
  4242  0F15                     u4195:	
  4243  0F15  1003               	clrc
  4244  0F16  0DC9               	rlf	??_Scheduler_StartFunction+4,f
  4245  0F17  3EFF               	addlw	-1
  4246  0F18  1D03               	skipz
  4247  0F19  2F15               	goto	u4195
  4248  0F1A  1003               	clrc
  4249  0F1B  0D49               	rlf	??_Scheduler_StartFunction+4,w
  4250  0F1C  3EA1               	addlw	(low ((_Scheduler_Tasks| 0+1)))& (0+255)
  4251  0F1D  0084               	movwf	4
  4252  0F1E  0847               	movf	??_Scheduler_StartFunction+2,w
  4253  0F1F  0080               	movwf	0
  4254  0F20  0A84               	incf	4,f
  4255  0F21  0848               	movf	??_Scheduler_StartFunction+3,w
  4256  0F22  0080               	movwf	0
  4257                           
  4258                           ;scheduler.c: 234:    Scheduler_Tasks[Counter].Task_State = WAITING;
  4259  0F23  3002               	movlw	2
  4260  0F24  00C5               	movwf	??_Scheduler_StartFunction
  4261  0F25  084C               	movf	Scheduler_StartFunction@Counter,w
  4262  0F26  00C6               	movwf	??_Scheduler_StartFunction+1
  4263  0F27  3002               	movlw	2
  4264  0F28                     u4205:	
  4265  0F28  1003               	clrc
  4266  0F29  0DC6               	rlf	??_Scheduler_StartFunction+1,f
  4267  0F2A  3EFF               	addlw	-1
  4268  0F2B  1D03               	skipz
  4269  0F2C  2F28               	goto	u4205
  4270  0F2D  1003               	clrc
  4271  0F2E  0D46               	rlf	??_Scheduler_StartFunction+1,w
  4272  0F2F  3EA6               	addlw	(low ((_Scheduler_Tasks| 0+6)))& (0+255)
  4273  0F30  0084               	movwf	4
  4274  0F31  0845               	movf	??_Scheduler_StartFunction,w
  4275  0F32  0080               	movwf	0
  4276                           
  4277                           ;scheduler.c: 235:    Scheduler_Tasks[Counter].Task_Function = task_function_ptr;
  4278  0F33  084B               	movf	Scheduler_StartFunction@task_function_ptr,w
  4279  0F34  00C5               	movwf	??_Scheduler_StartFunction
  4280  0F35  084C               	movf	Scheduler_StartFunction@Counter,w
  4281  0F36  00C6               	movwf	??_Scheduler_StartFunction+1
  4282  0F37  3002               	movlw	2
  4283  0F38                     u4215:	
  4284  0F38  1003               	clrc
  4285  0F39  0DC6               	rlf	??_Scheduler_StartFunction+1,f
  4286  0F3A  3EFF               	addlw	-1
  4287  0F3B  1D03               	skipz
  4288  0F3C  2F38               	goto	u4215
  4289  0F3D  1003               	clrc
  4290  0F3E  0D46               	rlf	??_Scheduler_StartFunction+1,w
  4291  0F3F  3EA7               	addlw	(low ((_Scheduler_Tasks| 0+7)))& (0+255)
  4292  0F40  0084               	movwf	4
  4293  0F41  0845               	movf	??_Scheduler_StartFunction,w
  4294  0F42  0080               	movwf	0
  4295  0F43                     l3628:	
  4296                           
  4297                           ;scheduler.c: 237:    break;
  4298  0F43  2F53               	goto	l719
  4299  0F44                     l717:	
  4300                           ;scheduler.c: 239:   else
  4301                           
  4302  0F44                     l3632:	
  4303                           
  4304                           ;scheduler.c: 243:  }
  4305  0F44  3001               	movlw	1
  4306  0F45  07CC               	addwf	Scheduler_StartFunction@Counter,f
  4307  0F46  1803               	skipnc
  4308  0F47  0ACD               	incf	Scheduler_StartFunction@Counter+1,f
  4309  0F48  3000               	movlw	0
  4310  0F49  07CD               	addwf	Scheduler_StartFunction@Counter+1,f
  4311  0F4A  3000               	movlw	0
  4312  0F4B  024D               	subwf	Scheduler_StartFunction@Counter+1,w
  4313  0F4C  300A               	movlw	10
  4314  0F4D  1903               	skipnz
  4315  0F4E  024C               	subwf	Scheduler_StartFunction@Counter,w
  4316  0F4F  1C03               	skipc
  4317  0F50  2F52               	goto	u4221
  4318  0F51  2F53               	goto	u4220
  4319  0F52                     u4221:	
  4320  0F52  2EBF               	goto	l3624
  4321  0F53                     u4220:	
  4322  0F53                     l719:	
  4323  0F53  0008               	return
  4324  0F54                     __end_of_Scheduler_StartFunction:	
  4325                           
  4326                           	psect	text18
  4327  13F6                     __ptext18:	
  4328 ;; *************** function _Timer1_enable_overflow_interrupt *****************
  4329 ;; Defined at:
  4330 ;;		line 97 in file "interrupt.c"
  4331 ;; Parameters:    Size  Location     Type
  4332 ;;		None
  4333 ;; Auto vars:     Size  Location     Type
  4334 ;;		None
  4335 ;; Return value:  Size  Location     Type
  4336 ;;                  1    wreg      void 
  4337 ;; Registers used:
  4338 ;;		None
  4339 ;; Tracked objects:
  4340 ;;		On entry : 0/0
  4341 ;;		On exit  : 0/0
  4342 ;;		Unchanged: 0/0
  4343 ;; Data sizes:     COMMON   BANK0   BANK1   BANK3   BANK2
  4344 ;;      Params:         0       0       0       0       0
  4345 ;;      Locals:         0       0       0       0       0
  4346 ;;      Temps:          0       0       0       0       0
  4347 ;;      Totals:         0       0       0       0       0
  4348 ;;Total ram usage:        0 bytes
  4349 ;; Hardware stack levels used:    1
  4350 ;; Hardware stack levels required when called:    3
  4351 ;; This function calls:
  4352 ;;		Nothing
  4353 ;; This function is called by:
  4354 ;;		_Scheduler_StartFunction
  4355 ;; This function uses a non-reentrant model
  4356 ;;
  4357                           
  4358                           
  4359                           ;psect for function _Timer1_enable_overflow_interrupt
  4360  13F6                     _Timer1_enable_overflow_interrupt:	
  4361  13F6                     l3428:	
  4362                           ;incstack = 0
  4363                           ; Regs used in _Timer1_enable_overflow_interrupt: []
  4364                           
  4365                           
  4366                           ;interrupt.c: 99:     *(volatile uint8*)0x8C |= 1 << 0u;
  4367  13F6  1683               	bsf	3,5	;RP0=1, select bank1
  4368  13F7  1303               	bcf	3,6	;RP1=0, select bank1
  4369  13F8  140C               	bsf	12,0	;volatile
  4370  13F9                     l582:	
  4371  13F9  0008               	return
  4372  13FA                     __end_of_Timer1_enable_overflow_interrupt:	
  4373                           
  4374                           	psect	text19
  4375  16D5                     __ptext19:	
  4376 ;; *************** function ___lwdiv *****************
  4377 ;; Defined at:
  4378 ;;		line 5 in file "C:\Program Files (x86)\Microchip\xc8\v2.10\pic\sources\c90\common\lwdiv.c"
  4379 ;; Parameters:    Size  Location     Type
  4380 ;;  divisor         2    0[BANK0 ] unsigned int 
  4381 ;;  dividend        2    2[BANK0 ] unsigned int 
  4382 ;; Auto vars:     Size  Location     Type
  4383 ;;  quotient        2    5[BANK0 ] unsigned int 
  4384 ;;  counter         1    7[BANK0 ] unsigned char 
  4385 ;; Return value:  Size  Location     Type
  4386 ;;                  2    0[BANK0 ] unsigned int 
  4387 ;; Registers used:
  4388 ;;		wreg, status,2, status,0
  4389 ;; Tracked objects:
  4390 ;;		On entry : 0/0
  4391 ;;		On exit  : 0/0
  4392 ;;		Unchanged: 0/0
  4393 ;; Data sizes:     COMMON   BANK0   BANK1   BANK3   BANK2
  4394 ;;      Params:         0       4       0       0       0
  4395 ;;      Locals:         0       3       0       0       0
  4396 ;;      Temps:          0       1       0       0       0
  4397 ;;      Totals:         0       8       0       0       0
  4398 ;;Total ram usage:        8 bytes
  4399 ;; Hardware stack levels used:    1
  4400 ;; Hardware stack levels required when called:    3
  4401 ;; This function calls:
  4402 ;;		Nothing
  4403 ;; This function is called by:
  4404 ;;		_Heater_Reading_Temperature_Sensor_Task
  4405 ;; This function uses a non-reentrant model
  4406 ;;
  4407                           
  4408                           
  4409                           ;psect for function ___lwdiv
  4410  16D5                     ___lwdiv:	
  4411  16D5                     l3754:	
  4412                           ;incstack = 0
  4413                           ; Regs used in ___lwdiv: [wreg+status,2+status,0]
  4414                           
  4415  16D5  1283               	bcf	3,5	;RP0=0, select bank0
  4416  16D6  1303               	bcf	3,6	;RP1=0, select bank0
  4417  16D7  01C4               	clrf	___lwdiv@quotient
  4418  16D8  01C5               	clrf	___lwdiv@quotient+1
  4419  16D9                     l3756:	
  4420  16D9  083F               	movf	___lwdiv@divisor,w
  4421  16DA  0440               	iorwf	___lwdiv@divisor+1,w
  4422  16DB  1903               	btfsc	3,2
  4423  16DC  2EDE               	goto	u4501
  4424  16DD  2EDF               	goto	u4500
  4425  16DE                     u4501:	
  4426  16DE  2F16               	goto	l3776
  4427  16DF                     u4500:	
  4428  16DF                     l3758:	
  4429  16DF  01C6               	clrf	___lwdiv@counter
  4430  16E0  0AC6               	incf	___lwdiv@counter,f
  4431  16E1  2EED               	goto	l3764
  4432  16E2                     l3760:	
  4433  16E2  3001               	movlw	1
  4434  16E3                     u4515:	
  4435  16E3  1003               	clrc
  4436  16E4  0DBF               	rlf	___lwdiv@divisor,f
  4437  16E5  0DC0               	rlf	___lwdiv@divisor+1,f
  4438  16E6  3EFF               	addlw	-1
  4439  16E7  1D03               	skipz
  4440  16E8  2EE3               	goto	u4515
  4441  16E9                     l3762:	
  4442  16E9  3001               	movlw	1
  4443  16EA  00C3               	movwf	??___lwdiv
  4444  16EB  0843               	movf	??___lwdiv,w
  4445  16EC  07C6               	addwf	___lwdiv@counter,f
  4446  16ED                     l3764:	
  4447  16ED  1FC0               	btfss	___lwdiv@divisor+1,7
  4448  16EE  2EF0               	goto	u4521
  4449  16EF  2EF1               	goto	u4520
  4450  16F0                     u4521:	
  4451  16F0  2EE2               	goto	l3760
  4452  16F1                     u4520:	
  4453  16F1                     l3766:	
  4454  16F1  3001               	movlw	1
  4455  16F2                     u4535:	
  4456  16F2  1003               	clrc
  4457  16F3  0DC4               	rlf	___lwdiv@quotient,f
  4458  16F4  0DC5               	rlf	___lwdiv@quotient+1,f
  4459  16F5  3EFF               	addlw	-1
  4460  16F6  1D03               	skipz
  4461  16F7  2EF2               	goto	u4535
  4462  16F8  0840               	movf	___lwdiv@divisor+1,w
  4463  16F9  0242               	subwf	___lwdiv@dividend+1,w
  4464  16FA  1D03               	skipz
  4465  16FB  2EFE               	goto	u4545
  4466  16FC  083F               	movf	___lwdiv@divisor,w
  4467  16FD  0241               	subwf	___lwdiv@dividend,w
  4468  16FE                     u4545:	
  4469  16FE  1C03               	skipc
  4470  16FF  2F01               	goto	u4541
  4471  1700  2F02               	goto	u4540
  4472  1701                     u4541:	
  4473  1701  2F09               	goto	l3772
  4474  1702                     u4540:	
  4475  1702                     l3768:	
  4476  1702  083F               	movf	___lwdiv@divisor,w
  4477  1703  02C1               	subwf	___lwdiv@dividend,f
  4478  1704  0840               	movf	___lwdiv@divisor+1,w
  4479  1705  1C03               	skipc
  4480  1706  03C2               	decf	___lwdiv@dividend+1,f
  4481  1707  02C2               	subwf	___lwdiv@dividend+1,f
  4482  1708                     l3770:	
  4483  1708  1444               	bsf	___lwdiv@quotient,0
  4484  1709                     l3772:	
  4485  1709  3001               	movlw	1
  4486  170A                     u4555:	
  4487  170A  1003               	clrc
  4488  170B  0CC0               	rrf	___lwdiv@divisor+1,f
  4489  170C  0CBF               	rrf	___lwdiv@divisor,f
  4490  170D  3EFF               	addlw	-1
  4491  170E  1D03               	skipz
  4492  170F  2F0A               	goto	u4555
  4493  1710                     l3774:	
  4494  1710  3001               	movlw	1
  4495  1711  02C6               	subwf	___lwdiv@counter,f
  4496  1712  1D03               	btfss	3,2
  4497  1713  2F15               	goto	u4561
  4498  1714  2F16               	goto	u4560
  4499  1715                     u4561:	
  4500  1715  2EF1               	goto	l3766
  4501  1716                     u4560:	
  4502  1716                     l3776:	
  4503  1716  0845               	movf	___lwdiv@quotient+1,w
  4504  1717  00C0               	movwf	?___lwdiv+1
  4505  1718  0844               	movf	___lwdiv@quotient,w
  4506  1719  00BF               	movwf	?___lwdiv
  4507  171A                     l1166:	
  4508  171A  0008               	return
  4509  171B                     __end_of___lwdiv:	
  4510                           
  4511                           	psect	text20
  4512  1441                     __ptext20:	
  4513 ;; *************** function _ADC_Start_conversion *****************
  4514 ;; Defined at:
  4515 ;;		line 267 in file "ADC.c"
  4516 ;; Parameters:    Size  Location     Type
  4517 ;;		None
  4518 ;; Auto vars:     Size  Location     Type
  4519 ;;		None
  4520 ;; Return value:  Size  Location     Type
  4521 ;;                  1    wreg      void 
  4522 ;; Registers used:
  4523 ;;		wreg, status,2, status,0
  4524 ;; Tracked objects:
  4525 ;;		On entry : 0/0
  4526 ;;		On exit  : 0/0
  4527 ;;		Unchanged: 0/0
  4528 ;; Data sizes:     COMMON   BANK0   BANK1   BANK3   BANK2
  4529 ;;      Params:         0       0       0       0       0
  4530 ;;      Locals:         0       0       0       0       0
  4531 ;;      Temps:          0       1       0       0       0
  4532 ;;      Totals:         0       1       0       0       0
  4533 ;;Total ram usage:        1 bytes
  4534 ;; Hardware stack levels used:    1
  4535 ;; Hardware stack levels required when called:    3
  4536 ;; This function calls:
  4537 ;;		Nothing
  4538 ;; This function is called by:
  4539 ;;		_Heater_Reading_Temperature_Sensor_Task
  4540 ;; This function uses a non-reentrant model
  4541 ;;
  4542                           
  4543                           
  4544                           ;psect for function _ADC_Start_conversion
  4545  1441                     _ADC_Start_conversion:	
  4546  1441                     l3468:	
  4547                           ;incstack = 0
  4548                           ; Regs used in _ADC_Start_conversion: [wreg+status,2+status,0]
  4549                           
  4550  1441                     l3470:	
  4551                           ;ADC.c: 269:     while(((*(volatile uint8*)0x1F >> 2u) & 0x01));
  4552                           
  4553  1441  1283               	bcf	3,5	;RP0=0, select bank0
  4554  1442  1303               	bcf	3,6	;RP1=0, select bank0
  4555  1443  081F               	movf	31,w	;volatile
  4556  1444  00BF               	movwf	??_ADC_Start_conversion
  4557  1445  3002               	movlw	2
  4558  1446                     u3955:	
  4559  1446  1003               	clrc
  4560  1447  0CBF               	rrf	??_ADC_Start_conversion,f
  4561  1448  3EFF               	addlw	-1
  4562  1449  1D03               	skipz
  4563  144A  2C46               	goto	u3955
  4564  144B  183F               	btfsc	??_ADC_Start_conversion,0
  4565  144C  2C4E               	goto	u3961
  4566  144D  2C4F               	goto	u3960
  4567  144E                     u3961:	
  4568  144E  2C41               	goto	l3470
  4569  144F                     u3960:	
  4570  144F                     l64:	
  4571                           
  4572                           ;ADC.c: 270:     *(volatile uint8*)0x1F |= 1 << 2u;
  4573  144F  151F               	bsf	31,2	;volatile
  4574  1450                     l65:	
  4575  1450  0008               	return
  4576  1451                     __end_of_ADC_Start_conversion:	
  4577                           
  4578                           	psect	text21
  4579  1763                     __ptext21:	
  4580 ;; *************** function _ADC_Read_value *****************
  4581 ;; Defined at:
  4582 ;;		line 237 in file "ADC.c"
  4583 ;; Parameters:    Size  Location     Type
  4584 ;;		None
  4585 ;; Auto vars:     Size  Location     Type
  4586 ;;  retVal          2    9[BANK0 ] unsigned short 
  4587 ;; Return value:  Size  Location     Type
  4588 ;;                  2    0[BANK0 ] unsigned short 
  4589 ;; Registers used:
  4590 ;;		wreg, status,2, status,0
  4591 ;; Tracked objects:
  4592 ;;		On entry : 0/0
  4593 ;;		On exit  : 0/0
  4594 ;;		Unchanged: 0/0
  4595 ;; Data sizes:     COMMON   BANK0   BANK1   BANK3   BANK2
  4596 ;;      Params:         0       2       0       0       0
  4597 ;;      Locals:         0       2       0       0       0
  4598 ;;      Temps:          0       7       0       0       0
  4599 ;;      Totals:         0      11       0       0       0
  4600 ;;Total ram usage:       11 bytes
  4601 ;; Hardware stack levels used:    1
  4602 ;; Hardware stack levels required when called:    3
  4603 ;; This function calls:
  4604 ;;		Nothing
  4605 ;; This function is called by:
  4606 ;;		_Heater_Reading_Temperature_Sensor_Task
  4607 ;; This function uses a non-reentrant model
  4608 ;;
  4609                           
  4610                           
  4611                           ;psect for function _ADC_Read_value
  4612  1763                     _ADC_Read_value:	
  4613  1763                     l3454:	
  4614                           ;incstack = 0
  4615                           ; Regs used in _ADC_Read_value: [wreg+status,2+status,0]
  4616                           
  4617  1763                     l3456:	
  4618                           ;ADC.c: 241:     while((((*(volatile uint8*)0x1F >> 2u) & 0x01)));
  4619                           
  4620  1763  1283               	bcf	3,5	;RP0=0, select bank0
  4621  1764  1303               	bcf	3,6	;RP1=0, select bank0
  4622  1765  081F               	movf	31,w	;volatile
  4623  1766  00C1               	movwf	??_ADC_Read_value
  4624  1767  3002               	movlw	2
  4625  1768                     u3905:	
  4626  1768  1003               	clrc
  4627  1769  0CC1               	rrf	??_ADC_Read_value,f
  4628  176A  3EFF               	addlw	-1
  4629  176B  1D03               	skipz
  4630  176C  2F68               	goto	u3905
  4631  176D  1841               	btfsc	??_ADC_Read_value,0
  4632  176E  2F70               	goto	u3911
  4633  176F  2F71               	goto	u3910
  4634  1770                     u3911:	
  4635  1770  2F63               	goto	l3456
  4636  1771                     u3910:	
  4637  1771                     l3458:	
  4638                           
  4639                           ;ADC.c: 243:     if(((*(volatile uint8*)0x9F >> 7u) & 0x01))
  4640  1771  1683               	bsf	3,5	;RP0=1, select bank1
  4641  1772  1303               	bcf	3,6	;RP1=0, select bank1
  4642  1773  081F               	movf	31,w	;volatile
  4643  1774  1283               	bcf	3,5	;RP0=0, select bank0
  4644  1775  1303               	bcf	3,6	;RP1=0, select bank0
  4645  1776  00C1               	movwf	??_ADC_Read_value
  4646  1777  3007               	movlw	7
  4647  1778                     u3925:	
  4648  1778  1003               	clrc
  4649  1779  0CC1               	rrf	??_ADC_Read_value,f
  4650  177A  3EFF               	addlw	-1
  4651  177B  1D03               	skipz
  4652  177C  2F78               	goto	u3925
  4653  177D  1C41               	btfss	??_ADC_Read_value,0
  4654  177E  2F80               	goto	u3931
  4655  177F  2F81               	goto	u3930
  4656  1780                     u3931:	
  4657  1780  2F8A               	goto	l3462
  4658  1781                     u3930:	
  4659  1781                     l3460:	
  4660                           
  4661                           ;ADC.c: 244:     {;ADC.c: 246:         retVal = (uint16)*(volatile uint8*)0x1E << 8 | *(
      +                          volatile uint8*)0x9E;
  4662  1781  081E               	movf	30,w	;volatile
  4663  1782  00C9               	movwf	ADC_Read_value@retVal+1
  4664  1783  1683               	bsf	3,5	;RP0=1, select bank1
  4665  1784  1303               	bcf	3,6	;RP1=0, select bank1
  4666  1785  081E               	movf	30,w	;volatile
  4667  1786  1283               	bcf	3,5	;RP0=0, select bank0
  4668  1787  1303               	bcf	3,6	;RP1=0, select bank0
  4669  1788  00C8               	movwf	ADC_Read_value@retVal
  4670                           
  4671                           ;ADC.c: 247:     }
  4672  1789  2FAC               	goto	l3464
  4673  178A                     l3462:	
  4674                           
  4675                           ;ADC.c: 249:     {;ADC.c: 251:         retVal = (uint16)*(volatile uint8*)0x1E << 2 | *(
      +                          volatile uint8*)0x9E >> 6;
  4676  178A  1683               	bsf	3,5	;RP0=1, select bank1
  4677  178B  1303               	bcf	3,6	;RP1=0, select bank1
  4678  178C  081E               	movf	30,w	;volatile
  4679  178D  1283               	bcf	3,5	;RP0=0, select bank0
  4680  178E  1303               	bcf	3,6	;RP1=0, select bank0
  4681  178F  00C1               	movwf	??_ADC_Read_value
  4682  1790  3006               	movlw	6
  4683  1791                     u3945:	
  4684  1791  1003               	clrc
  4685  1792  0CC1               	rrf	??_ADC_Read_value,f
  4686  1793  3EFF               	addlw	-1
  4687  1794  1D03               	skipz
  4688  1795  2F91               	goto	u3945
  4689  1796  0841               	movf	??_ADC_Read_value,w
  4690  1797  00C2               	movwf	??_ADC_Read_value+1
  4691  1798  01C3               	clrf	??_ADC_Read_value+2
  4692  1799  081E               	movf	30,w	;volatile
  4693  179A  00C4               	movwf	??_ADC_Read_value+3
  4694  179B  01C5               	clrf	??_ADC_Read_value+4
  4695  179C  1003               	clrc
  4696  179D  0DC4               	rlf	??_ADC_Read_value+3,f
  4697  179E  0DC5               	rlf	??_ADC_Read_value+4,f
  4698  179F  1003               	clrc
  4699  17A0  0DC4               	rlf	??_ADC_Read_value+3,f
  4700  17A1  0DC5               	rlf	??_ADC_Read_value+4,f
  4701  17A2  0842               	movf	??_ADC_Read_value+1,w
  4702  17A3  0444               	iorwf	??_ADC_Read_value+3,w
  4703  17A4  00C6               	movwf	??_ADC_Read_value+5
  4704  17A5  0843               	movf	??_ADC_Read_value+2,w
  4705  17A6  0445               	iorwf	??_ADC_Read_value+4,w
  4706  17A7  00C7               	movwf	??_ADC_Read_value+6
  4707  17A8  0846               	movf	??_ADC_Read_value+5,w
  4708  17A9  00C8               	movwf	ADC_Read_value@retVal
  4709  17AA  0847               	movf	??_ADC_Read_value+6,w
  4710  17AB  00C9               	movwf	ADC_Read_value@retVal+1
  4711  17AC                     l3464:	
  4712                           
  4713                           ;ADC.c: 253:     return retVal;
  4714  17AC  0849               	movf	ADC_Read_value@retVal+1,w
  4715  17AD  00C0               	movwf	?_ADC_Read_value+1
  4716  17AE  0848               	movf	ADC_Read_value@retVal,w
  4717  17AF  00BF               	movwf	?_ADC_Read_value
  4718  17B0                     l59:	
  4719  17B0  0008               	return
  4720  17B1                     __end_of_ADC_Read_value:	
  4721                           
  4722                           	psect	text22
  4723  15C4                     __ptext22:	
  4724 ;; *************** function _Heater_turn_off *****************
  4725 ;; Defined at:
  4726 ;;		line 152 in file "heater.c"
  4727 ;; Parameters:    Size  Location     Type
  4728 ;;		None
  4729 ;; Auto vars:     Size  Location     Type
  4730 ;;		None
  4731 ;; Return value:  Size  Location     Type
  4732 ;;                  1    wreg      void 
  4733 ;; Registers used:
  4734 ;;		wreg, fsr0l, fsr0h, status,2, status,0, pclath, cstack
  4735 ;; Tracked objects:
  4736 ;;		On entry : 0/0
  4737 ;;		On exit  : 0/0
  4738 ;;		Unchanged: 0/0
  4739 ;; Data sizes:     COMMON   BANK0   BANK1   BANK3   BANK2
  4740 ;;      Params:         0       0       0       0       0
  4741 ;;      Locals:         0       0       0       0       0
  4742 ;;      Temps:          0       1       0       0       0
  4743 ;;      Totals:         0       1       0       0       0
  4744 ;;Total ram usage:        1 bytes
  4745 ;; Hardware stack levels used:    1
  4746 ;; Hardware stack levels required when called:    5
  4747 ;; This function calls:
  4748 ;;		_GPIO_WriteOnPin
  4749 ;;		_SevenSegment_SelectChip
  4750 ;; This function is called by:
  4751 ;;		_Heater_On_Off_Button_Task
  4752 ;; This function uses a non-reentrant model
  4753 ;;
  4754                           
  4755                           
  4756                           ;psect for function _Heater_turn_off
  4757  15C4                     _Heater_turn_off:	
  4758  15C4                     l3586:	
  4759                           ;incstack = 0
  4760                           ; Regs used in _Heater_turn_off: [wreg-fsr0h+status,2+status,0+pclath+cstack]
  4761                           
  4762                           
  4763                           ;heater.c: 155:     SevenSegment_SelectChip(SEVEN_SEGMENT_DISABLE_CHIP , SEVEN_SEGMENT_D
      +                          ISABLE_CHIP ,
  4764  15C4  1283               	bcf	3,5	;RP0=0, select bank0
  4765  15C5  1303               	bcf	3,6	;RP1=0, select bank0
  4766  15C6  01C5               	clrf	SevenSegment_SelectChip@a_Chip2
  4767  15C7  0AC5               	incf	SevenSegment_SelectChip@a_Chip2,f
  4768  15C8  01C6               	clrf	SevenSegment_SelectChip@a_Chip3
  4769  15C9  0AC6               	incf	SevenSegment_SelectChip@a_Chip3,f
  4770  15CA  01C7               	clrf	SevenSegment_SelectChip@a_Chip4
  4771  15CB  0AC7               	incf	SevenSegment_SelectChip@a_Chip4,f
  4772  15CC  3001               	movlw	1
  4773  15CD  120A  118A  26B2  160A  118A  	fcall	_SevenSegment_SelectChip
  4774                           
  4775                           ;heater.c: 158:     GPIO_WriteOnPin(2u , 2u , 0u);
  4776  15D2  3002               	movlw	2
  4777  15D3  1283               	bcf	3,5	;RP0=0, select bank0
  4778  15D4  1303               	bcf	3,6	;RP1=0, select bank0
  4779  15D5  00CA               	movwf	??_Heater_turn_off
  4780  15D6  084A               	movf	??_Heater_turn_off,w
  4781  15D7  00BF               	movwf	GPIO_WriteOnPin@a_u8pin
  4782  15D8  01C0               	clrf	GPIO_WriteOnPin@a_u8value
  4783  15D9  3002               	movlw	2
  4784  15DA  120A  118A  2277  160A  118A  	fcall	_GPIO_WriteOnPin
  4785                           
  4786                           ;heater.c: 160:     GPIO_WriteOnPin(2u , 5u , 0u);
  4787  15DF  3005               	movlw	5
  4788  15E0  1283               	bcf	3,5	;RP0=0, select bank0
  4789  15E1  1303               	bcf	3,6	;RP1=0, select bank0
  4790  15E2  00CA               	movwf	??_Heater_turn_off
  4791  15E3  084A               	movf	??_Heater_turn_off,w
  4792  15E4  00BF               	movwf	GPIO_WriteOnPin@a_u8pin
  4793  15E5  01C0               	clrf	GPIO_WriteOnPin@a_u8value
  4794  15E6  3002               	movlw	2
  4795  15E7  120A  118A  2277  160A  118A  	fcall	_GPIO_WriteOnPin
  4796                           
  4797                           ;heater.c: 162:     GPIO_WriteOnPin(1u , 7u , 0u);
  4798  15EC  3007               	movlw	7
  4799  15ED  1283               	bcf	3,5	;RP0=0, select bank0
  4800  15EE  1303               	bcf	3,6	;RP1=0, select bank0
  4801  15EF  00CA               	movwf	??_Heater_turn_off
  4802  15F0  084A               	movf	??_Heater_turn_off,w
  4803  15F1  00BF               	movwf	GPIO_WriteOnPin@a_u8pin
  4804  15F2  01C0               	clrf	GPIO_WriteOnPin@a_u8value
  4805  15F3  3001               	movlw	1
  4806  15F4  120A  118A  2277  160A  118A  	fcall	_GPIO_WriteOnPin
  4807  15F9                     l3588:	
  4808                           
  4809                           ;heater.c: 164:     g_u8Sync_flag = 0;
  4810  15F9  1283               	bcf	3,5	;RP0=0, select bank0
  4811  15FA  1303               	bcf	3,6	;RP1=0, select bank0
  4812  15FB  01BA               	clrf	_g_u8Sync_flag
  4813  15FC                     l3590:	
  4814                           
  4815                           ;heater.c: 165:     g_u16Sum_of_ten_readings = 0;
  4816  15FC  01B0               	clrf	_g_u16Sum_of_ten_readings
  4817  15FD  01B1               	clrf	_g_u16Sum_of_ten_readings+1
  4818  15FE                     l3592:	
  4819                           
  4820                           ;heater.c: 166:     g_u8Reading_counter = 0;
  4821  15FE  01B8               	clrf	_g_u8Reading_counter
  4822  15FF                     l3594:	
  4823                           
  4824                           ;heater.c: 167:     g_u8Reading_deleted_element = 0;
  4825  15FF  01B7               	clrf	_g_u8Reading_deleted_element
  4826  1600                     l3596:	
  4827                           
  4828                           ;heater.c: 168:     g_u8Display_blank_counter = 0;
  4829  1600  01B6               	clrf	_g_u8Display_blank_counter
  4830  1601                     l3598:	
  4831                           
  4832                           ;heater.c: 169:     g_u8End_setup_state = 0;
  4833  1601  01B5               	clrf	_g_u8End_setup_state
  4834  1602                     l3600:	
  4835                           
  4836                           ;heater.c: 170:     g_u8Led_blank_counter = 0;
  4837  1602  01B4               	clrf	_g_u8Led_blank_counter
  4838  1603                     l3602:	
  4839                           
  4840                           ;heater.c: 172:     g_Heater_state_t = HEATER_OFF_STATE;
  4841  1603  01BB               	clrf	_g_Heater_state_t
  4842  1604                     l389:	
  4843  1604  0008               	return
  4844  1605                     __end_of_Heater_turn_off:	
  4845                           
  4846                           	psect	text23
  4847  168F                     __ptext23:	
  4848 ;; *************** function _EEPROM_Read_Byte *****************
  4849 ;; Defined at:
  4850 ;;		line 79 in file "EEPROM24c04.c"
  4851 ;; Parameters:    Size  Location     Type
  4852 ;;  a_u16Locatio    2    8[BANK0 ] unsigned short 
  4853 ;; Auto vars:     Size  Location     Type
  4854 ;;  u8_retVal       1   11[BANK0 ] unsigned char 
  4855 ;; Return value:  Size  Location     Type
  4856 ;;                  1    wreg      unsigned char 
  4857 ;; Registers used:
  4858 ;;		wreg, status,2, status,0, pclath, cstack
  4859 ;; Tracked objects:
  4860 ;;		On entry : 0/0
  4861 ;;		On exit  : 0/0
  4862 ;;		Unchanged: 0/0
  4863 ;; Data sizes:     COMMON   BANK0   BANK1   BANK3   BANK2
  4864 ;;      Params:         0       2       0       0       0
  4865 ;;      Locals:         0       1       0       0       0
  4866 ;;      Temps:          0       1       0       0       0
  4867 ;;      Totals:         0       4       0       0       0
  4868 ;;Total ram usage:        4 bytes
  4869 ;; Hardware stack levels used:    1
  4870 ;; Hardware stack levels required when called:    5
  4871 ;; This function calls:
  4872 ;;		_EEPROM_Save_Byte
  4873 ;;		_I2C_master_receive_data
  4874 ;;		_I2C_master_send_address
  4875 ;;		_I2C_master_send_data
  4876 ;;		_I2C_master_send_repeated_start_condition
  4877 ;;		_I2C_master_send_start_condition
  4878 ;;		_I2C_master_send_stop_condition
  4879 ;; This function is called by:
  4880 ;;		_Heater_On_Off_Button_Task
  4881 ;; This function uses a non-reentrant model
  4882 ;;
  4883                           
  4884                           
  4885                           ;psect for function _EEPROM_Read_Byte
  4886  168F                     _EEPROM_Read_Byte:	
  4887  168F                     l3490:	
  4888                           ;incstack = 0
  4889                           ; Regs used in _EEPROM_Read_Byte: [wreg+status,2+status,0+pclath+cstack]
  4890                           
  4891                           
  4892                           ;EEPROM24c04.c: 79: uint8 EEPROM_Read_Byte(uint16 a_u16Location);EEPROM24c04.c: 80: {;EE
      +                          PROM24c04.c: 82:     uint8 u8_retVal;;EEPROM24c04.c: 84:     I2C_master_send_start_condi
      +                          tion();
  4893  168F  160A  118A  2525  160A  118A  	fcall	_I2C_master_send_start_condition
  4894                           
  4895                           ;EEPROM24c04.c: 86:     I2C_master_send_address((0x50 | ((a_u16Location >> 8) & 0x0001))
      +                          , I2C_WRITE_OPERATION);
  4896  1694  1283               	bcf	3,5	;RP0=0, select bank0
  4897  1695  1303               	bcf	3,6	;RP1=0, select bank0
  4898  1696  01BF               	clrf	I2C_master_send_address@a_I2C_operaton_t
  4899  1697  0848               	movf	EEPROM_Read_Byte@a_u16Location+1,w
  4900  1698  3901               	andlw	1
  4901  1699  3850               	iorlw	80
  4902  169A  160A  118A  2584  160A  118A  	fcall	_I2C_master_send_address
  4903                           
  4904                           ;EEPROM24c04.c: 88:     I2C_master_send_data((uint8)(a_u16Location & 0x00FF));
  4905  169F  1283               	bcf	3,5	;RP0=0, select bank0
  4906  16A0  1303               	bcf	3,6	;RP1=0, select bank0
  4907  16A1  0847               	movf	EEPROM_Read_Byte@a_u16Location,w
  4908  16A2  160A  118A  24F8  160A  118A  	fcall	_I2C_master_send_data
  4909                           
  4910                           ;EEPROM24c04.c: 90:     I2C_master_send_repeated_start_condition();
  4911  16A7  160A  118A  2488  160A  118A  	fcall	_I2C_master_send_repeated_start_condition
  4912                           
  4913                           ;EEPROM24c04.c: 92:     I2C_master_send_address(0x50 , I2C_READ_OPERATION);
  4914  16AC  1283               	bcf	3,5	;RP0=0, select bank0
  4915  16AD  1303               	bcf	3,6	;RP1=0, select bank0
  4916  16AE  01BF               	clrf	I2C_master_send_address@a_I2C_operaton_t
  4917  16AF  0ABF               	incf	I2C_master_send_address@a_I2C_operaton_t,f
  4918  16B0  3050               	movlw	80
  4919  16B1  160A  118A  2584  160A  118A  	fcall	_I2C_master_send_address
  4920                           
  4921                           ;EEPROM24c04.c: 94:     u8_retVal = I2C_master_receive_data(I2C_SEND_NOT_ACK);
  4922  16B6  3001               	movlw	1
  4923  16B7  120A  158A  20BC  160A  118A  	fcall	_I2C_master_receive_data
  4924  16BC  1283               	bcf	3,5	;RP0=0, select bank0
  4925  16BD  1303               	bcf	3,6	;RP1=0, select bank0
  4926  16BE  00C9               	movwf	??_EEPROM_Read_Byte
  4927  16BF  0849               	movf	??_EEPROM_Read_Byte,w
  4928  16C0  00CA               	movwf	EEPROM_Read_Byte@u8_retVal
  4929                           
  4930                           ;EEPROM24c04.c: 96:     I2C_master_send_stop_condition();
  4931  16C1  160A  118A  2464  160A  118A  	fcall	_I2C_master_send_stop_condition
  4932                           
  4933                           ;EEPROM24c04.c: 98:     EEPROM_Save_Byte(0,0);
  4934  16C6  3000               	movlw	0
  4935  16C7  1283               	bcf	3,5	;RP0=0, select bank0
  4936  16C8  1303               	bcf	3,6	;RP1=0, select bank0
  4937  16C9  00C4               	movwf	EEPROM_Save_Byte@a_u16Location
  4938  16CA  00C5               	movwf	EEPROM_Save_Byte@a_u16Location+1
  4939  16CB  01C6               	clrf	EEPROM_Save_Byte@a_u8Data
  4940  16CC  160A  118A  24AC  160A  118A  	fcall	_EEPROM_Save_Byte
  4941  16D1                     l3492:	
  4942                           
  4943                           ;EEPROM24c04.c: 100:     return u8_retVal;
  4944  16D1  1283               	bcf	3,5	;RP0=0, select bank0
  4945  16D2  1303               	bcf	3,6	;RP1=0, select bank0
  4946  16D3  084A               	movf	EEPROM_Read_Byte@u8_retVal,w
  4947  16D4                     l99:	
  4948  16D4  0008               	return
  4949  16D5                     __end_of_EEPROM_Read_Byte:	
  4950                           
  4951                           	psect	text24
  4952  1488                     __ptext24:	
  4953 ;; *************** function _I2C_master_send_repeated_start_condition *****************
  4954 ;; Defined at:
  4955 ;;		line 143 in file "I2C.c"
  4956 ;; Parameters:    Size  Location     Type
  4957 ;;		None
  4958 ;; Auto vars:     Size  Location     Type
  4959 ;;		None
  4960 ;; Return value:  Size  Location     Type
  4961 ;;                  1    wreg      void 
  4962 ;; Registers used:
  4963 ;;		wreg, status,2, status,0
  4964 ;; Tracked objects:
  4965 ;;		On entry : 0/0
  4966 ;;		On exit  : 0/0
  4967 ;;		Unchanged: 0/0
  4968 ;; Data sizes:     COMMON   BANK0   BANK1   BANK3   BANK2
  4969 ;;      Params:         0       0       0       0       0
  4970 ;;      Locals:         0       0       0       0       0
  4971 ;;      Temps:          0       1       0       0       0
  4972 ;;      Totals:         0       1       0       0       0
  4973 ;;Total ram usage:        1 bytes
  4974 ;; Hardware stack levels used:    1
  4975 ;; Hardware stack levels required when called:    3
  4976 ;; This function calls:
  4977 ;;		Nothing
  4978 ;; This function is called by:
  4979 ;;		_EEPROM_Read_Byte
  4980 ;;		_EEPROM_Read_Array
  4981 ;; This function uses a non-reentrant model
  4982 ;;
  4983                           
  4984                           
  4985                           ;psect for function _I2C_master_send_repeated_start_condition
  4986  1488                     _I2C_master_send_repeated_start_condition:	
  4987  1488                     l3318:	
  4988                           ;incstack = 0
  4989                           ; Regs used in _I2C_master_send_repeated_start_condition: [wreg+status,2+status,0]
  4990                           
  4991                           
  4992                           ;I2C.c: 146:     *(volatile uint8*)0x91 |= 1 << 1u;
  4993  1488  1683               	bsf	3,5	;RP0=1, select bank1
  4994  1489  1303               	bcf	3,6	;RP1=0, select bank1
  4995  148A  1491               	bsf	17,1	;volatile
  4996  148B                     l3320:	
  4997                           ;I2C.c: 148:     while(((*(volatile uint8*)0x91 >> 1u) & 0x01));
  4998                           
  4999  148B  1683               	bsf	3,5	;RP0=1, select bank1
  5000  148C  1303               	bcf	3,6	;RP1=0, select bank1
  5001  148D  0811               	movf	17,w	;volatile
  5002  148E  1283               	bcf	3,5	;RP0=0, select bank0
  5003  148F  1303               	bcf	3,6	;RP1=0, select bank0
  5004  1490  00BF               	movwf	??_I2C_master_send_repeated_start_condition
  5005  1491  3001               	movlw	1
  5006  1492                     u3615:	
  5007  1492  1003               	clrc
  5008  1493  0CBF               	rrf	??_I2C_master_send_repeated_start_condition,f
  5009  1494  3EFF               	addlw	-1
  5010  1495  1D03               	skipz
  5011  1496  2C92               	goto	u3615
  5012  1497  183F               	btfsc	??_I2C_master_send_repeated_start_condition,0
  5013  1498  2C9A               	goto	u3621
  5014  1499  2C9B               	goto	u3620
  5015  149A                     u3621:	
  5016  149A  2C8B               	goto	l3320
  5017  149B                     u3620:	
  5018  149B                     l3322:	
  5019                           
  5020                           ;I2C.c: 150:     if(((*(volatile uint8*)0x14 >> 7u) & 0x01))
  5021  149B  0814               	movf	20,w	;volatile
  5022  149C  00BF               	movwf	??_I2C_master_send_repeated_start_condition
  5023  149D  3007               	movlw	7
  5024  149E                     u3635:	
  5025  149E  1003               	clrc
  5026  149F  0CBF               	rrf	??_I2C_master_send_repeated_start_condition,f
  5027  14A0  3EFF               	addlw	-1
  5028  14A1  1D03               	skipz
  5029  14A2  2C9E               	goto	u3635
  5030  14A3  1C3F               	btfss	??_I2C_master_send_repeated_start_condition,0
  5031  14A4  2CA6               	goto	u3641
  5032  14A5  2CA7               	goto	u3640
  5033  14A6                     u3641:	
  5034  14A6  2CAB               	goto	l540
  5035  14A7                     u3640:	
  5036  14A7                     l3324:	
  5037                           
  5038                           ;I2C.c: 151:     {;I2C.c: 152:         *(volatile uint8*)0x14 &= ~(1 << 7u);
  5039  14A7  307F               	movlw	127
  5040  14A8  00BF               	movwf	??_I2C_master_send_repeated_start_condition
  5041  14A9  083F               	movf	??_I2C_master_send_repeated_start_condition,w
  5042  14AA  0594               	andwf	20,f	;volatile
  5043  14AB                     l540:	
  5044                           ;I2C.c: 153:     }
  5045                           
  5046  14AB  0008               	return
  5047  14AC                     __end_of_I2C_master_send_repeated_start_condition:	
  5048                           
  5049                           	psect	text25
  5050  08BC                     __ptext25:	
  5051 ;; *************** function _I2C_master_receive_data *****************
  5052 ;; Defined at:
  5053 ;;		line 244 in file "I2C.c"
  5054 ;; Parameters:    Size  Location     Type
  5055 ;;  a_I2C_ack_st    1    wreg     enum E23
  5056 ;; Auto vars:     Size  Location     Type
  5057 ;;  a_I2C_ack_st    1    1[BANK0 ] enum E23
  5058 ;;  u8_retVal       1    2[BANK0 ] unsigned char 
  5059 ;; Return value:  Size  Location     Type
  5060 ;;                  1    wreg      unsigned char 
  5061 ;; Registers used:
  5062 ;;		wreg, status,2, status,0
  5063 ;; Tracked objects:
  5064 ;;		On entry : 0/0
  5065 ;;		On exit  : 0/0
  5066 ;;		Unchanged: 0/0
  5067 ;; Data sizes:     COMMON   BANK0   BANK1   BANK3   BANK2
  5068 ;;      Params:         0       0       0       0       0
  5069 ;;      Locals:         0       2       0       0       0
  5070 ;;      Temps:          0       1       0       0       0
  5071 ;;      Totals:         0       3       0       0       0
  5072 ;;Total ram usage:        3 bytes
  5073 ;; Hardware stack levels used:    1
  5074 ;; Hardware stack levels required when called:    3
  5075 ;; This function calls:
  5076 ;;		Nothing
  5077 ;; This function is called by:
  5078 ;;		_EEPROM_Read_Byte
  5079 ;;		_EEPROM_Read_Array
  5080 ;; This function uses a non-reentrant model
  5081 ;;
  5082                           
  5083                           
  5084                           ;psect for function _I2C_master_receive_data
  5085  08BC                     _I2C_master_receive_data:	
  5086                           
  5087                           ;incstack = 0
  5088                           ; Regs used in _I2C_master_receive_data: [wreg+status,2+status,0]
  5089                           ;I2C_master_receive_data@a_I2C_ack_status_t stored from wreg
  5090  08BC  1283               	bcf	3,5	;RP0=0, select bank0
  5091  08BD  1303               	bcf	3,6	;RP1=0, select bank0
  5092  08BE  00C0               	movwf	I2C_master_receive_data@a_I2C_ack_status_t
  5093  08BF                     l3326:	
  5094                           
  5095                           ;I2C.c: 244: uint8 I2C_master_receive_data(EnumI2C_Ack_Status_t a_I2C_ack_status_t);I2C.
      +                          c: 245: {;I2C.c: 247:     uint8 u8_retVal;;I2C.c: 249:     if(a_I2C_ack_status_t == I2C_
      +                          SEND_ACK)
  5096  08BF  0840               	movf	I2C_master_receive_data@a_I2C_ack_status_t,w
  5097  08C0  1D03               	btfss	3,2
  5098  08C1  28C3               	goto	u3651
  5099  08C2  28C4               	goto	u3650
  5100  08C3                     u3651:	
  5101  08C3  28CB               	goto	l563
  5102  08C4                     u3650:	
  5103  08C4                     l3328:	
  5104                           
  5105                           ;I2C.c: 250:     {;I2C.c: 251:         *(volatile uint8*)0x91 &= ~(1 << 5u);
  5106  08C4  30DF               	movlw	223
  5107  08C5  00BF               	movwf	??_I2C_master_receive_data
  5108  08C6  083F               	movf	??_I2C_master_receive_data,w
  5109  08C7  1683               	bsf	3,5	;RP0=1, select bank1
  5110  08C8  1303               	bcf	3,6	;RP1=0, select bank1
  5111  08C9  0591               	andwf	17,f	;volatile
  5112                           
  5113                           ;I2C.c: 252:     }
  5114  08CA  28CE               	goto	l3330
  5115  08CB                     l563:	
  5116                           ;I2C.c: 253:     else
  5117                           
  5118                           
  5119                           ;I2C.c: 254:     {;I2C.c: 255:         *(volatile uint8*)0x91 |= 1 << 5u;
  5120  08CB  1683               	bsf	3,5	;RP0=1, select bank1
  5121  08CC  1303               	bcf	3,6	;RP1=0, select bank1
  5122  08CD  1691               	bsf	17,5	;volatile
  5123  08CE                     l3330:	
  5124  08CE  1683               	bsf	3,5	;RP0=1, select bank1
  5125  08CF  1303               	bcf	3,6	;RP1=0, select bank1
  5126  08D0  0811               	movf	17,w	;volatile
  5127  08D1  1283               	bcf	3,5	;RP0=0, select bank0
  5128  08D2  1303               	bcf	3,6	;RP1=0, select bank0
  5129  08D3  00BF               	movwf	??_I2C_master_receive_data
  5130  08D4  3003               	movlw	3
  5131  08D5                     u3665:	
  5132  08D5  1003               	clrc
  5133  08D6  0CBF               	rrf	??_I2C_master_receive_data,f
  5134  08D7  3EFF               	addlw	-1
  5135  08D8  1D03               	skipz
  5136  08D9  28D5               	goto	u3665
  5137  08DA  183F               	btfsc	??_I2C_master_receive_data,0
  5138  08DB  28DD               	goto	u3671
  5139  08DC  28DE               	goto	u3670
  5140  08DD                     u3671:	
  5141  08DD  28CE               	goto	l3330
  5142  08DE                     u3670:	
  5143  08DE                     l3332:	
  5144                           
  5145                           ;I2C.c: 260:     if(((*(volatile uint8*)0x14 >> 7u) & 0x01))
  5146  08DE  0814               	movf	20,w	;volatile
  5147  08DF  00BF               	movwf	??_I2C_master_receive_data
  5148  08E0  3007               	movlw	7
  5149  08E1                     u3685:	
  5150  08E1  1003               	clrc
  5151  08E2  0CBF               	rrf	??_I2C_master_receive_data,f
  5152  08E3  3EFF               	addlw	-1
  5153  08E4  1D03               	skipz
  5154  08E5  28E1               	goto	u3685
  5155  08E6  1C3F               	btfss	??_I2C_master_receive_data,0
  5156  08E7  28E9               	goto	u3691
  5157  08E8  28EA               	goto	u3690
  5158  08E9                     u3691:	
  5159  08E9  28EE               	goto	l3336
  5160  08EA                     u3690:	
  5161  08EA                     l3334:	
  5162                           
  5163                           ;I2C.c: 261:     {;I2C.c: 262:         *(volatile uint8*)0x14 &= ~(1 << 7u);
  5164  08EA  307F               	movlw	127
  5165  08EB  00BF               	movwf	??_I2C_master_receive_data
  5166  08EC  083F               	movf	??_I2C_master_receive_data,w
  5167  08ED  0594               	andwf	20,f	;volatile
  5168  08EE                     l3336:	
  5169                           ;I2C.c: 263:     }
  5170                           
  5171                           
  5172                           ;I2C.c: 269:     if(((*(volatile uint8*)0x14 >> 6u) & 0x01))
  5173  08EE  0814               	movf	20,w	;volatile
  5174  08EF  00BF               	movwf	??_I2C_master_receive_data
  5175  08F0  3006               	movlw	6
  5176  08F1                     u3705:	
  5177  08F1  1003               	clrc
  5178  08F2  0CBF               	rrf	??_I2C_master_receive_data,f
  5179  08F3  3EFF               	addlw	-1
  5180  08F4  1D03               	skipz
  5181  08F5  28F1               	goto	u3705
  5182  08F6  1C3F               	btfss	??_I2C_master_receive_data,0
  5183  08F7  28F9               	goto	u3711
  5184  08F8  28FA               	goto	u3710
  5185  08F9                     u3711:	
  5186  08F9  28FE               	goto	l3340
  5187  08FA                     u3710:	
  5188  08FA                     l3338:	
  5189                           
  5190                           ;I2C.c: 270:     {;I2C.c: 271:         *(volatile uint8*)0x14 &= ~(1 << 6u);
  5191  08FA  30BF               	movlw	191
  5192  08FB  00BF               	movwf	??_I2C_master_receive_data
  5193  08FC  083F               	movf	??_I2C_master_receive_data,w
  5194  08FD  0594               	andwf	20,f	;volatile
  5195  08FE                     l3340:	
  5196                           ;I2C.c: 272:     }
  5197                           
  5198                           
  5199                           ;I2C.c: 278:     u8_retVal = *(volatile uint8*)0x13;
  5200  08FE  0813               	movf	19,w	;volatile
  5201  08FF  00BF               	movwf	??_I2C_master_receive_data
  5202  0900  083F               	movf	??_I2C_master_receive_data,w
  5203  0901  00C1               	movwf	I2C_master_receive_data@u8_retVal
  5204  0902                     l3342:	
  5205                           
  5206                           ;I2C.c: 280:     *(volatile uint8*)0x91 |= 1 << 4u;
  5207  0902  1683               	bsf	3,5	;RP0=1, select bank1
  5208  0903  1303               	bcf	3,6	;RP1=0, select bank1
  5209  0904  1611               	bsf	17,4	;volatile
  5210  0905                     l3344:	
  5211                           
  5212                           ;I2C.c: 282:     if(((*(volatile uint8*)0x14 >> 7u) & 0x01))
  5213  0905  1283               	bcf	3,5	;RP0=0, select bank0
  5214  0906  1303               	bcf	3,6	;RP1=0, select bank0
  5215  0907  0814               	movf	20,w	;volatile
  5216  0908  00BF               	movwf	??_I2C_master_receive_data
  5217  0909  3007               	movlw	7
  5218  090A                     u3725:	
  5219  090A  1003               	clrc
  5220  090B  0CBF               	rrf	??_I2C_master_receive_data,f
  5221  090C  3EFF               	addlw	-1
  5222  090D  1D03               	skipz
  5223  090E  290A               	goto	u3725
  5224  090F  1C3F               	btfss	??_I2C_master_receive_data,0
  5225  0910  2912               	goto	u3731
  5226  0911  2913               	goto	u3730
  5227  0912                     u3731:	
  5228  0912  2917               	goto	l3348
  5229  0913                     u3730:	
  5230  0913                     l3346:	
  5231                           
  5232                           ;I2C.c: 283:     {;I2C.c: 284:         *(volatile uint8*)0x14 &= ~(1 << 7u);
  5233  0913  307F               	movlw	127
  5234  0914  00BF               	movwf	??_I2C_master_receive_data
  5235  0915  083F               	movf	??_I2C_master_receive_data,w
  5236  0916  0594               	andwf	20,f	;volatile
  5237  0917                     l3348:	
  5238                           ;I2C.c: 285:     }
  5239                           
  5240                           
  5241                           ;I2C.c: 291:     return u8_retVal;
  5242  0917  0841               	movf	I2C_master_receive_data@u8_retVal,w
  5243  0918                     l574:	
  5244  0918  0008               	return
  5245  0919                     __end_of_I2C_master_receive_data:	
  5246                           
  5247                           	psect	text26
  5248  14AC                     __ptext26:	
  5249 ;; *************** function _EEPROM_Save_Byte *****************
  5250 ;; Defined at:
  5251 ;;		line 54 in file "EEPROM24c04.c"
  5252 ;; Parameters:    Size  Location     Type
  5253 ;;  a_u16Locatio    2    5[BANK0 ] unsigned short 
  5254 ;;  a_u8Data        1    7[BANK0 ] unsigned char 
  5255 ;; Auto vars:     Size  Location     Type
  5256 ;;		None
  5257 ;; Return value:  Size  Location     Type
  5258 ;;                  1    wreg      void 
  5259 ;; Registers used:
  5260 ;;		wreg, status,2, status,0, pclath, cstack
  5261 ;; Tracked objects:
  5262 ;;		On entry : 0/0
  5263 ;;		On exit  : 0/0
  5264 ;;		Unchanged: 0/0
  5265 ;; Data sizes:     COMMON   BANK0   BANK1   BANK3   BANK2
  5266 ;;      Params:         0       3       0       0       0
  5267 ;;      Locals:         0       0       0       0       0
  5268 ;;      Temps:          0       0       0       0       0
  5269 ;;      Totals:         0       3       0       0       0
  5270 ;;Total ram usage:        3 bytes
  5271 ;; Hardware stack levels used:    1
  5272 ;; Hardware stack levels required when called:    4
  5273 ;; This function calls:
  5274 ;;		_I2C_master_send_address
  5275 ;;		_I2C_master_send_data
  5276 ;;		_I2C_master_send_start_condition
  5277 ;;		_I2C_master_send_stop_condition
  5278 ;; This function is called by:
  5279 ;;		_EEPROM_Read_Byte
  5280 ;;		_Heater_Up_Down_Buttons_Task
  5281 ;;		_EEPROM_Read_Array
  5282 ;; This function uses a non-reentrant model
  5283 ;;
  5284                           
  5285                           
  5286                           ;psect for function _EEPROM_Save_Byte
  5287  14AC                     _EEPROM_Save_Byte:	
  5288  14AC                     l3316:	
  5289                           ;incstack = 0
  5290                           ; Regs used in _EEPROM_Save_Byte: [wreg+status,2+status,0+pclath+cstack]
  5291                           
  5292                           
  5293                           ;EEPROM24c04.c: 54: void EEPROM_Save_Byte(uint16 a_u16Location , uint8 a_u8Data);EEPROM2
      +                          4c04.c: 55: {;EEPROM24c04.c: 57:     I2C_master_send_start_condition();
  5294  14AC  160A  118A  2525  160A  118A  	fcall	_I2C_master_send_start_condition
  5295                           
  5296                           ;EEPROM24c04.c: 59:     I2C_master_send_address((0x50 | ((a_u16Location >> 8) & 0x0001))
      +                          , I2C_WRITE_OPERATION);
  5297  14B1  1283               	bcf	3,5	;RP0=0, select bank0
  5298  14B2  1303               	bcf	3,6	;RP1=0, select bank0
  5299  14B3  01BF               	clrf	I2C_master_send_address@a_I2C_operaton_t
  5300  14B4  0845               	movf	EEPROM_Save_Byte@a_u16Location+1,w
  5301  14B5  3901               	andlw	1
  5302  14B6  3850               	iorlw	80
  5303  14B7  160A  118A  2584  160A  118A  	fcall	_I2C_master_send_address
  5304                           
  5305                           ;EEPROM24c04.c: 61:     I2C_master_send_data((uint8)(a_u16Location & 0x00FF));
  5306  14BC  1283               	bcf	3,5	;RP0=0, select bank0
  5307  14BD  1303               	bcf	3,6	;RP1=0, select bank0
  5308  14BE  0844               	movf	EEPROM_Save_Byte@a_u16Location,w
  5309  14BF  160A  118A  24F8  160A  118A  	fcall	_I2C_master_send_data
  5310                           
  5311                           ;EEPROM24c04.c: 63:     I2C_master_send_data(a_u8Data);
  5312  14C4  1283               	bcf	3,5	;RP0=0, select bank0
  5313  14C5  1303               	bcf	3,6	;RP1=0, select bank0
  5314  14C6  0846               	movf	EEPROM_Save_Byte@a_u8Data,w
  5315  14C7  160A  118A  24F8  160A  118A  	fcall	_I2C_master_send_data
  5316                           
  5317                           ;EEPROM24c04.c: 65:     I2C_master_send_stop_condition();
  5318  14CC  160A  118A  2464  160A  118A  	fcall	_I2C_master_send_stop_condition
  5319  14D1                     l96:	
  5320  14D1  0008               	return
  5321  14D2                     __end_of_EEPROM_Save_Byte:	
  5322                           
  5323                           	psect	text27
  5324  1464                     __ptext27:	
  5325 ;; *************** function _I2C_master_send_stop_condition *****************
  5326 ;; Defined at:
  5327 ;;		line 114 in file "I2C.c"
  5328 ;; Parameters:    Size  Location     Type
  5329 ;;		None
  5330 ;; Auto vars:     Size  Location     Type
  5331 ;;		None
  5332 ;; Return value:  Size  Location     Type
  5333 ;;                  1    wreg      void 
  5334 ;; Registers used:
  5335 ;;		wreg, status,2, status,0
  5336 ;; Tracked objects:
  5337 ;;		On entry : 0/0
  5338 ;;		On exit  : 0/0
  5339 ;;		Unchanged: 0/0
  5340 ;; Data sizes:     COMMON   BANK0   BANK1   BANK3   BANK2
  5341 ;;      Params:         0       0       0       0       0
  5342 ;;      Locals:         0       0       0       0       0
  5343 ;;      Temps:          0       1       0       0       0
  5344 ;;      Totals:         0       1       0       0       0
  5345 ;;Total ram usage:        1 bytes
  5346 ;; Hardware stack levels used:    1
  5347 ;; Hardware stack levels required when called:    3
  5348 ;; This function calls:
  5349 ;;		Nothing
  5350 ;; This function is called by:
  5351 ;;		_EEPROM_Save_Byte
  5352 ;;		_EEPROM_Read_Byte
  5353 ;;		_EEPROM_Save_Array
  5354 ;;		_EEPROM_Read_Array
  5355 ;;		_EEPROM_Save_Page
  5356 ;;		_EEPROM_Erase
  5357 ;; This function uses a non-reentrant model
  5358 ;;
  5359                           
  5360                           
  5361                           ;psect for function _I2C_master_send_stop_condition
  5362  1464                     _I2C_master_send_stop_condition:	
  5363  1464                     l3144:	
  5364                           ;incstack = 0
  5365                           ; Regs used in _I2C_master_send_stop_condition: [wreg+status,2+status,0]
  5366                           
  5367                           
  5368                           ;I2C.c: 117:     *(volatile uint8*)0x91 |= 1 << 2u;
  5369  1464  1683               	bsf	3,5	;RP0=1, select bank1
  5370  1465  1303               	bcf	3,6	;RP1=0, select bank1
  5371  1466  1511               	bsf	17,2	;volatile
  5372  1467                     l3146:	
  5373                           ;I2C.c: 119:     while(((*(volatile uint8*)0x91 >> 2u) & 0x01));
  5374                           
  5375  1467  1683               	bsf	3,5	;RP0=1, select bank1
  5376  1468  1303               	bcf	3,6	;RP1=0, select bank1
  5377  1469  0811               	movf	17,w	;volatile
  5378  146A  1283               	bcf	3,5	;RP0=0, select bank0
  5379  146B  1303               	bcf	3,6	;RP1=0, select bank0
  5380  146C  00BF               	movwf	??_I2C_master_send_stop_condition
  5381  146D  3002               	movlw	2
  5382  146E                     u3075:	
  5383  146E  1003               	clrc
  5384  146F  0CBF               	rrf	??_I2C_master_send_stop_condition,f
  5385  1470  3EFF               	addlw	-1
  5386  1471  1D03               	skipz
  5387  1472  2C6E               	goto	u3075
  5388  1473  183F               	btfsc	??_I2C_master_send_stop_condition,0
  5389  1474  2C76               	goto	u3081
  5390  1475  2C77               	goto	u3080
  5391  1476                     u3081:	
  5392  1476  2C67               	goto	l3146
  5393  1477                     u3080:	
  5394  1477                     l3148:	
  5395                           
  5396                           ;I2C.c: 121:     if(((*(volatile uint8*)0x14 >> 7u) & 0x01))
  5397  1477  0814               	movf	20,w	;volatile
  5398  1478  00BF               	movwf	??_I2C_master_send_stop_condition
  5399  1479  3007               	movlw	7
  5400  147A                     u3095:	
  5401  147A  1003               	clrc
  5402  147B  0CBF               	rrf	??_I2C_master_send_stop_condition,f
  5403  147C  3EFF               	addlw	-1
  5404  147D  1D03               	skipz
  5405  147E  2C7A               	goto	u3095
  5406  147F  1C3F               	btfss	??_I2C_master_send_stop_condition,0
  5407  1480  2C82               	goto	u3101
  5408  1481  2C83               	goto	u3100
  5409  1482                     u3101:	
  5410  1482  2C87               	goto	l532
  5411  1483                     u3100:	
  5412  1483                     l3150:	
  5413                           
  5414                           ;I2C.c: 122:     {;I2C.c: 123:         *(volatile uint8*)0x14 &= ~(1 << 7u);
  5415  1483  307F               	movlw	127
  5416  1484  00BF               	movwf	??_I2C_master_send_stop_condition
  5417  1485  083F               	movf	??_I2C_master_send_stop_condition,w
  5418  1486  0594               	andwf	20,f	;volatile
  5419  1487                     l532:	
  5420                           ;I2C.c: 124:     }
  5421                           
  5422  1487  0008               	return
  5423  1488                     __end_of_I2C_master_send_stop_condition:	
  5424                           
  5425                           	psect	text28
  5426  1525                     __ptext28:	
  5427 ;; *************** function _I2C_master_send_start_condition *****************
  5428 ;; Defined at:
  5429 ;;		line 82 in file "I2C.c"
  5430 ;; Parameters:    Size  Location     Type
  5431 ;;		None
  5432 ;; Auto vars:     Size  Location     Type
  5433 ;;		None
  5434 ;; Return value:  Size  Location     Type
  5435 ;;                  1    wreg      void 
  5436 ;; Registers used:
  5437 ;;		wreg, status,2, status,0
  5438 ;; Tracked objects:
  5439 ;;		On entry : 0/0
  5440 ;;		On exit  : 0/0
  5441 ;;		Unchanged: 0/0
  5442 ;; Data sizes:     COMMON   BANK0   BANK1   BANK3   BANK2
  5443 ;;      Params:         0       0       0       0       0
  5444 ;;      Locals:         0       0       0       0       0
  5445 ;;      Temps:          0       1       0       0       0
  5446 ;;      Totals:         0       1       0       0       0
  5447 ;;Total ram usage:        1 bytes
  5448 ;; Hardware stack levels used:    1
  5449 ;; Hardware stack levels required when called:    3
  5450 ;; This function calls:
  5451 ;;		Nothing
  5452 ;; This function is called by:
  5453 ;;		_EEPROM_Save_Byte
  5454 ;;		_EEPROM_Read_Byte
  5455 ;;		_EEPROM_Save_Array
  5456 ;;		_EEPROM_Read_Array
  5457 ;;		_EEPROM_Save_Page
  5458 ;;		_EEPROM_Erase
  5459 ;; This function uses a non-reentrant model
  5460 ;;
  5461                           
  5462                           
  5463                           ;psect for function _I2C_master_send_start_condition
  5464  1525                     _I2C_master_send_start_condition:	
  5465  1525                     l3108:	
  5466                           ;incstack = 0
  5467                           ; Regs used in _I2C_master_send_start_condition: [wreg+status,2+status,0]
  5468                           
  5469                           
  5470                           ;I2C.c: 85:     if((((*(volatile uint8*)0x94 >> 2u) & 0x01) || (*(volatile uint8*)0x91 &
      +                           0x1F)) == 0)
  5471  1525  1683               	bsf	3,5	;RP0=1, select bank1
  5472  1526  1303               	bcf	3,6	;RP1=0, select bank1
  5473  1527  0814               	movf	20,w	;volatile
  5474  1528  1283               	bcf	3,5	;RP0=0, select bank0
  5475  1529  1303               	bcf	3,6	;RP1=0, select bank0
  5476  152A  00BF               	movwf	??_I2C_master_send_start_condition
  5477  152B  3002               	movlw	2
  5478  152C                     u2925:	
  5479  152C  1003               	clrc
  5480  152D  0CBF               	rrf	??_I2C_master_send_start_condition,f
  5481  152E  3EFF               	addlw	-1
  5482  152F  1D03               	skipz
  5483  1530  2D2C               	goto	u2925
  5484  1531  183F               	btfsc	??_I2C_master_send_start_condition,0
  5485  1532  2D34               	goto	u2931
  5486  1533  2D35               	goto	u2930
  5487  1534                     u2931:	
  5488  1534  2D42               	goto	l3114
  5489  1535                     u2930:	
  5490  1535                     l3110:	
  5491  1535  1683               	bsf	3,5	;RP0=1, select bank1
  5492  1536  1303               	bcf	3,6	;RP1=0, select bank1
  5493  1537  0811               	movf	17,w	;volatile
  5494  1538  391F               	andlw	31
  5495  1539  1D03               	btfss	3,2
  5496  153A  2D3C               	goto	u2941
  5497  153B  2D3D               	goto	u2940
  5498  153C                     u2941:	
  5499  153C  2D42               	goto	l3114
  5500  153D                     u2940:	
  5501  153D                     l3112:	
  5502                           
  5503                           ;I2C.c: 86:     {;I2C.c: 88:         *(volatile uint8*)0x91 |= 1 << 0u;
  5504  153D  1411               	bsf	17,0	;volatile
  5505  153E                     l519:	
  5506                           ;I2C.c: 90:         while(((*(volatile uint8*)0x91 >> 0u) & 0x01));
  5507                           
  5508  153E  1811               	btfsc	17,0	;volatile
  5509  153F  2D41               	goto	u2951
  5510  1540  2D42               	goto	u2950
  5511  1541                     u2951:	
  5512  1541  2D3E               	goto	l519
  5513  1542                     u2950:	
  5514  1542                     l3114:	
  5515                           
  5516                           ;I2C.c: 93:     if(((*(volatile uint8*)0x14 >> 7u) & 0x01))
  5517  1542  1283               	bcf	3,5	;RP0=0, select bank0
  5518  1543  0814               	movf	20,w	;volatile
  5519  1544  00BF               	movwf	??_I2C_master_send_start_condition
  5520  1545  3007               	movlw	7
  5521  1546                     u2965:	
  5522  1546  1003               	clrc
  5523  1547  0CBF               	rrf	??_I2C_master_send_start_condition,f
  5524  1548  3EFF               	addlw	-1
  5525  1549  1D03               	skipz
  5526  154A  2D46               	goto	u2965
  5527  154B  1C3F               	btfss	??_I2C_master_send_start_condition,0
  5528  154C  2D4E               	goto	u2971
  5529  154D  2D4F               	goto	u2970
  5530  154E                     u2971:	
  5531  154E  2D53               	goto	l524
  5532  154F                     u2970:	
  5533  154F                     l3116:	
  5534                           
  5535                           ;I2C.c: 94:     {;I2C.c: 95:         *(volatile uint8*)0x14 &= ~(1 << 7u);
  5536  154F  307F               	movlw	127
  5537  1550  00BF               	movwf	??_I2C_master_send_start_condition
  5538  1551  083F               	movf	??_I2C_master_send_start_condition,w
  5539  1552  0594               	andwf	20,f	;volatile
  5540  1553                     l524:	
  5541                           ;I2C.c: 96:     }
  5542                           
  5543  1553  0008               	return
  5544  1554                     __end_of_I2C_master_send_start_condition:	
  5545                           
  5546                           	psect	text29
  5547  14F8                     __ptext29:	
  5548 ;; *************** function _I2C_master_send_data *****************
  5549 ;; Defined at:
  5550 ;;		line 215 in file "I2C.c"
  5551 ;; Parameters:    Size  Location     Type
  5552 ;;  a_I2C_Data      1    wreg     unsigned char 
  5553 ;; Auto vars:     Size  Location     Type
  5554 ;;  a_I2C_Data      1    1[BANK0 ] unsigned char 
  5555 ;; Return value:  Size  Location     Type
  5556 ;;                  1    wreg      enum E45
  5557 ;; Registers used:
  5558 ;;		wreg, status,2, status,0
  5559 ;; Tracked objects:
  5560 ;;		On entry : 0/0
  5561 ;;		On exit  : 0/0
  5562 ;;		Unchanged: 0/0
  5563 ;; Data sizes:     COMMON   BANK0   BANK1   BANK3   BANK2
  5564 ;;      Params:         0       0       0       0       0
  5565 ;;      Locals:         0       1       0       0       0
  5566 ;;      Temps:          0       1       0       0       0
  5567 ;;      Totals:         0       2       0       0       0
  5568 ;;Total ram usage:        2 bytes
  5569 ;; Hardware stack levels used:    1
  5570 ;; Hardware stack levels required when called:    3
  5571 ;; This function calls:
  5572 ;;		Nothing
  5573 ;; This function is called by:
  5574 ;;		_EEPROM_Save_Byte
  5575 ;;		_EEPROM_Read_Byte
  5576 ;;		_EEPROM_Save_Array
  5577 ;;		_EEPROM_Read_Array
  5578 ;;		_EEPROM_Save_Page
  5579 ;;		_EEPROM_Erase
  5580 ;; This function uses a non-reentrant model
  5581 ;;
  5582                           
  5583                           
  5584                           ;psect for function _I2C_master_send_data
  5585  14F8                     _I2C_master_send_data:	
  5586                           
  5587                           ;incstack = 0
  5588                           ; Regs used in _I2C_master_send_data: [wreg+status,2+status,0]
  5589                           ;I2C_master_send_data@a_I2C_Data stored from wreg
  5590  14F8  1283               	bcf	3,5	;RP0=0, select bank0
  5591  14F9  1303               	bcf	3,6	;RP1=0, select bank0
  5592  14FA  00C0               	movwf	I2C_master_send_data@a_I2C_Data
  5593  14FB                     l3128:	
  5594                           
  5595                           ;I2C.c: 215: EnumI2C_Slave_Ack_t I2C_master_send_data(uint8 a_I2C_Data);I2C.c: 216: {;I2
      +                          C.c: 218:     *(volatile uint8*)0x13 = a_I2C_Data;
  5596  14FB  0840               	movf	I2C_master_send_data@a_I2C_Data,w
  5597  14FC  00BF               	movwf	??_I2C_master_send_data
  5598  14FD  083F               	movf	??_I2C_master_send_data,w
  5599  14FE  0093               	movwf	19	;volatile
  5600                           
  5601                           ;I2C.c: 220:     while(((*(volatile uint8*)0x14 >> 7u) & 0x01))
  5602  14FF  2D05               	goto	l3134
  5603  1500                     l3130:	
  5604                           
  5605                           ;I2C.c: 221:     {;I2C.c: 222:         *(volatile uint8*)0x14 &= ~(1 << 7u);
  5606  1500  307F               	movlw	127
  5607  1501  00BF               	movwf	??_I2C_master_send_data
  5608  1502  083F               	movf	??_I2C_master_send_data,w
  5609  1503  0594               	andwf	20,f	;volatile
  5610  1504  2CFB               	goto	l3128
  5611  1505                     l3134:	
  5612                           
  5613                           ;I2C.c: 220:     while(((*(volatile uint8*)0x14 >> 7u) & 0x01))
  5614  1505  0814               	movf	20,w	;volatile
  5615  1506  00BF               	movwf	??_I2C_master_send_data
  5616  1507  3007               	movlw	7
  5617  1508                     u3035:	
  5618  1508  1003               	clrc
  5619  1509  0CBF               	rrf	??_I2C_master_send_data,f
  5620  150A  3EFF               	addlw	-1
  5621  150B  1D03               	skipz
  5622  150C  2D08               	goto	u3035
  5623  150D  183F               	btfsc	??_I2C_master_send_data,0
  5624  150E  2D10               	goto	u3041
  5625  150F  2D11               	goto	u3040
  5626  1510                     u3041:	
  5627  1510  2D00               	goto	l3130
  5628  1511                     u3040:	
  5629  1511                     l3136:	
  5630  1511  080C               	movf	12,w	;volatile
  5631  1512  00BF               	movwf	??_I2C_master_send_data
  5632  1513  3003               	movlw	3
  5633  1514                     u3055:	
  5634  1514  1003               	clrc
  5635  1515  0CBF               	rrf	??_I2C_master_send_data,f
  5636  1516  3EFF               	addlw	-1
  5637  1517  1D03               	skipz
  5638  1518  2D14               	goto	u3055
  5639  1519  1C3F               	btfss	??_I2C_master_send_data,0
  5640  151A  2D1C               	goto	u3061
  5641  151B  2D1D               	goto	u3060
  5642  151C                     u3061:	
  5643  151C  2D11               	goto	l3136
  5644  151D                     u3060:	
  5645  151D                     l3138:	
  5646                           
  5647                           ;I2C.c: 228:     *(volatile uint8*)0x0C &= ~(1 << 3u);
  5648  151D  30F7               	movlw	247
  5649  151E  00BF               	movwf	??_I2C_master_send_data
  5650  151F  083F               	movf	??_I2C_master_send_data,w
  5651  1520  058C               	andwf	12,f	;volatile
  5652  1521                     l3140:	
  5653                           
  5654                           ;I2C.c: 230:     return ((*(volatile uint8*)0x91 >> 6u) & 0x01);;	Return value of _I2C_m
      +                          aster_send_data is never used
  5655  1521  1683               	bsf	3,5	;RP0=1, select bank1
  5656  1522  1303               	bcf	3,6	;RP1=0, select bank1
  5657  1523  0811               	movf	17,w	;volatile
  5658  1524                     l560:	
  5659  1524  0008               	return
  5660  1525                     __end_of_I2C_master_send_data:	
  5661                           
  5662                           	psect	text30
  5663  1584                     __ptext30:	
  5664 ;; *************** function _I2C_master_send_address *****************
  5665 ;; Defined at:
  5666 ;;		line 172 in file "I2C.c"
  5667 ;; Parameters:    Size  Location     Type
  5668 ;;  a_I2C_Addres    1    wreg     unsigned char 
  5669 ;;  a_I2C_operat    1    0[BANK0 ] enum E19
  5670 ;; Auto vars:     Size  Location     Type
  5671 ;;  a_I2C_Addres    1    4[BANK0 ] unsigned char 
  5672 ;;  retVal_t        1    0        enum E27
  5673 ;; Return value:  Size  Location     Type
  5674 ;;                  1    wreg      enum E45
  5675 ;; Registers used:
  5676 ;;		wreg, status,2, status,0
  5677 ;; Tracked objects:
  5678 ;;		On entry : 0/0
  5679 ;;		On exit  : 0/0
  5680 ;;		Unchanged: 0/0
  5681 ;; Data sizes:     COMMON   BANK0   BANK1   BANK3   BANK2
  5682 ;;      Params:         0       1       0       0       0
  5683 ;;      Locals:         0       2       0       0       0
  5684 ;;      Temps:          0       2       0       0       0
  5685 ;;      Totals:         0       5       0       0       0
  5686 ;;Total ram usage:        5 bytes
  5687 ;; Hardware stack levels used:    1
  5688 ;; Hardware stack levels required when called:    3
  5689 ;; This function calls:
  5690 ;;		Nothing
  5691 ;; This function is called by:
  5692 ;;		_EEPROM_Save_Byte
  5693 ;;		_EEPROM_Read_Byte
  5694 ;;		_EEPROM_Save_Array
  5695 ;;		_EEPROM_Read_Array
  5696 ;;		_EEPROM_Save_Page
  5697 ;;		_EEPROM_Erase
  5698 ;; This function uses a non-reentrant model
  5699 ;;
  5700                           
  5701                           
  5702                           ;psect for function _I2C_master_send_address
  5703  1584                     _I2C_master_send_address:	
  5704                           
  5705                           ;incstack = 0
  5706                           ; Regs used in _I2C_master_send_address: [wreg+status,2+status,0]
  5707                           ;I2C_master_send_address@a_I2C_Address stored from wreg
  5708  1584  1283               	bcf	3,5	;RP0=0, select bank0
  5709  1585  1303               	bcf	3,6	;RP1=0, select bank0
  5710  1586  00C3               	movwf	I2C_master_send_address@a_I2C_Address
  5711  1587                     l3118:	
  5712                           
  5713                           ;I2C.c: 172: EnumI2C_Slave_Ack_t I2C_master_send_address(uint8 a_I2C_Address , EnumI2C_o
      +                          peration_t a_I2C_operaton_t);I2C.c: 173: {;I2C.c: 175:     EnumI2C_Slave_Ack_t retVal_t;
      +                          ;I2C.c: 177:     *(volatile uint8*)0x13 = (a_I2C_Address << 1) | a_I2C_operaton_t;
  5714  1587  0843               	movf	I2C_master_send_address@a_I2C_Address,w
  5715  1588  00C0               	movwf	??_I2C_master_send_address
  5716  1589  0740               	addwf	??_I2C_master_send_address,w
  5717  158A  043F               	iorwf	I2C_master_send_address@a_I2C_operaton_t,w
  5718  158B  00C1               	movwf	??_I2C_master_send_address+1
  5719  158C  0841               	movf	??_I2C_master_send_address+1,w
  5720  158D  0093               	movwf	19	;volatile
  5721                           
  5722                           ;I2C.c: 179:     while(((*(volatile uint8*)0x14 >> 7u) & 0x01))
  5723  158E  2D9A               	goto	l543
  5724  158F                     l3120:	
  5725                           
  5726                           ;I2C.c: 180:     {;I2C.c: 181:         *(volatile uint8*)0x14 &= ~(1 << 7u);
  5727  158F  307F               	movlw	127
  5728  1590  00C0               	movwf	??_I2C_master_send_address
  5729  1591  0840               	movf	??_I2C_master_send_address,w
  5730  1592  0594               	andwf	20,f	;volatile
  5731                           
  5732                           ;I2C.c: 183:         *(volatile uint8*)0x13 = (a_I2C_Address << 1) | a_I2C_operaton_t;
  5733  1593  0843               	movf	I2C_master_send_address@a_I2C_Address,w
  5734  1594  00C0               	movwf	??_I2C_master_send_address
  5735  1595  0740               	addwf	??_I2C_master_send_address,w
  5736  1596  043F               	iorwf	I2C_master_send_address@a_I2C_operaton_t,w
  5737  1597  00C1               	movwf	??_I2C_master_send_address+1
  5738  1598  0841               	movf	??_I2C_master_send_address+1,w
  5739  1599  0093               	movwf	19	;volatile
  5740  159A                     l543:	
  5741                           ;I2C.c: 184:     }
  5742                           
  5743                           
  5744                           ;I2C.c: 179:     while(((*(volatile uint8*)0x14 >> 7u) & 0x01))
  5745  159A  0814               	movf	20,w	;volatile
  5746  159B  00C0               	movwf	??_I2C_master_send_address
  5747  159C  3007               	movlw	7
  5748  159D                     u2985:	
  5749  159D  1003               	clrc
  5750  159E  0CC0               	rrf	??_I2C_master_send_address,f
  5751  159F  3EFF               	addlw	-1
  5752  15A0  1D03               	skipz
  5753  15A1  2D9D               	goto	u2985
  5754  15A2  1840               	btfsc	??_I2C_master_send_address,0
  5755  15A3  2DA5               	goto	u2991
  5756  15A4  2DA6               	goto	u2990
  5757  15A5                     u2991:	
  5758  15A5  2D8F               	goto	l3120
  5759  15A6                     u2990:	
  5760  15A6                     l3122:	
  5761  15A6  080C               	movf	12,w	;volatile
  5762  15A7  00C0               	movwf	??_I2C_master_send_address
  5763  15A8  3003               	movlw	3
  5764  15A9                     u3005:	
  5765  15A9  1003               	clrc
  5766  15AA  0CC0               	rrf	??_I2C_master_send_address,f
  5767  15AB  3EFF               	addlw	-1
  5768  15AC  1D03               	skipz
  5769  15AD  2DA9               	goto	u3005
  5770  15AE  1C40               	btfss	??_I2C_master_send_address,0
  5771  15AF  2DB1               	goto	u3011
  5772  15B0  2DB2               	goto	u3010
  5773  15B1                     u3011:	
  5774  15B1  2DA6               	goto	l3122
  5775  15B2                     u3010:	
  5776  15B2                     l3124:	
  5777                           
  5778                           ;I2C.c: 188:     *(volatile uint8*)0x0C &= ~(1 << 3u);
  5779  15B2  30F7               	movlw	247
  5780  15B3  00C0               	movwf	??_I2C_master_send_address
  5781  15B4  0840               	movf	??_I2C_master_send_address,w
  5782  15B5  058C               	andwf	12,f	;volatile
  5783  15B6  1683               	bsf	3,5	;RP0=1, select bank1
  5784  15B7  1303               	bcf	3,6	;RP1=0, select bank1
  5785  15B8  0811               	movf	17,w	;volatile
  5786                           
  5787                           ;I2C.c: 192:     if(a_I2C_operaton_t == I2C_READ_OPERATION)
  5788  15B9  1283               	bcf	3,5	;RP0=0, select bank0
  5789  15BA  1303               	bcf	3,6	;RP1=0, select bank0
  5790  15BB  033F               	decf	I2C_master_send_address@a_I2C_operaton_t,w
  5791  15BC  1D03               	btfss	3,2
  5792  15BD  2DBF               	goto	u3021
  5793  15BE  2DC0               	goto	u3020
  5794  15BF                     u3021:	
  5795  15BF  2DC3               	goto	l551
  5796  15C0                     u3020:	
  5797  15C0                     l3126:	
  5798                           
  5799                           ;I2C.c: 193:     {;I2C.c: 194:         *(volatile uint8*)0x91 |= 1 << 3u;
  5800  15C0  1683               	bsf	3,5	;RP0=1, select bank1
  5801  15C1  1303               	bcf	3,6	;RP1=0, select bank1
  5802  15C2  1591               	bsf	17,3	;volatile
  5803  15C3                     l551:	
  5804                           ;I2C.c: 195:     }
  5805                           
  5806  15C3  0008               	return
  5807  15C4                     __end_of_I2C_master_send_address:	
  5808                           
  5809                           	psect	text31
  5810  17B1                     __ptext31:	
  5811 ;; *************** function _Check_ON_Push_Button *****************
  5812 ;; Defined at:
  5813 ;;		line 99 in file "heater.c"
  5814 ;; Parameters:    Size  Location     Type
  5815 ;;  a_u8Port        1    wreg     unsigned char 
  5816 ;;  a_u8Pin         1    5[BANK0 ] unsigned char 
  5817 ;;  retVal_t        1    6[BANK0 ] PTR enum E1025
  5818 ;;		 -> Heater_Up_Down_Buttons_Task@Up_Button(1), Heater_Up_Down_Buttons_Task@Down_Button(1), Heater_On_Off_Button_Task@
      +On_Off_Button(1), 
  5819 ;; Auto vars:     Size  Location     Type
  5820 ;;  a_u8Port        1    9[BANK0 ] unsigned char 
  5821 ;; Return value:  Size  Location     Type
  5822 ;;                  1    wreg      enum E1025
  5823 ;; Registers used:
  5824 ;;		wreg, fsr0l, fsr0h, status,2, status,0, pclath, cstack
  5825 ;; Tracked objects:
  5826 ;;		On entry : 0/0
  5827 ;;		On exit  : 0/0
  5828 ;;		Unchanged: 0/0
  5829 ;; Data sizes:     COMMON   BANK0   BANK1   BANK3   BANK2
  5830 ;;      Params:         0       2       0       0       0
  5831 ;;      Locals:         0       1       0       0       0
  5832 ;;      Temps:          0       2       0       0       0
  5833 ;;      Totals:         0       5       0       0       0
  5834 ;;Total ram usage:        5 bytes
  5835 ;; Hardware stack levels used:    1
  5836 ;; Hardware stack levels required when called:    4
  5837 ;; This function calls:
  5838 ;;		_GPIO_ReadFromPin
  5839 ;; This function is called by:
  5840 ;;		_Heater_On_Off_Button_Task
  5841 ;;		_Heater_Up_Down_Buttons_Task
  5842 ;; This function uses a non-reentrant model
  5843 ;;
  5844                           
  5845                           
  5846                           ;psect for function _Check_ON_Push_Button
  5847  17B1                     _Check_ON_Push_Button:	
  5848                           
  5849                           ;incstack = 0
  5850                           ; Regs used in _Check_ON_Push_Button: [wreg-fsr0h+status,2+status,0+pclath+cstack]
  5851                           ;Check_ON_Push_Button@a_u8Port stored from wreg
  5852  17B1  1283               	bcf	3,5	;RP0=0, select bank0
  5853  17B2  1303               	bcf	3,6	;RP1=0, select bank0
  5854  17B3  00C8               	movwf	Check_ON_Push_Button@a_u8Port
  5855  17B4                     l3562:	
  5856                           
  5857                           ;heater.c: 99: static EnumButton_State_t Check_ON_Push_Button(uint8 a_u8Port , uint8 a_u
      +                          8Pin ,;heater.c: 100:                                                EnumButton_State_t 
      +                          * retVal_t);heater.c: 101: {;heater.c: 103:     if(GPIO_ReadFromPin(a_u8Port , a_u8Pin) 
      +                          == PUSH_BUTTON_IS_PRESSED)
  5858  17B4  0844               	movf	Check_ON_Push_Button@a_u8Pin,w
  5859  17B5  00C6               	movwf	??_Check_ON_Push_Button
  5860  17B6  0846               	movf	??_Check_ON_Push_Button,w
  5861  17B7  00BF               	movwf	GPIO_ReadFromPin@a_u8pin
  5862  17B8  0848               	movf	Check_ON_Push_Button@a_u8Port,w
  5863  17B9  120A  158A  22B7  160A  118A  	fcall	_GPIO_ReadFromPin
  5864  17BE  3A00               	xorlw	0
  5865  17BF  1D03               	skipz
  5866  17C0  2FC2               	goto	u4101
  5867  17C1  2FC3               	goto	u4100
  5868  17C2                     u4101:	
  5869  17C2  2FE8               	goto	l3574
  5870  17C3                     u4100:	
  5871  17C3  2FD0               	goto	l3572
  5872  17C4                     l3566:	
  5873                           
  5874                           ;heater.c: 109:                 *retVal_t = PUSH_BUTTON_DEBOUNCING;
  5875  17C4  3002               	movlw	2
  5876  17C5  00C6               	movwf	??_Check_ON_Push_Button
  5877  17C6  0845               	movf	Check_ON_Push_Button@retVal_t,w
  5878  17C7  0084               	movwf	4
  5879  17C8  0846               	movf	??_Check_ON_Push_Button,w
  5880  17C9  0080               	movwf	0
  5881                           
  5882                           ;heater.c: 110:                 break;
  5883  17CA  2FFC               	goto	l383
  5884  17CB                     l3568:	
  5885                           
  5886                           ;heater.c: 112:                 *retVal_t = PUSH_BUTTON_IS_NOT_RELEASED;
  5887  17CB  0845               	movf	Check_ON_Push_Button@retVal_t,w
  5888  17CC  0084               	movwf	4
  5889  17CD  0180               	clrf	0
  5890  17CE  0A80               	incf	0,f
  5891                           
  5892                           ;heater.c: 113:                 break;
  5893  17CF  2FFC               	goto	l383
  5894  17D0                     l3572:	
  5895  17D0  1283               	bcf	3,5	;RP0=0, select bank0
  5896  17D1  1303               	bcf	3,6	;RP1=0, select bank0
  5897  17D2  0845               	movf	Check_ON_Push_Button@retVal_t,w
  5898  17D3  0084               	movwf	4
  5899  17D4  1383               	bcf	3,7	;select IRP bank0
  5900  17D5  0800               	movf	0,w
  5901  17D6  00C6               	movwf	??_Check_ON_Push_Button
  5902  17D7  01C7               	clrf	??_Check_ON_Push_Button+1
  5903                           
  5904                           ; Switch on 2 bytes has been partitioned into a top level switch of size 1, and 1 sub-sw
      +                          itches
  5905                           ; Switch size 1, requested type "simple"
  5906                           ; Number of cases is 1, Range of values is 0 to 0
  5907                           ; switch strategies available:
  5908                           ; Name         Instructions Cycles
  5909                           ; simple_byte            4     3 (average)
  5910                           ; direct_byte           11     8 (fixed)
  5911                           ; jumptable            260     6 (fixed)
  5912                           ;	Chosen strategy is simple_byte
  5913  17D8  0847               	movf	??_Check_ON_Push_Button+1,w
  5914  17D9  3A00               	xorlw	0	; case 0
  5915  17DA  1903               	skipnz
  5916  17DB  2FDD               	goto	l4744
  5917  17DC  2FFC               	goto	l383
  5918  17DD                     l4744:	
  5919                           
  5920                           ; Switch size 1, requested type "simple"
  5921                           ; Number of cases is 3, Range of values is 1 to 3
  5922                           ; switch strategies available:
  5923                           ; Name         Instructions Cycles
  5924                           ; simple_byte           10     6 (average)
  5925                           ; direct_byte           20    11 (fixed)
  5926                           ; jumptable            263     9 (fixed)
  5927                           ;	Chosen strategy is simple_byte
  5928  17DD  0846               	movf	??_Check_ON_Push_Button,w
  5929  17DE  3A01               	xorlw	1	; case 1
  5930  17DF  1903               	skipnz
  5931  17E0  2FFC               	goto	l383
  5932  17E1  3A03               	xorlw	3	; case 2
  5933  17E2  1903               	skipnz
  5934  17E3  2FCB               	goto	l3568
  5935  17E4  3A01               	xorlw	1	; case 3
  5936  17E5  1903               	skipnz
  5937  17E6  2FC4               	goto	l3566
  5938  17E7  2FFC               	goto	l383
  5939  17E8                     l3574:	
  5940                           
  5941                           ;heater.c: 123:     {;heater.c: 125:         if(*retVal_t == PUSH_BUTTON_IS_NOT_RELEASED
      +                          )
  5942  17E8  1283               	bcf	3,5	;RP0=0, select bank0
  5943  17E9  1303               	bcf	3,6	;RP1=0, select bank0
  5944  17EA  0845               	movf	Check_ON_Push_Button@retVal_t,w
  5945  17EB  0084               	movwf	4
  5946  17EC  1383               	bcf	3,7	;select IRP bank0
  5947  17ED  0300               	decf	0,w
  5948  17EE  1D03               	btfss	3,2
  5949  17EF  2FF1               	goto	u4111
  5950  17F0  2FF2               	goto	u4110
  5951  17F1                     u4111:	
  5952  17F1  2FF6               	goto	l3578
  5953  17F2                     u4110:	
  5954  17F2                     l3576:	
  5955                           
  5956                           ;heater.c: 126:         {;heater.c: 128:             *retVal_t = PUSH_BUTTON_IS_PRESSED;
  5957  17F2  0845               	movf	Check_ON_Push_Button@retVal_t,w
  5958  17F3  0084               	movwf	4
  5959  17F4  0180               	clrf	0
  5960                           
  5961                           ;heater.c: 129:         }
  5962  17F5  2FFC               	goto	l383
  5963  17F6                     l3578:	
  5964                           
  5965                           ;heater.c: 131:         {;heater.c: 133:             *retVal_t = PUSH_BUTTON_IS_NOT_PRES
      +                          SED;
  5966  17F6  3003               	movlw	3
  5967  17F7  00C6               	movwf	??_Check_ON_Push_Button
  5968  17F8  0845               	movf	Check_ON_Push_Button@retVal_t,w
  5969  17F9  0084               	movwf	4
  5970  17FA  0846               	movf	??_Check_ON_Push_Button,w
  5971  17FB  0080               	movwf	0
  5972  17FC                     l383:	
  5973                           ;heater.c: 135:     }
  5974                           
  5975                           
  5976                           ;heater.c: 137:     return *retVal_t;
  5977  17FC  0845               	movf	Check_ON_Push_Button@retVal_t,w
  5978  17FD  0084               	movwf	4
  5979  17FE  0800               	movf	0,w
  5980  17FF                     l386:	
  5981  17FF  0008               	return
  5982  1800                     __end_of_Check_ON_Push_Button:	
  5983                           
  5984                           	psect	text32
  5985  0AB7                     __ptext32:	
  5986 ;; *************** function _GPIO_ReadFromPin *****************
  5987 ;; Defined at:
  5988 ;;		line 510 in file "GPIO.c"
  5989 ;; Parameters:    Size  Location     Type
  5990 ;;  a_u8port        1    wreg     unsigned char 
  5991 ;;  a_u8pin         1    0[BANK0 ] unsigned char 
  5992 ;; Auto vars:     Size  Location     Type
  5993 ;;  a_u8port        1    3[BANK0 ] unsigned char 
  5994 ;;  retVal          1    4[BANK0 ] unsigned char 
  5995 ;; Return value:  Size  Location     Type
  5996 ;;                  1    wreg      unsigned char 
  5997 ;; Registers used:
  5998 ;;		wreg, fsr0l, fsr0h, status,2, status,0
  5999 ;; Tracked objects:
  6000 ;;		On entry : 0/0
  6001 ;;		On exit  : 0/0
  6002 ;;		Unchanged: 0/0
  6003 ;; Data sizes:     COMMON   BANK0   BANK1   BANK3   BANK2
  6004 ;;      Params:         0       1       0       0       0
  6005 ;;      Locals:         0       2       0       0       0
  6006 ;;      Temps:          0       2       0       0       0
  6007 ;;      Totals:         0       5       0       0       0
  6008 ;;Total ram usage:        5 bytes
  6009 ;; Hardware stack levels used:    1
  6010 ;; Hardware stack levels required when called:    3
  6011 ;; This function calls:
  6012 ;;		Nothing
  6013 ;; This function is called by:
  6014 ;;		_Check_ON_Push_Button
  6015 ;; This function uses a non-reentrant model
  6016 ;;
  6017                           
  6018                           
  6019                           ;psect for function _GPIO_ReadFromPin
  6020  0AB7                     _GPIO_ReadFromPin:	
  6021                           
  6022                           ;incstack = 0
  6023                           ; Regs used in _GPIO_ReadFromPin: [wreg-fsr0h+status,2+status,0]
  6024                           ;GPIO_ReadFromPin@a_u8port stored from wreg
  6025  0AB7  1283               	bcf	3,5	;RP0=0, select bank0
  6026  0AB8  1303               	bcf	3,6	;RP1=0, select bank0
  6027  0AB9  00C2               	movwf	GPIO_ReadFromPin@a_u8port
  6028  0ABA                     l3380:	
  6029                           
  6030                           ;GPIO.c: 510: uint8 GPIO_ReadFromPin(uint8 a_u8port , uint8 a_u8pin);GPIO.c: 511: {;GPIO
      +                          .c: 512:     uint8 retVal = 0xFF;
  6031  0ABA  30FF               	movlw	255
  6032  0ABB  00C0               	movwf	??_GPIO_ReadFromPin
  6033  0ABC  0840               	movf	??_GPIO_ReadFromPin,w
  6034  0ABD  00C3               	movwf	GPIO_ReadFromPin@retVal
  6035                           
  6036                           ;GPIO.c: 514:     switch(a_u8port)
  6037  0ABE  2B0A               	goto	l3394
  6038  0ABF                     l3382:	
  6039                           
  6040                           ;GPIO.c: 517:             retVal = ((*(volatile uint8*)0x05 >> a_u8pin) & 0x01);
  6041  0ABF  0805               	movf	5,w	;volatile
  6042  0AC0  00C0               	movwf	??_GPIO_ReadFromPin
  6043  0AC1  0A3F               	incf	GPIO_ReadFromPin@a_u8pin,w
  6044  0AC2  2AC5               	goto	u3744
  6045  0AC3                     u3745:	
  6046  0AC3  1003               	clrc
  6047  0AC4  0CC0               	rrf	??_GPIO_ReadFromPin,f
  6048  0AC5                     u3744:	
  6049  0AC5  3EFF               	addlw	-1
  6050  0AC6  1D03               	skipz
  6051  0AC7  2AC3               	goto	u3745
  6052  0AC8  0840               	movf	??_GPIO_ReadFromPin,w
  6053  0AC9  3901               	andlw	1
  6054  0ACA  00C1               	movwf	??_GPIO_ReadFromPin+1
  6055  0ACB  0841               	movf	??_GPIO_ReadFromPin+1,w
  6056  0ACC  00C3               	movwf	GPIO_ReadFromPin@retVal
  6057                           
  6058                           ;GPIO.c: 518:             break;
  6059  0ACD  2B23               	goto	l3396
  6060  0ACE                     l3384:	
  6061                           
  6062                           ;GPIO.c: 520:             retVal = ((*(volatile uint8*)0x06 >> a_u8pin) & 0x01);
  6063  0ACE  0806               	movf	6,w	;volatile
  6064  0ACF  00C0               	movwf	??_GPIO_ReadFromPin
  6065  0AD0  0A3F               	incf	GPIO_ReadFromPin@a_u8pin,w
  6066  0AD1  2AD4               	goto	u3754
  6067  0AD2                     u3755:	
  6068  0AD2  1003               	clrc
  6069  0AD3  0CC0               	rrf	??_GPIO_ReadFromPin,f
  6070  0AD4                     u3754:	
  6071  0AD4  3EFF               	addlw	-1
  6072  0AD5  1D03               	skipz
  6073  0AD6  2AD2               	goto	u3755
  6074  0AD7  0840               	movf	??_GPIO_ReadFromPin,w
  6075  0AD8  3901               	andlw	1
  6076  0AD9  00C1               	movwf	??_GPIO_ReadFromPin+1
  6077  0ADA  0841               	movf	??_GPIO_ReadFromPin+1,w
  6078  0ADB  00C3               	movwf	GPIO_ReadFromPin@retVal
  6079                           
  6080                           ;GPIO.c: 521:             break;
  6081  0ADC  2B23               	goto	l3396
  6082  0ADD                     l3386:	
  6083                           
  6084                           ;GPIO.c: 523:             retVal = ((*(volatile uint8*)0x07 >> a_u8pin) & 0x01);
  6085  0ADD  0807               	movf	7,w	;volatile
  6086  0ADE  00C0               	movwf	??_GPIO_ReadFromPin
  6087  0ADF  0A3F               	incf	GPIO_ReadFromPin@a_u8pin,w
  6088  0AE0  2AE3               	goto	u3764
  6089  0AE1                     u3765:	
  6090  0AE1  1003               	clrc
  6091  0AE2  0CC0               	rrf	??_GPIO_ReadFromPin,f
  6092  0AE3                     u3764:	
  6093  0AE3  3EFF               	addlw	-1
  6094  0AE4  1D03               	skipz
  6095  0AE5  2AE1               	goto	u3765
  6096  0AE6  0840               	movf	??_GPIO_ReadFromPin,w
  6097  0AE7  3901               	andlw	1
  6098  0AE8  00C1               	movwf	??_GPIO_ReadFromPin+1
  6099  0AE9  0841               	movf	??_GPIO_ReadFromPin+1,w
  6100  0AEA  00C3               	movwf	GPIO_ReadFromPin@retVal
  6101                           
  6102                           ;GPIO.c: 524:             break;
  6103  0AEB  2B23               	goto	l3396
  6104  0AEC                     l3388:	
  6105                           
  6106                           ;GPIO.c: 526:             retVal = ((*(volatile uint8*)0x08 >> a_u8pin) & 0x01);
  6107  0AEC  0808               	movf	8,w	;volatile
  6108  0AED  00C0               	movwf	??_GPIO_ReadFromPin
  6109  0AEE  0A3F               	incf	GPIO_ReadFromPin@a_u8pin,w
  6110  0AEF  2AF2               	goto	u3774
  6111  0AF0                     u3775:	
  6112  0AF0  1003               	clrc
  6113  0AF1  0CC0               	rrf	??_GPIO_ReadFromPin,f
  6114  0AF2                     u3774:	
  6115  0AF2  3EFF               	addlw	-1
  6116  0AF3  1D03               	skipz
  6117  0AF4  2AF0               	goto	u3775
  6118  0AF5  0840               	movf	??_GPIO_ReadFromPin,w
  6119  0AF6  3901               	andlw	1
  6120  0AF7  00C1               	movwf	??_GPIO_ReadFromPin+1
  6121  0AF8  0841               	movf	??_GPIO_ReadFromPin+1,w
  6122  0AF9  00C3               	movwf	GPIO_ReadFromPin@retVal
  6123                           
  6124                           ;GPIO.c: 527:             break;
  6125  0AFA  2B23               	goto	l3396
  6126  0AFB                     l3390:	
  6127                           
  6128                           ;GPIO.c: 529:             retVal = ((*(volatile uint8*)0x09 >> a_u8pin) & 0x01);
  6129  0AFB  0809               	movf	9,w	;volatile
  6130  0AFC  00C0               	movwf	??_GPIO_ReadFromPin
  6131  0AFD  0A3F               	incf	GPIO_ReadFromPin@a_u8pin,w
  6132  0AFE  2B01               	goto	u3784
  6133  0AFF                     u3785:	
  6134  0AFF  1003               	clrc
  6135  0B00  0CC0               	rrf	??_GPIO_ReadFromPin,f
  6136  0B01                     u3784:	
  6137  0B01  3EFF               	addlw	-1
  6138  0B02  1D03               	skipz
  6139  0B03  2AFF               	goto	u3785
  6140  0B04  0840               	movf	??_GPIO_ReadFromPin,w
  6141  0B05  3901               	andlw	1
  6142  0B06  00C1               	movwf	??_GPIO_ReadFromPin+1
  6143  0B07  0841               	movf	??_GPIO_ReadFromPin+1,w
  6144  0B08  00C3               	movwf	GPIO_ReadFromPin@retVal
  6145                           
  6146                           ;GPIO.c: 530:             break;
  6147  0B09  2B23               	goto	l3396
  6148  0B0A                     l3394:	
  6149  0B0A  0842               	movf	GPIO_ReadFromPin@a_u8port,w
  6150  0B0B  00C0               	movwf	??_GPIO_ReadFromPin
  6151  0B0C  01C1               	clrf	??_GPIO_ReadFromPin+1
  6152                           
  6153                           ; Switch on 2 bytes has been partitioned into a top level switch of size 1, and 1 sub-sw
      +                          itches
  6154                           ; Switch size 1, requested type "simple"
  6155                           ; Number of cases is 1, Range of values is 0 to 0
  6156                           ; switch strategies available:
  6157                           ; Name         Instructions Cycles
  6158                           ; simple_byte            4     3 (average)
  6159                           ; direct_byte           11     8 (fixed)
  6160                           ; jumptable            260     6 (fixed)
  6161                           ;	Chosen strategy is simple_byte
  6162  0B0D  0841               	movf	??_GPIO_ReadFromPin+1,w
  6163  0B0E  3A00               	xorlw	0	; case 0
  6164  0B0F  1903               	skipnz
  6165  0B10  2B12               	goto	l4746
  6166  0B11  2B23               	goto	l3396
  6167  0B12                     l4746:	
  6168                           
  6169                           ; Switch size 1, requested type "simple"
  6170                           ; Number of cases is 5, Range of values is 0 to 4
  6171                           ; switch strategies available:
  6172                           ; Name         Instructions Cycles
  6173                           ; simple_byte           16     9 (average)
  6174                           ; direct_byte           23     8 (fixed)
  6175                           ; jumptable            260     6 (fixed)
  6176                           ;	Chosen strategy is simple_byte
  6177  0B12  0840               	movf	??_GPIO_ReadFromPin,w
  6178  0B13  3A00               	xorlw	0	; case 0
  6179  0B14  1903               	skipnz
  6180  0B15  2ABF               	goto	l3382
  6181  0B16  3A01               	xorlw	1	; case 1
  6182  0B17  1903               	skipnz
  6183  0B18  2ACE               	goto	l3384
  6184  0B19  3A03               	xorlw	3	; case 2
  6185  0B1A  1903               	skipnz
  6186  0B1B  2ADD               	goto	l3386
  6187  0B1C  3A01               	xorlw	1	; case 3
  6188  0B1D  1903               	skipnz
  6189  0B1E  2AEC               	goto	l3388
  6190  0B1F  3A07               	xorlw	7	; case 4
  6191  0B20  1903               	skipnz
  6192  0B21  2AFB               	goto	l3390
  6193  0B22  2B23               	goto	l3396
  6194  0B23                     l3396:	
  6195                           
  6196                           ;GPIO.c: 535:     return retVal;
  6197  0B23  0843               	movf	GPIO_ReadFromPin@retVal,w
  6198  0B24                     l260:	
  6199  0B24  0008               	return
  6200  0B25                     __end_of_GPIO_ReadFromPin:	
  6201                           
  6202                           	psect	text33
  6203  13F0                     __ptext33:	
  6204 ;; *************** function _CPU_sleep *****************
  6205 ;; Defined at:
  6206 ;;		line 39 in file "CPU_sleep.c"
  6207 ;; Parameters:    Size  Location     Type
  6208 ;;		None
  6209 ;; Auto vars:     Size  Location     Type
  6210 ;;		None
  6211 ;; Return value:  Size  Location     Type
  6212 ;;                  1    wreg      void 
  6213 ;; Registers used:
  6214 ;;		None
  6215 ;; Tracked objects:
  6216 ;;		On entry : 0/0
  6217 ;;		On exit  : 0/0
  6218 ;;		Unchanged: 0/0
  6219 ;; Data sizes:     COMMON   BANK0   BANK1   BANK3   BANK2
  6220 ;;      Params:         0       0       0       0       0
  6221 ;;      Locals:         0       0       0       0       0
  6222 ;;      Temps:          0       0       0       0       0
  6223 ;;      Totals:         0       0       0       0       0
  6224 ;;Total ram usage:        0 bytes
  6225 ;; Hardware stack levels used:    1
  6226 ;; Hardware stack levels required when called:    3
  6227 ;; This function calls:
  6228 ;;		Nothing
  6229 ;; This function is called by:
  6230 ;;		_Heater_On_Off_Button_Task
  6231 ;; This function uses a non-reentrant model
  6232 ;;
  6233                           
  6234                           
  6235                           ;psect for function _CPU_sleep
  6236  13F0                     _CPU_sleep:	
  6237  13F0                     l3472:	
  6238                           ;incstack = 0
  6239                           ; Regs used in _CPU_sleep: []
  6240                           
  6241  13F0  0063               	sleep	;# 
  6242  13F1                     l76:	
  6243  13F1  0008               	return
  6244  13F2                     __end_of_CPU_sleep:	
  6245                           
  6246                           	psect	text34
  6247  0861                     __ptext34:	
  6248 ;; *************** function ___awmod *****************
  6249 ;; Defined at:
  6250 ;;		line 5 in file "C:\Program Files (x86)\Microchip\xc8\v2.10\pic\sources\c90\common\awmod.c"
  6251 ;; Parameters:    Size  Location     Type
  6252 ;;  divisor         2    0[BANK0 ] int 
  6253 ;;  dividend        2    2[BANK0 ] int 
  6254 ;; Auto vars:     Size  Location     Type
  6255 ;;  sign            1    6[BANK0 ] unsigned char 
  6256 ;;  counter         1    5[BANK0 ] unsigned char 
  6257 ;; Return value:  Size  Location     Type
  6258 ;;                  2    0[BANK0 ] int 
  6259 ;; Registers used:
  6260 ;;		wreg, status,2, status,0
  6261 ;; Tracked objects:
  6262 ;;		On entry : 0/0
  6263 ;;		On exit  : 0/0
  6264 ;;		Unchanged: 0/0
  6265 ;; Data sizes:     COMMON   BANK0   BANK1   BANK3   BANK2
  6266 ;;      Params:         0       4       0       0       0
  6267 ;;      Locals:         0       2       0       0       0
  6268 ;;      Temps:          0       1       0       0       0
  6269 ;;      Totals:         0       7       0       0       0
  6270 ;;Total ram usage:        7 bytes
  6271 ;; Hardware stack levels used:    1
  6272 ;; Hardware stack levels required when called:    3
  6273 ;; This function calls:
  6274 ;;		Nothing
  6275 ;; This function is called by:
  6276 ;;		_Heater_Display_Task
  6277 ;; This function uses a non-reentrant model
  6278 ;;
  6279                           
  6280                           
  6281                           ;psect for function ___awmod
  6282  0861                     ___awmod:	
  6283  0861                     l3716:	
  6284                           ;incstack = 0
  6285                           ; Regs used in ___awmod: [wreg+status,2+status,0]
  6286                           
  6287  0861  1283               	bcf	3,5	;RP0=0, select bank0
  6288  0862  1303               	bcf	3,6	;RP1=0, select bank0
  6289  0863  01C5               	clrf	___awmod@sign
  6290  0864                     l3718:	
  6291  0864  1FC2               	btfss	___awmod@dividend+1,7
  6292  0865  2867               	goto	u4411
  6293  0866  2868               	goto	u4410
  6294  0867                     u4411:	
  6295  0867  286F               	goto	l3724
  6296  0868                     u4410:	
  6297  0868                     l3720:	
  6298  0868  09C1               	comf	___awmod@dividend,f
  6299  0869  09C2               	comf	___awmod@dividend+1,f
  6300  086A  0AC1               	incf	___awmod@dividend,f
  6301  086B  1903               	skipnz
  6302  086C  0AC2               	incf	___awmod@dividend+1,f
  6303  086D                     l3722:	
  6304  086D  01C5               	clrf	___awmod@sign
  6305  086E  0AC5               	incf	___awmod@sign,f
  6306  086F                     l3724:	
  6307  086F  1FC0               	btfss	___awmod@divisor+1,7
  6308  0870  2872               	goto	u4421
  6309  0871  2873               	goto	u4420
  6310  0872                     u4421:	
  6311  0872  2878               	goto	l3728
  6312  0873                     u4420:	
  6313  0873                     l3726:	
  6314  0873  09BF               	comf	___awmod@divisor,f
  6315  0874  09C0               	comf	___awmod@divisor+1,f
  6316  0875  0ABF               	incf	___awmod@divisor,f
  6317  0876  1903               	skipnz
  6318  0877  0AC0               	incf	___awmod@divisor+1,f
  6319  0878                     l3728:	
  6320  0878  083F               	movf	___awmod@divisor,w
  6321  0879  0440               	iorwf	___awmod@divisor+1,w
  6322  087A  1903               	btfsc	3,2
  6323  087B  287D               	goto	u4431
  6324  087C  287E               	goto	u4430
  6325  087D                     u4431:	
  6326  087D  28AD               	goto	l3746
  6327  087E                     u4430:	
  6328  087E                     l3730:	
  6329  087E  01C4               	clrf	___awmod@counter
  6330  087F  0AC4               	incf	___awmod@counter,f
  6331  0880  288C               	goto	l3736
  6332  0881                     l3732:	
  6333  0881  3001               	movlw	1
  6334  0882                     u4445:	
  6335  0882  1003               	clrc
  6336  0883  0DBF               	rlf	___awmod@divisor,f
  6337  0884  0DC0               	rlf	___awmod@divisor+1,f
  6338  0885  3EFF               	addlw	-1
  6339  0886  1D03               	skipz
  6340  0887  2882               	goto	u4445
  6341  0888                     l3734:	
  6342  0888  3001               	movlw	1
  6343  0889  00C3               	movwf	??___awmod
  6344  088A  0843               	movf	??___awmod,w
  6345  088B  07C4               	addwf	___awmod@counter,f
  6346  088C                     l3736:	
  6347  088C  1FC0               	btfss	___awmod@divisor+1,7
  6348  088D  288F               	goto	u4451
  6349  088E  2890               	goto	u4450
  6350  088F                     u4451:	
  6351  088F  2881               	goto	l3732
  6352  0890                     u4450:	
  6353  0890                     l3738:	
  6354  0890  0840               	movf	___awmod@divisor+1,w
  6355  0891  0242               	subwf	___awmod@dividend+1,w
  6356  0892  1D03               	skipz
  6357  0893  2896               	goto	u4465
  6358  0894  083F               	movf	___awmod@divisor,w
  6359  0895  0241               	subwf	___awmod@dividend,w
  6360  0896                     u4465:	
  6361  0896  1C03               	skipc
  6362  0897  2899               	goto	u4461
  6363  0898  289A               	goto	u4460
  6364  0899                     u4461:	
  6365  0899  28A0               	goto	l3742
  6366  089A                     u4460:	
  6367  089A                     l3740:	
  6368  089A  083F               	movf	___awmod@divisor,w
  6369  089B  02C1               	subwf	___awmod@dividend,f
  6370  089C  0840               	movf	___awmod@divisor+1,w
  6371  089D  1C03               	skipc
  6372  089E  03C2               	decf	___awmod@dividend+1,f
  6373  089F  02C2               	subwf	___awmod@dividend+1,f
  6374  08A0                     l3742:	
  6375  08A0  3001               	movlw	1
  6376  08A1                     u4475:	
  6377  08A1  1003               	clrc
  6378  08A2  0CC0               	rrf	___awmod@divisor+1,f
  6379  08A3  0CBF               	rrf	___awmod@divisor,f
  6380  08A4  3EFF               	addlw	-1
  6381  08A5  1D03               	skipz
  6382  08A6  28A1               	goto	u4475
  6383  08A7                     l3744:	
  6384  08A7  3001               	movlw	1
  6385  08A8  02C4               	subwf	___awmod@counter,f
  6386  08A9  1D03               	btfss	3,2
  6387  08AA  28AC               	goto	u4481
  6388  08AB  28AD               	goto	u4480
  6389  08AC                     u4481:	
  6390  08AC  2890               	goto	l3738
  6391  08AD                     u4480:	
  6392  08AD                     l3746:	
  6393  08AD  0845               	movf	___awmod@sign,w
  6394  08AE  1903               	btfsc	3,2
  6395  08AF  28B1               	goto	u4491
  6396  08B0  28B2               	goto	u4490
  6397  08B1                     u4491:	
  6398  08B1  28B7               	goto	l3750
  6399  08B2                     u4490:	
  6400  08B2                     l3748:	
  6401  08B2  09C1               	comf	___awmod@dividend,f
  6402  08B3  09C2               	comf	___awmod@dividend+1,f
  6403  08B4  0AC1               	incf	___awmod@dividend,f
  6404  08B5  1903               	skipnz
  6405  08B6  0AC2               	incf	___awmod@dividend+1,f
  6406  08B7                     l3750:	
  6407  08B7  0842               	movf	___awmod@dividend+1,w
  6408  08B8  00C0               	movwf	?___awmod+1
  6409  08B9  0841               	movf	___awmod@dividend,w
  6410  08BA  00BF               	movwf	?___awmod
  6411  08BB                     l1060:	
  6412  08BB  0008               	return
  6413  08BC                     __end_of___awmod:	
  6414                           
  6415                           	psect	text35
  6416  09E3                     __ptext35:	
  6417 ;; *************** function ___awdiv *****************
  6418 ;; Defined at:
  6419 ;;		line 5 in file "C:\Program Files (x86)\Microchip\xc8\v2.10\pic\sources\c90\common\awdiv.c"
  6420 ;; Parameters:    Size  Location     Type
  6421 ;;  divisor         2    0[BANK0 ] int 
  6422 ;;  dividend        2    2[BANK0 ] int 
  6423 ;; Auto vars:     Size  Location     Type
  6424 ;;  quotient        2    7[BANK0 ] int 
  6425 ;;  sign            1    6[BANK0 ] unsigned char 
  6426 ;;  counter         1    5[BANK0 ] unsigned char 
  6427 ;; Return value:  Size  Location     Type
  6428 ;;                  2    0[BANK0 ] int 
  6429 ;; Registers used:
  6430 ;;		wreg, status,2, status,0
  6431 ;; Tracked objects:
  6432 ;;		On entry : 0/0
  6433 ;;		On exit  : 0/0
  6434 ;;		Unchanged: 0/0
  6435 ;; Data sizes:     COMMON   BANK0   BANK1   BANK3   BANK2
  6436 ;;      Params:         0       4       0       0       0
  6437 ;;      Locals:         0       4       0       0       0
  6438 ;;      Temps:          0       1       0       0       0
  6439 ;;      Totals:         0       9       0       0       0
  6440 ;;Total ram usage:        9 bytes
  6441 ;; Hardware stack levels used:    1
  6442 ;; Hardware stack levels required when called:    3
  6443 ;; This function calls:
  6444 ;;		Nothing
  6445 ;; This function is called by:
  6446 ;;		_Heater_Display_Task
  6447 ;; This function uses a non-reentrant model
  6448 ;;
  6449                           
  6450                           
  6451                           ;psect for function ___awdiv
  6452  09E3                     ___awdiv:	
  6453  09E3                     l3672:	
  6454                           ;incstack = 0
  6455                           ; Regs used in ___awdiv: [wreg+status,2+status,0]
  6456                           
  6457  09E3  1283               	bcf	3,5	;RP0=0, select bank0
  6458  09E4  1303               	bcf	3,6	;RP1=0, select bank0
  6459  09E5  01C5               	clrf	___awdiv@sign
  6460  09E6                     l3674:	
  6461  09E6  1FC0               	btfss	___awdiv@divisor+1,7
  6462  09E7  29E9               	goto	u4311
  6463  09E8  29EA               	goto	u4310
  6464  09E9                     u4311:	
  6465  09E9  29F1               	goto	l3680
  6466  09EA                     u4310:	
  6467  09EA                     l3676:	
  6468  09EA  09BF               	comf	___awdiv@divisor,f
  6469  09EB  09C0               	comf	___awdiv@divisor+1,f
  6470  09EC  0ABF               	incf	___awdiv@divisor,f
  6471  09ED  1903               	skipnz
  6472  09EE  0AC0               	incf	___awdiv@divisor+1,f
  6473  09EF                     l3678:	
  6474  09EF  01C5               	clrf	___awdiv@sign
  6475  09F0  0AC5               	incf	___awdiv@sign,f
  6476  09F1                     l3680:	
  6477  09F1  1FC2               	btfss	___awdiv@dividend+1,7
  6478  09F2  29F4               	goto	u4321
  6479  09F3  29F5               	goto	u4320
  6480  09F4                     u4321:	
  6481  09F4  29FE               	goto	l3686
  6482  09F5                     u4320:	
  6483  09F5                     l3682:	
  6484  09F5  09C1               	comf	___awdiv@dividend,f
  6485  09F6  09C2               	comf	___awdiv@dividend+1,f
  6486  09F7  0AC1               	incf	___awdiv@dividend,f
  6487  09F8  1903               	skipnz
  6488  09F9  0AC2               	incf	___awdiv@dividend+1,f
  6489  09FA                     l3684:	
  6490  09FA  3001               	movlw	1
  6491  09FB  00C3               	movwf	??___awdiv
  6492  09FC  0843               	movf	??___awdiv,w
  6493  09FD  06C5               	xorwf	___awdiv@sign,f
  6494  09FE                     l3686:	
  6495  09FE  01C6               	clrf	___awdiv@quotient
  6496  09FF  01C7               	clrf	___awdiv@quotient+1
  6497  0A00                     l3688:	
  6498  0A00  083F               	movf	___awdiv@divisor,w
  6499  0A01  0440               	iorwf	___awdiv@divisor+1,w
  6500  0A02  1903               	btfsc	3,2
  6501  0A03  2A05               	goto	u4331
  6502  0A04  2A06               	goto	u4330
  6503  0A05                     u4331:	
  6504  0A05  2A3D               	goto	l3708
  6505  0A06                     u4330:	
  6506  0A06                     l3690:	
  6507  0A06  01C4               	clrf	___awdiv@counter
  6508  0A07  0AC4               	incf	___awdiv@counter,f
  6509  0A08  2A14               	goto	l3696
  6510  0A09                     l3692:	
  6511  0A09  3001               	movlw	1
  6512  0A0A                     u4345:	
  6513  0A0A  1003               	clrc
  6514  0A0B  0DBF               	rlf	___awdiv@divisor,f
  6515  0A0C  0DC0               	rlf	___awdiv@divisor+1,f
  6516  0A0D  3EFF               	addlw	-1
  6517  0A0E  1D03               	skipz
  6518  0A0F  2A0A               	goto	u4345
  6519  0A10                     l3694:	
  6520  0A10  3001               	movlw	1
  6521  0A11  00C3               	movwf	??___awdiv
  6522  0A12  0843               	movf	??___awdiv,w
  6523  0A13  07C4               	addwf	___awdiv@counter,f
  6524  0A14                     l3696:	
  6525  0A14  1FC0               	btfss	___awdiv@divisor+1,7
  6526  0A15  2A17               	goto	u4351
  6527  0A16  2A18               	goto	u4350
  6528  0A17                     u4351:	
  6529  0A17  2A09               	goto	l3692
  6530  0A18                     u4350:	
  6531  0A18                     l3698:	
  6532  0A18  3001               	movlw	1
  6533  0A19                     u4365:	
  6534  0A19  1003               	clrc
  6535  0A1A  0DC6               	rlf	___awdiv@quotient,f
  6536  0A1B  0DC7               	rlf	___awdiv@quotient+1,f
  6537  0A1C  3EFF               	addlw	-1
  6538  0A1D  1D03               	skipz
  6539  0A1E  2A19               	goto	u4365
  6540  0A1F  0840               	movf	___awdiv@divisor+1,w
  6541  0A20  0242               	subwf	___awdiv@dividend+1,w
  6542  0A21  1D03               	skipz
  6543  0A22  2A25               	goto	u4375
  6544  0A23  083F               	movf	___awdiv@divisor,w
  6545  0A24  0241               	subwf	___awdiv@dividend,w
  6546  0A25                     u4375:	
  6547  0A25  1C03               	skipc
  6548  0A26  2A28               	goto	u4371
  6549  0A27  2A29               	goto	u4370
  6550  0A28                     u4371:	
  6551  0A28  2A30               	goto	l3704
  6552  0A29                     u4370:	
  6553  0A29                     l3700:	
  6554  0A29  083F               	movf	___awdiv@divisor,w
  6555  0A2A  02C1               	subwf	___awdiv@dividend,f
  6556  0A2B  0840               	movf	___awdiv@divisor+1,w
  6557  0A2C  1C03               	skipc
  6558  0A2D  03C2               	decf	___awdiv@dividend+1,f
  6559  0A2E  02C2               	subwf	___awdiv@dividend+1,f
  6560  0A2F                     l3702:	
  6561  0A2F  1446               	bsf	___awdiv@quotient,0
  6562  0A30                     l3704:	
  6563  0A30  3001               	movlw	1
  6564  0A31                     u4385:	
  6565  0A31  1003               	clrc
  6566  0A32  0CC0               	rrf	___awdiv@divisor+1,f
  6567  0A33  0CBF               	rrf	___awdiv@divisor,f
  6568  0A34  3EFF               	addlw	-1
  6569  0A35  1D03               	skipz
  6570  0A36  2A31               	goto	u4385
  6571  0A37                     l3706:	
  6572  0A37  3001               	movlw	1
  6573  0A38  02C4               	subwf	___awdiv@counter,f
  6574  0A39  1D03               	btfss	3,2
  6575  0A3A  2A3C               	goto	u4391
  6576  0A3B  2A3D               	goto	u4390
  6577  0A3C                     u4391:	
  6578  0A3C  2A18               	goto	l3698
  6579  0A3D                     u4390:	
  6580  0A3D                     l3708:	
  6581  0A3D  0845               	movf	___awdiv@sign,w
  6582  0A3E  1903               	btfsc	3,2
  6583  0A3F  2A41               	goto	u4401
  6584  0A40  2A42               	goto	u4400
  6585  0A41                     u4401:	
  6586  0A41  2A47               	goto	l3712
  6587  0A42                     u4400:	
  6588  0A42                     l3710:	
  6589  0A42  09C6               	comf	___awdiv@quotient,f
  6590  0A43  09C7               	comf	___awdiv@quotient+1,f
  6591  0A44  0AC6               	incf	___awdiv@quotient,f
  6592  0A45  1903               	skipnz
  6593  0A46  0AC7               	incf	___awdiv@quotient+1,f
  6594  0A47                     l3712:	
  6595  0A47  0847               	movf	___awdiv@quotient+1,w
  6596  0A48  00C0               	movwf	?___awdiv+1
  6597  0A49  0846               	movf	___awdiv@quotient,w
  6598  0A4A  00BF               	movwf	?___awdiv
  6599  0A4B                     l1047:	
  6600  0A4B  0008               	return
  6601  0A4C                     __end_of___awdiv:	
  6602                           
  6603                           	psect	text36
  6604  06B2                     __ptext36:	
  6605 ;; *************** function _SevenSegment_SelectChip *****************
  6606 ;; Defined at:
  6607 ;;		line 37 in file "SevenSegment_unportablePart.c"
  6608 ;; Parameters:    Size  Location     Type
  6609 ;;  a_Chip1         1    wreg     enum E2
  6610 ;;  a_Chip2         1    6[BANK0 ] enum E2
  6611 ;;  a_Chip3         1    7[BANK0 ] enum E2
  6612 ;;  a_Chip4         1    8[BANK0 ] enum E2
  6613 ;; Auto vars:     Size  Location     Type
  6614 ;;  a_Chip1         1   10[BANK0 ] enum E2
  6615 ;; Return value:  Size  Location     Type
  6616 ;;                  1    wreg      void 
  6617 ;; Registers used:
  6618 ;;		wreg, fsr0l, fsr0h, status,2, status,0, pclath, cstack
  6619 ;; Tracked objects:
  6620 ;;		On entry : 0/0
  6621 ;;		On exit  : 0/0
  6622 ;;		Unchanged: 0/0
  6623 ;; Data sizes:     COMMON   BANK0   BANK1   BANK3   BANK2
  6624 ;;      Params:         0       3       0       0       0
  6625 ;;      Locals:         0       1       0       0       0
  6626 ;;      Temps:          0       1       0       0       0
  6627 ;;      Totals:         0       5       0       0       0
  6628 ;;Total ram usage:        5 bytes
  6629 ;; Hardware stack levels used:    1
  6630 ;; Hardware stack levels required when called:    4
  6631 ;; This function calls:
  6632 ;;		_GPIO_SetPinDirection
  6633 ;;		_GPIO_WriteOnPin
  6634 ;; This function is called by:
  6635 ;;		_Heater_turn_off
  6636 ;;		_Heater_Display_Task
  6637 ;; This function uses a non-reentrant model
  6638 ;;
  6639                           
  6640                           
  6641                           ;psect for function _SevenSegment_SelectChip
  6642  06B2                     _SevenSegment_SelectChip:	
  6643                           
  6644                           ;incstack = 0
  6645                           ; Regs used in _SevenSegment_SelectChip: [wreg-fsr0h+status,2+status,0+pclath+cstack]
  6646                           ;SevenSegment_SelectChip@a_Chip1 stored from wreg
  6647  06B2  1283               	bcf	3,5	;RP0=0, select bank0
  6648  06B3  1303               	bcf	3,6	;RP1=0, select bank0
  6649  06B4  00C9               	movwf	SevenSegment_SelectChip@a_Chip1
  6650  06B5                     l3404:	
  6651                           
  6652                           ;SevenSegment_unportablePart.c: 37: void SevenSegment_SelectChip(EnumSevenSegment_Status
      +                          _t a_Chip1 , EnumSevenSegment_Status_t a_Chip2 ,;SevenSegment_unportablePart.c: 38:     
      +                                                   EnumSevenSegment_Status_t a_Chip3 , EnumSevenSegment_Status_t a
      +                          _Chip4);SevenSegment_unportablePart.c: 39: {;SevenSegment_unportablePart.c: 41:     if(a
      +                          _Chip1 == SEVEN_SEGMENT_ENABLE_CHIP)
  6653  06B5  0849               	movf	SevenSegment_SelectChip@a_Chip1,w
  6654  06B6  1D03               	btfss	3,2
  6655  06B7  2EB9               	goto	u3791
  6656  06B8  2EBA               	goto	u3790
  6657  06B9                     u3791:	
  6658  06B9  2ED4               	goto	l3408
  6659  06BA                     u3790:	
  6660  06BA                     l3406:	
  6661                           
  6662                           ;SevenSegment_unportablePart.c: 42:     {;SevenSegment_unportablePart.c: 44:         GPI
      +                          O_SetPinDirection(0u , 2u , 0u);
  6663  06BA  3002               	movlw	2
  6664  06BB  00C8               	movwf	??_SevenSegment_SelectChip
  6665  06BC  0848               	movf	??_SevenSegment_SelectChip,w
  6666  06BD  00BF               	movwf	GPIO_SetPinDirection@a_u8pin
  6667  06BE  01C0               	clrf	GPIO_SetPinDirection@a_u8direction
  6668  06BF  3000               	movlw	0
  6669  06C0  120A  118A  205C  120A  118A  	fcall	_GPIO_SetPinDirection
  6670                           
  6671                           ;SevenSegment_unportablePart.c: 45:         GPIO_WriteOnPin(0u , 2u , 1u);
  6672  06C5  3002               	movlw	2
  6673  06C6  1283               	bcf	3,5	;RP0=0, select bank0
  6674  06C7  1303               	bcf	3,6	;RP1=0, select bank0
  6675  06C8  00C8               	movwf	??_SevenSegment_SelectChip
  6676  06C9  0848               	movf	??_SevenSegment_SelectChip,w
  6677  06CA  00BF               	movwf	GPIO_WriteOnPin@a_u8pin
  6678  06CB  01C0               	clrf	GPIO_WriteOnPin@a_u8value
  6679  06CC  0AC0               	incf	GPIO_WriteOnPin@a_u8value,f
  6680  06CD  3000               	movlw	0
  6681  06CE  120A  118A  2277  120A  118A  	fcall	_GPIO_WriteOnPin
  6682                           
  6683                           ;SevenSegment_unportablePart.c: 46:     }
  6684  06D3  2EDF               	goto	l3410
  6685  06D4                     l3408:	
  6686                           
  6687                           ;SevenSegment_unportablePart.c: 48:     {;SevenSegment_unportablePart.c: 50:         GPI
      +                          O_WriteOnPin(0u , 2u , 0u);
  6688  06D4  3002               	movlw	2
  6689  06D5  00C8               	movwf	??_SevenSegment_SelectChip
  6690  06D6  0848               	movf	??_SevenSegment_SelectChip,w
  6691  06D7  00BF               	movwf	GPIO_WriteOnPin@a_u8pin
  6692  06D8  01C0               	clrf	GPIO_WriteOnPin@a_u8value
  6693  06D9  3000               	movlw	0
  6694  06DA  120A  118A  2277  120A  118A  	fcall	_GPIO_WriteOnPin
  6695  06DF                     l3410:	
  6696                           
  6697                           ;SevenSegment_unportablePart.c: 53:     if(a_Chip2 == SEVEN_SEGMENT_ENABLE_CHIP)
  6698  06DF  1283               	bcf	3,5	;RP0=0, select bank0
  6699  06E0  1303               	bcf	3,6	;RP1=0, select bank0
  6700  06E1  0845               	movf	SevenSegment_SelectChip@a_Chip2,w
  6701  06E2  1D03               	btfss	3,2
  6702  06E3  2EE5               	goto	u3801
  6703  06E4  2EE6               	goto	u3800
  6704  06E5                     u3801:	
  6705  06E5  2F00               	goto	l3414
  6706  06E6                     u3800:	
  6707  06E6                     l3412:	
  6708                           
  6709                           ;SevenSegment_unportablePart.c: 54:     {;SevenSegment_unportablePart.c: 56:         GPI
      +                          O_SetPinDirection(0u , 3u , 0u);
  6710  06E6  3003               	movlw	3
  6711  06E7  00C8               	movwf	??_SevenSegment_SelectChip
  6712  06E8  0848               	movf	??_SevenSegment_SelectChip,w
  6713  06E9  00BF               	movwf	GPIO_SetPinDirection@a_u8pin
  6714  06EA  01C0               	clrf	GPIO_SetPinDirection@a_u8direction
  6715  06EB  3000               	movlw	0
  6716  06EC  120A  118A  205C  120A  118A  	fcall	_GPIO_SetPinDirection
  6717                           
  6718                           ;SevenSegment_unportablePart.c: 57:         GPIO_WriteOnPin(0u , 3u , 1u);
  6719  06F1  3003               	movlw	3
  6720  06F2  1283               	bcf	3,5	;RP0=0, select bank0
  6721  06F3  1303               	bcf	3,6	;RP1=0, select bank0
  6722  06F4  00C8               	movwf	??_SevenSegment_SelectChip
  6723  06F5  0848               	movf	??_SevenSegment_SelectChip,w
  6724  06F6  00BF               	movwf	GPIO_WriteOnPin@a_u8pin
  6725  06F7  01C0               	clrf	GPIO_WriteOnPin@a_u8value
  6726  06F8  0AC0               	incf	GPIO_WriteOnPin@a_u8value,f
  6727  06F9  3000               	movlw	0
  6728  06FA  120A  118A  2277  120A  118A  	fcall	_GPIO_WriteOnPin
  6729                           
  6730                           ;SevenSegment_unportablePart.c: 58:     }
  6731  06FF  2F0B               	goto	l3416
  6732  0700                     l3414:	
  6733                           
  6734                           ;SevenSegment_unportablePart.c: 60:     {;SevenSegment_unportablePart.c: 62:         GPI
      +                          O_WriteOnPin(0u , 3u , 0u);
  6735  0700  3003               	movlw	3
  6736  0701  00C8               	movwf	??_SevenSegment_SelectChip
  6737  0702  0848               	movf	??_SevenSegment_SelectChip,w
  6738  0703  00BF               	movwf	GPIO_WriteOnPin@a_u8pin
  6739  0704  01C0               	clrf	GPIO_WriteOnPin@a_u8value
  6740  0705  3000               	movlw	0
  6741  0706  120A  118A  2277  120A  118A  	fcall	_GPIO_WriteOnPin
  6742  070B                     l3416:	
  6743                           
  6744                           ;SevenSegment_unportablePart.c: 65:     if(a_Chip3 == SEVEN_SEGMENT_ENABLE_CHIP)
  6745  070B  1283               	bcf	3,5	;RP0=0, select bank0
  6746  070C  1303               	bcf	3,6	;RP1=0, select bank0
  6747  070D  0846               	movf	SevenSegment_SelectChip@a_Chip3,w
  6748  070E  1D03               	btfss	3,2
  6749  070F  2F11               	goto	u3811
  6750  0710  2F12               	goto	u3810
  6751  0711                     u3811:	
  6752  0711  2F2C               	goto	l3420
  6753  0712                     u3810:	
  6754  0712                     l3418:	
  6755                           
  6756                           ;SevenSegment_unportablePart.c: 66:     {;SevenSegment_unportablePart.c: 68:         GPI
      +                          O_SetPinDirection(0u , 4u , 0u);
  6757  0712  3004               	movlw	4
  6758  0713  00C8               	movwf	??_SevenSegment_SelectChip
  6759  0714  0848               	movf	??_SevenSegment_SelectChip,w
  6760  0715  00BF               	movwf	GPIO_SetPinDirection@a_u8pin
  6761  0716  01C0               	clrf	GPIO_SetPinDirection@a_u8direction
  6762  0717  3000               	movlw	0
  6763  0718  120A  118A  205C  120A  118A  	fcall	_GPIO_SetPinDirection
  6764                           
  6765                           ;SevenSegment_unportablePart.c: 69:         GPIO_WriteOnPin(0u , 4u , 1u);
  6766  071D  3004               	movlw	4
  6767  071E  1283               	bcf	3,5	;RP0=0, select bank0
  6768  071F  1303               	bcf	3,6	;RP1=0, select bank0
  6769  0720  00C8               	movwf	??_SevenSegment_SelectChip
  6770  0721  0848               	movf	??_SevenSegment_SelectChip,w
  6771  0722  00BF               	movwf	GPIO_WriteOnPin@a_u8pin
  6772  0723  01C0               	clrf	GPIO_WriteOnPin@a_u8value
  6773  0724  0AC0               	incf	GPIO_WriteOnPin@a_u8value,f
  6774  0725  3000               	movlw	0
  6775  0726  120A  118A  2277  120A  118A  	fcall	_GPIO_WriteOnPin
  6776                           
  6777                           ;SevenSegment_unportablePart.c: 70:     }
  6778  072B  2F37               	goto	l3422
  6779  072C                     l3420:	
  6780                           
  6781                           ;SevenSegment_unportablePart.c: 72:     {;SevenSegment_unportablePart.c: 74:         GPI
      +                          O_WriteOnPin(0u , 4u , 0u);
  6782  072C  3004               	movlw	4
  6783  072D  00C8               	movwf	??_SevenSegment_SelectChip
  6784  072E  0848               	movf	??_SevenSegment_SelectChip,w
  6785  072F  00BF               	movwf	GPIO_WriteOnPin@a_u8pin
  6786  0730  01C0               	clrf	GPIO_WriteOnPin@a_u8value
  6787  0731  3000               	movlw	0
  6788  0732  120A  118A  2277  120A  118A  	fcall	_GPIO_WriteOnPin
  6789  0737                     l3422:	
  6790                           
  6791                           ;SevenSegment_unportablePart.c: 77:     if(a_Chip4 == SEVEN_SEGMENT_ENABLE_CHIP)
  6792  0737  1283               	bcf	3,5	;RP0=0, select bank0
  6793  0738  1303               	bcf	3,6	;RP1=0, select bank0
  6794  0739  0847               	movf	SevenSegment_SelectChip@a_Chip4,w
  6795  073A  1D03               	btfss	3,2
  6796  073B  2F3D               	goto	u3821
  6797  073C  2F3E               	goto	u3820
  6798  073D                     u3821:	
  6799  073D  2F58               	goto	l3426
  6800  073E                     u3820:	
  6801  073E                     l3424:	
  6802                           
  6803                           ;SevenSegment_unportablePart.c: 78:     {;SevenSegment_unportablePart.c: 80:         GPI
      +                          O_SetPinDirection(0u , 5u , 0u);
  6804  073E  3005               	movlw	5
  6805  073F  00C8               	movwf	??_SevenSegment_SelectChip
  6806  0740  0848               	movf	??_SevenSegment_SelectChip,w
  6807  0741  00BF               	movwf	GPIO_SetPinDirection@a_u8pin
  6808  0742  01C0               	clrf	GPIO_SetPinDirection@a_u8direction
  6809  0743  3000               	movlw	0
  6810  0744  120A  118A  205C  120A  118A  	fcall	_GPIO_SetPinDirection
  6811                           
  6812                           ;SevenSegment_unportablePart.c: 81:         GPIO_WriteOnPin(0u , 5u , 1u);
  6813  0749  3005               	movlw	5
  6814  074A  1283               	bcf	3,5	;RP0=0, select bank0
  6815  074B  1303               	bcf	3,6	;RP1=0, select bank0
  6816  074C  00C8               	movwf	??_SevenSegment_SelectChip
  6817  074D  0848               	movf	??_SevenSegment_SelectChip,w
  6818  074E  00BF               	movwf	GPIO_WriteOnPin@a_u8pin
  6819  074F  01C0               	clrf	GPIO_WriteOnPin@a_u8value
  6820  0750  0AC0               	incf	GPIO_WriteOnPin@a_u8value,f
  6821  0751  3000               	movlw	0
  6822  0752  120A  118A  2277  120A  118A  	fcall	_GPIO_WriteOnPin
  6823                           
  6824                           ;SevenSegment_unportablePart.c: 82:     }
  6825  0757  2F63               	goto	l772
  6826  0758                     l3426:	
  6827                           
  6828                           ;SevenSegment_unportablePart.c: 84:     {;SevenSegment_unportablePart.c: 86:         GPI
      +                          O_WriteOnPin(0u , 5u , 0u);
  6829  0758  3005               	movlw	5
  6830  0759  00C8               	movwf	??_SevenSegment_SelectChip
  6831  075A  0848               	movf	??_SevenSegment_SelectChip,w
  6832  075B  00BF               	movwf	GPIO_WriteOnPin@a_u8pin
  6833  075C  01C0               	clrf	GPIO_WriteOnPin@a_u8value
  6834  075D  3000               	movlw	0
  6835  075E  120A  118A  2277  120A  118A  	fcall	_GPIO_WriteOnPin
  6836  0763                     l772:	
  6837  0763  0008               	return
  6838  0764                     __end_of_SevenSegment_SelectChip:	
  6839                           
  6840                           	psect	text37
  6841  164A                     __ptext37:	
  6842 ;; *************** function _SevenSegment_Display *****************
  6843 ;; Defined at:
  6844 ;;		line 51 in file "SevenSegment.c"
  6845 ;; Parameters:    Size  Location     Type
  6846 ;;  a_u8displayN    1    wreg     unsigned char 
  6847 ;;  a_displayDot    1    9[BANK0 ] enum E10
  6848 ;; Auto vars:     Size  Location     Type
  6849 ;;  a_u8displayN    1   24[BANK0 ] unsigned char 
  6850 ;;  u8numberRepr   10   14[BANK0 ] unsigned char [10]
  6851 ;; Return value:  Size  Location     Type
  6852 ;;                  1    wreg      void 
  6853 ;; Registers used:
  6854 ;;		wreg, fsr0l, fsr0h, status,2, status,0, pclath, cstack
  6855 ;; Tracked objects:
  6856 ;;		On entry : 0/0
  6857 ;;		On exit  : 0/0
  6858 ;;		Unchanged: 0/0
  6859 ;; Data sizes:     COMMON   BANK0   BANK1   BANK3   BANK2
  6860 ;;      Params:         0       1       0       0       0
  6861 ;;      Locals:         0      11       0       0       0
  6862 ;;      Temps:          0       4       0       0       0
  6863 ;;      Totals:         0      16       0       0       0
  6864 ;;Total ram usage:       16 bytes
  6865 ;; Hardware stack levels used:    1
  6866 ;; Hardware stack levels required when called:    4
  6867 ;; This function calls:
  6868 ;;		_GPIO_WriteOnPin
  6869 ;;		_GPIO_WriteOnPort
  6870 ;; This function is called by:
  6871 ;;		_Heater_Display_Task
  6872 ;; This function uses a non-reentrant model
  6873 ;;
  6874                           
  6875                           
  6876                           ;psect for function _SevenSegment_Display
  6877  164A                     _SevenSegment_Display:	
  6878                           
  6879                           ;incstack = 0
  6880                           ; Regs used in _SevenSegment_Display: [wreg-fsr0h+status,2+status,0+pclath+cstack]
  6881                           ;SevenSegment_Display@a_u8displayNumber stored from wreg
  6882  164A  1283               	bcf	3,5	;RP0=0, select bank0
  6883  164B  1303               	bcf	3,6	;RP1=0, select bank0
  6884  164C  00D7               	movwf	SevenSegment_Display@a_u8displayNumber
  6885  164D                     l3604:	
  6886                           
  6887                           ;SevenSegment.c: 51: void SevenSegment_Display(uint8 a_u8displayNumber , EnumSevenSegmen
      +                          t_DotStatus_t a_displayDot);SevenSegment.c: 52: {;SevenSegment.c: 57:     uint8 u8number
      +                          Representation[10] = { 0x3F , 0x06 , 0x5B , 0x4F , 0x66 , 0x6D , 0x7D , 0x07 , 0x7F , 0x
      +                          6F };
  6888  164D  304D               	movlw	SevenSegment_Display@u8numberRepresentation& (0+255)
  6889  164E  0084               	movwf	4
  6890  164F  305E               	movlw	low SevenSegment_Display@F56
  6891  1650  00C9               	movwf	??_SevenSegment_Display
  6892  1651  0804               	movf	4,w
  6893  1652  00CA               	movwf	??_SevenSegment_Display+1
  6894  1653  300A               	movlw	10
  6895  1654  00CB               	movwf	??_SevenSegment_Display+2
  6896  1655                     u4120:	
  6897  1655  0849               	movf	??_SevenSegment_Display,w
  6898  1656  0084               	movwf	4
  6899  1657  1383               	bcf	3,7	;select IRP bank0
  6900  1658  0800               	movf	0,w
  6901  1659  00CC               	movwf	??_SevenSegment_Display+3
  6902  165A  0AC9               	incf	??_SevenSegment_Display,f
  6903  165B  084A               	movf	??_SevenSegment_Display+1,w
  6904  165C  0084               	movwf	4
  6905  165D  084C               	movf	??_SevenSegment_Display+3,w
  6906  165E  0080               	movwf	0
  6907  165F  0ACA               	incf	??_SevenSegment_Display+1,f
  6908  1660  0BCB               	decfsz	??_SevenSegment_Display+2,f
  6909  1661  2E55               	goto	u4120
  6910  1662                     l3606:	
  6911                           
  6912                           ;SevenSegment.c: 60:     GPIO_WriteOnPort(3u , u8numberRepresentation[a_u8displayNumber]
      +                          );
  6913  1662  0857               	movf	SevenSegment_Display@a_u8displayNumber,w
  6914  1663  3E4D               	addlw	(low (SevenSegment_Display@u8numberRepresentation| 0))& (0+255)
  6915  1664  0084               	movwf	4
  6916  1665  0800               	movf	0,w
  6917  1666  00C9               	movwf	??_SevenSegment_Display
  6918  1667  0849               	movf	??_SevenSegment_Display,w
  6919  1668  00BF               	movwf	GPIO_WriteOnPort@a_u8value
  6920  1669  3003               	movlw	3
  6921  166A  160A  118A  2605  160A  118A  	fcall	_GPIO_WriteOnPort
  6922  166F                     l3608:	
  6923                           
  6924                           ;SevenSegment.c: 72:     if(a_displayDot == SEVEN_SEGMENT_DISPLAY_DOT)
  6925  166F  1283               	bcf	3,5	;RP0=0, select bank0
  6926  1670  1303               	bcf	3,6	;RP1=0, select bank0
  6927  1671  0848               	movf	SevenSegment_Display@a_displayDot,w
  6928  1672  1D03               	btfss	3,2
  6929  1673  2E75               	goto	u4131
  6930  1674  2E76               	goto	u4130
  6931  1675                     u4131:	
  6932  1675  2E83               	goto	l3612
  6933  1676                     u4130:	
  6934  1676                     l3610:	
  6935                           
  6936                           ;SevenSegment.c: 73:     {;SevenSegment.c: 74:         GPIO_WriteOnPin(3u , 7u , 1u);
  6937  1676  3007               	movlw	7
  6938  1677  00C9               	movwf	??_SevenSegment_Display
  6939  1678  0849               	movf	??_SevenSegment_Display,w
  6940  1679  00BF               	movwf	GPIO_WriteOnPin@a_u8pin
  6941  167A  01C0               	clrf	GPIO_WriteOnPin@a_u8value
  6942  167B  0AC0               	incf	GPIO_WriteOnPin@a_u8value,f
  6943  167C  3003               	movlw	3
  6944  167D  120A  118A  2277  160A  118A  	fcall	_GPIO_WriteOnPin
  6945                           
  6946                           ;SevenSegment.c: 75:     }
  6947  1682  2E8E               	goto	l757
  6948  1683                     l3612:	
  6949                           
  6950                           ;SevenSegment.c: 77:     {;SevenSegment.c: 78:         GPIO_WriteOnPin(3u , 7u , 0u);
  6951  1683  3007               	movlw	7
  6952  1684  00C9               	movwf	??_SevenSegment_Display
  6953  1685  0849               	movf	??_SevenSegment_Display,w
  6954  1686  00BF               	movwf	GPIO_WriteOnPin@a_u8pin
  6955  1687  01C0               	clrf	GPIO_WriteOnPin@a_u8value
  6956  1688  3003               	movlw	3
  6957  1689  120A  118A  2277  160A  118A  	fcall	_GPIO_WriteOnPin
  6958  168E                     l757:	
  6959  168E  0008               	return
  6960  168F                     __end_of_SevenSegment_Display:	
  6961                           
  6962                           	psect	text38
  6963  1605                     __ptext38:	
  6964 ;; *************** function _GPIO_WriteOnPort *****************
  6965 ;; Defined at:
  6966 ;;		line 463 in file "GPIO.c"
  6967 ;; Parameters:    Size  Location     Type
  6968 ;;  a_u8port        1    wreg     unsigned char 
  6969 ;;  a_u8value       1    0[BANK0 ] unsigned char 
  6970 ;; Auto vars:     Size  Location     Type
  6971 ;;  a_u8port        1    4[BANK0 ] unsigned char 
  6972 ;;  retVal          1    0        enum E10
  6973 ;; Return value:  Size  Location     Type
  6974 ;;                  1    wreg      enum E10
  6975 ;; Registers used:
  6976 ;;		wreg, fsr0l, fsr0h, status,2, status,0
  6977 ;; Tracked objects:
  6978 ;;		On entry : 0/0
  6979 ;;		On exit  : 0/0
  6980 ;;		Unchanged: 0/0
  6981 ;; Data sizes:     COMMON   BANK0   BANK1   BANK3   BANK2
  6982 ;;      Params:         0       1       0       0       0
  6983 ;;      Locals:         0       2       0       0       0
  6984 ;;      Temps:          0       2       0       0       0
  6985 ;;      Totals:         0       5       0       0       0
  6986 ;;Total ram usage:        5 bytes
  6987 ;; Hardware stack levels used:    1
  6988 ;; Hardware stack levels required when called:    3
  6989 ;; This function calls:
  6990 ;;		Nothing
  6991 ;; This function is called by:
  6992 ;;		_SevenSegment_Display
  6993 ;; This function uses a non-reentrant model
  6994 ;;
  6995                           
  6996                           
  6997                           ;psect for function _GPIO_WriteOnPort
  6998  1605                     _GPIO_WriteOnPort:	
  6999                           
  7000                           ;incstack = 0
  7001                           ; Regs used in _GPIO_WriteOnPort: [wreg-fsr0h+status,2+status,0]
  7002                           ;GPIO_WriteOnPort@a_u8port stored from wreg
  7003  1605  1283               	bcf	3,5	;RP0=0, select bank0
  7004  1606  1303               	bcf	3,6	;RP1=0, select bank0
  7005  1607  00C3               	movwf	GPIO_WriteOnPort@a_u8port
  7006  1608                     l3352:	
  7007                           
  7008                           ;GPIO.c: 468:     switch(a_u8port)
  7009  1608  2E30               	goto	l3372
  7010  1609                     l3354:	
  7011                           
  7012                           ;GPIO.c: 471:             *(volatile uint8*)0x05 &= 0x30;
  7013  1609  3030               	movlw	48
  7014  160A  00C0               	movwf	??_GPIO_WriteOnPort
  7015  160B  0840               	movf	??_GPIO_WriteOnPort,w
  7016  160C  0585               	andwf	5,f	;volatile
  7017                           
  7018                           ;GPIO.c: 472:             *(volatile uint8*)0x05 |= (0x3F & a_u8value);
  7019  160D  083F               	movf	GPIO_WriteOnPort@a_u8value,w
  7020  160E  393F               	andlw	63
  7021  160F  00C0               	movwf	??_GPIO_WriteOnPort
  7022  1610  0840               	movf	??_GPIO_WriteOnPort,w
  7023  1611  0485               	iorwf	5,f	;volatile
  7024                           
  7025                           ;GPIO.c: 473:             break;
  7026  1612  2E49               	goto	l249
  7027  1613                     l3356:	
  7028                           
  7029                           ;GPIO.c: 475:             *(volatile uint8*)0x06 &= 0x00;
  7030  1613  0186               	clrf	6	;volatile
  7031  1614                     l3358:	
  7032                           
  7033                           ;GPIO.c: 476:             *(volatile uint8*)0x06 |= a_u8value;
  7034  1614  083F               	movf	GPIO_WriteOnPort@a_u8value,w
  7035  1615  00C0               	movwf	??_GPIO_WriteOnPort
  7036  1616  0840               	movf	??_GPIO_WriteOnPort,w
  7037  1617  0486               	iorwf	6,f	;volatile
  7038                           
  7039                           ;GPIO.c: 477:             break;
  7040  1618  2E49               	goto	l249
  7041  1619                     l3360:	
  7042                           
  7043                           ;GPIO.c: 479:             *(volatile uint8*)0x07 &= 0x00;
  7044  1619  0187               	clrf	7	;volatile
  7045  161A                     l3362:	
  7046                           
  7047                           ;GPIO.c: 480:             *(volatile uint8*)0x07 |= a_u8value;
  7048  161A  083F               	movf	GPIO_WriteOnPort@a_u8value,w
  7049  161B  00C0               	movwf	??_GPIO_WriteOnPort
  7050  161C  0840               	movf	??_GPIO_WriteOnPort,w
  7051  161D  0487               	iorwf	7,f	;volatile
  7052                           
  7053                           ;GPIO.c: 481:             break;
  7054  161E  2E49               	goto	l249
  7055  161F                     l3364:	
  7056                           
  7057                           ;GPIO.c: 483:             *(volatile uint8*)0x08 &= 0x00;
  7058  161F  0188               	clrf	8	;volatile
  7059  1620                     l3366:	
  7060                           
  7061                           ;GPIO.c: 484:             *(volatile uint8*)0x08 |= a_u8value;
  7062  1620  083F               	movf	GPIO_WriteOnPort@a_u8value,w
  7063  1621  00C0               	movwf	??_GPIO_WriteOnPort
  7064  1622  0840               	movf	??_GPIO_WriteOnPort,w
  7065  1623  0488               	iorwf	8,f	;volatile
  7066                           
  7067                           ;GPIO.c: 485:             break;
  7068  1624  2E49               	goto	l249
  7069  1625                     l3368:	
  7070                           
  7071                           ;GPIO.c: 487:             *(volatile uint8*)0x09 &= 0xF8;
  7072  1625  30F8               	movlw	248
  7073  1626  00C0               	movwf	??_GPIO_WriteOnPort
  7074  1627  0840               	movf	??_GPIO_WriteOnPort,w
  7075  1628  0589               	andwf	9,f	;volatile
  7076                           
  7077                           ;GPIO.c: 488:             *(volatile uint8*)0x09 |= (a_u8value & 0x07);
  7078  1629  083F               	movf	GPIO_WriteOnPort@a_u8value,w
  7079  162A  3907               	andlw	7
  7080  162B  00C0               	movwf	??_GPIO_WriteOnPort
  7081  162C  0840               	movf	??_GPIO_WriteOnPort,w
  7082  162D  0489               	iorwf	9,f	;volatile
  7083                           
  7084                           ;GPIO.c: 489:             break;
  7085  162E  2E49               	goto	l249
  7086  162F                     l248:	
  7087                           ;GPIO.c: 490:         default:
  7088                           
  7089                           
  7090                           ;GPIO.c: 493:             break;
  7091  162F  2E49               	goto	l249
  7092  1630                     l3372:	
  7093  1630  0843               	movf	GPIO_WriteOnPort@a_u8port,w
  7094  1631  00C0               	movwf	??_GPIO_WriteOnPort
  7095  1632  01C1               	clrf	??_GPIO_WriteOnPort+1
  7096                           
  7097                           ; Switch on 2 bytes has been partitioned into a top level switch of size 1, and 1 sub-sw
      +                          itches
  7098                           ; Switch size 1, requested type "simple"
  7099                           ; Number of cases is 1, Range of values is 0 to 0
  7100                           ; switch strategies available:
  7101                           ; Name         Instructions Cycles
  7102                           ; simple_byte            4     3 (average)
  7103                           ; direct_byte           11     8 (fixed)
  7104                           ; jumptable            260     6 (fixed)
  7105                           ;	Chosen strategy is simple_byte
  7106  1633  0841               	movf	??_GPIO_WriteOnPort+1,w
  7107  1634  3A00               	xorlw	0	; case 0
  7108  1635  1903               	skipnz
  7109  1636  2E38               	goto	l4748
  7110  1637  2E2F               	goto	l248
  7111  1638                     l4748:	
  7112                           
  7113                           ; Switch size 1, requested type "simple"
  7114                           ; Number of cases is 5, Range of values is 0 to 4
  7115                           ; switch strategies available:
  7116                           ; Name         Instructions Cycles
  7117                           ; simple_byte           16     9 (average)
  7118                           ; direct_byte           23     8 (fixed)
  7119                           ; jumptable            260     6 (fixed)
  7120                           ;	Chosen strategy is simple_byte
  7121  1638  0840               	movf	??_GPIO_WriteOnPort,w
  7122  1639  3A00               	xorlw	0	; case 0
  7123  163A  1903               	skipnz
  7124  163B  2E09               	goto	l3354
  7125  163C  3A01               	xorlw	1	; case 1
  7126  163D  1903               	skipnz
  7127  163E  2E13               	goto	l3356
  7128  163F  3A03               	xorlw	3	; case 2
  7129  1640  1903               	skipnz
  7130  1641  2E19               	goto	l3360
  7131  1642  3A01               	xorlw	1	; case 3
  7132  1643  1903               	skipnz
  7133  1644  2E1F               	goto	l3364
  7134  1645  3A07               	xorlw	7	; case 4
  7135  1646  1903               	skipnz
  7136  1647  2E25               	goto	l3368
  7137  1648  2E2F               	goto	l248
  7138  1649                     l249:	
  7139  1649  0008               	return
  7140  164A                     __end_of_GPIO_WriteOnPort:	
  7141                           
  7142                           	psect	text39
  7143  0277                     __ptext39:	
  7144 ;; *************** function _GPIO_WriteOnPin *****************
  7145 ;; Defined at:
  7146 ;;		line 306 in file "GPIO.c"
  7147 ;; Parameters:    Size  Location     Type
  7148 ;;  a_u8port        1    wreg     unsigned char 
  7149 ;;  a_u8pin         1    0[BANK0 ] unsigned char 
  7150 ;;  a_u8value       1    1[BANK0 ] unsigned char 
  7151 ;; Auto vars:     Size  Location     Type
  7152 ;;  a_u8port        1    4[BANK0 ] unsigned char 
  7153 ;;  retVal          1    0        enum E10
  7154 ;; Return value:  Size  Location     Type
  7155 ;;                  1    wreg      enum E10
  7156 ;; Registers used:
  7157 ;;		wreg, fsr0l, fsr0h, status,2, status,0
  7158 ;; Tracked objects:
  7159 ;;		On entry : 0/0
  7160 ;;		On exit  : 0/0
  7161 ;;		Unchanged: 0/0
  7162 ;; Data sizes:     COMMON   BANK0   BANK1   BANK3   BANK2
  7163 ;;      Params:         0       2       0       0       0
  7164 ;;      Locals:         0       2       0       0       0
  7165 ;;      Temps:          0       2       0       0       0
  7166 ;;      Totals:         0       6       0       0       0
  7167 ;;Total ram usage:        6 bytes
  7168 ;; Hardware stack levels used:    1
  7169 ;; Hardware stack levels required when called:    3
  7170 ;; This function calls:
  7171 ;;		Nothing
  7172 ;; This function is called by:
  7173 ;;		_Heater_turn_off
  7174 ;;		_Heater_LED_Task
  7175 ;;		_Heater_Heating_Cooling_Task
  7176 ;;		_SevenSegment_Display
  7177 ;;		_SevenSegment_SelectChip
  7178 ;; This function uses a non-reentrant model
  7179 ;;
  7180                           
  7181                           
  7182                           ;psect for function _GPIO_WriteOnPin
  7183  0277                     _GPIO_WriteOnPin:	
  7184                           
  7185                           ;incstack = 0
  7186                           ; Regs used in _GPIO_WriteOnPin: [wreg-fsr0h+status,2+status,0]
  7187                           ;GPIO_WriteOnPin@a_u8port stored from wreg
  7188  0277  1283               	bcf	3,5	;RP0=0, select bank0
  7189  0278  1303               	bcf	3,6	;RP1=0, select bank0
  7190  0279  00C3               	movwf	GPIO_WriteOnPin@a_u8port
  7191  027A                     l3234:	
  7192                           
  7193                           ;GPIO.c: 311:     switch(a_u8port)
  7194  027A  2B5D               	goto	l3308
  7195  027B                     l3236:	
  7196                           
  7197                           ;GPIO.c: 315:             if(a_u8pin <= 5u)
  7198  027B  3006               	movlw	6
  7199  027C  023F               	subwf	GPIO_WriteOnPin@a_u8pin,w
  7200  027D  1803               	skipnc
  7201  027E  2A80               	goto	u3361
  7202  027F  2A81               	goto	u3360
  7203  0280                     u3361:	
  7204  0280  2AA8               	goto	l205
  7205  0281                     u3360:	
  7206  0281                     l3238:	
  7207                           
  7208                           ;GPIO.c: 316:             {;GPIO.c: 317:                 if(a_u8value == 1u)
  7209  0281  0340               	decf	GPIO_WriteOnPin@a_u8value,w
  7210  0282  1D03               	btfss	3,2
  7211  0283  2A85               	goto	u3371
  7212  0284  2A86               	goto	u3370
  7213  0285                     u3371:	
  7214  0285  2A94               	goto	l3244
  7215  0286                     u3370:	
  7216  0286                     l3240:	
  7217                           
  7218                           ;GPIO.c: 318:                 {;GPIO.c: 319:                     *(volatile uint8*)0x05 
      +                          |= 1 << a_u8pin;
  7219  0286  3001               	movlw	1
  7220  0287  00C1               	movwf	??_GPIO_WriteOnPin
  7221  0288  0A3F               	incf	GPIO_WriteOnPin@a_u8pin,w
  7222  0289  2A8C               	goto	u3384
  7223  028A                     u3385:	
  7224  028A  1003               	clrc
  7225  028B  0DC1               	rlf	??_GPIO_WriteOnPin,f
  7226  028C                     u3384:	
  7227  028C  3EFF               	addlw	-1
  7228  028D  1D03               	skipz
  7229  028E  2A8A               	goto	u3385
  7230  028F  0841               	movf	??_GPIO_WriteOnPin,w
  7231  0290  00C2               	movwf	??_GPIO_WriteOnPin+1
  7232  0291  0842               	movf	??_GPIO_WriteOnPin+1,w
  7233  0292  0485               	iorwf	5,f	;volatile
  7234  0293                     l3242:	
  7235                           
  7236                           ;GPIO.c: 321:                 }
  7237  0293  2B76               	goto	l238
  7238  0294                     l3244:	
  7239  0294  0840               	movf	GPIO_WriteOnPin@a_u8value,w
  7240  0295  1D03               	btfss	3,2
  7241  0296  2A98               	goto	u3391
  7242  0297  2A99               	goto	u3390
  7243  0298                     u3391:	
  7244  0298  2AA8               	goto	l205
  7245  0299                     u3390:	
  7246  0299                     l3246:	
  7247                           
  7248                           ;GPIO.c: 323:                 {;GPIO.c: 324:                     *(volatile uint8*)0x05 
      +                          &= ~(1 << a_u8pin);
  7249  0299  3001               	movlw	1
  7250  029A  00C1               	movwf	??_GPIO_WriteOnPin
  7251  029B  0A3F               	incf	GPIO_WriteOnPin@a_u8pin,w
  7252  029C  2A9F               	goto	u3404
  7253  029D                     u3405:	
  7254  029D  1003               	clrc
  7255  029E  0DC1               	rlf	??_GPIO_WriteOnPin,f
  7256  029F                     u3404:	
  7257  029F  3EFF               	addlw	-1
  7258  02A0  1D03               	skipz
  7259  02A1  2A9D               	goto	u3405
  7260  02A2  0841               	movf	??_GPIO_WriteOnPin,w
  7261  02A3  3AFF               	xorlw	255
  7262  02A4  00C2               	movwf	??_GPIO_WriteOnPin+1
  7263  02A5  0842               	movf	??_GPIO_WriteOnPin+1,w
  7264  02A6  0585               	andwf	5,f	;volatile
  7265  02A7  2A93               	goto	l3242
  7266  02A8                     l205:	
  7267                           ;GPIO.c: 327:                 else
  7268                           
  7269  02A8  2B76               	goto	l238
  7270  02A9                     l3250:	
  7271                           
  7272                           ;GPIO.c: 341:             if(a_u8pin <= 7u)
  7273  02A9  3008               	movlw	8
  7274  02AA  023F               	subwf	GPIO_WriteOnPin@a_u8pin,w
  7275  02AB  1803               	skipnc
  7276  02AC  2AAE               	goto	u3411
  7277  02AD  2AAF               	goto	u3410
  7278  02AE                     u3411:	
  7279  02AE  2AA8               	goto	l205
  7280  02AF                     u3410:	
  7281  02AF                     l3252:	
  7282                           
  7283                           ;GPIO.c: 342:             {;GPIO.c: 343:                 if(a_u8value == 1u)
  7284  02AF  0340               	decf	GPIO_WriteOnPin@a_u8value,w
  7285  02B0  1D03               	btfss	3,2
  7286  02B1  2AB3               	goto	u3421
  7287  02B2  2AB4               	goto	u3420
  7288  02B3                     u3421:	
  7289  02B3  2AC2               	goto	l3258
  7290  02B4                     u3420:	
  7291  02B4                     l3254:	
  7292                           
  7293                           ;GPIO.c: 344:                 {;GPIO.c: 345:                     *(volatile uint8*)0x06 
      +                          |= 1 << a_u8pin;
  7294  02B4  3001               	movlw	1
  7295  02B5  00C1               	movwf	??_GPIO_WriteOnPin
  7296  02B6  0A3F               	incf	GPIO_WriteOnPin@a_u8pin,w
  7297  02B7  2ABA               	goto	u3434
  7298  02B8                     u3435:	
  7299  02B8  1003               	clrc
  7300  02B9  0DC1               	rlf	??_GPIO_WriteOnPin,f
  7301  02BA                     u3434:	
  7302  02BA  3EFF               	addlw	-1
  7303  02BB  1D03               	skipz
  7304  02BC  2AB8               	goto	u3435
  7305  02BD  0841               	movf	??_GPIO_WriteOnPin,w
  7306  02BE  00C2               	movwf	??_GPIO_WriteOnPin+1
  7307  02BF  0842               	movf	??_GPIO_WriteOnPin+1,w
  7308  02C0  0486               	iorwf	6,f	;volatile
  7309  02C1  2A93               	goto	l3242
  7310  02C2                     l3258:	
  7311  02C2  0840               	movf	GPIO_WriteOnPin@a_u8value,w
  7312  02C3  1D03               	btfss	3,2
  7313  02C4  2AC6               	goto	u3441
  7314  02C5  2AC7               	goto	u3440
  7315  02C6                     u3441:	
  7316  02C6  2AA8               	goto	l205
  7317  02C7                     u3440:	
  7318  02C7                     l3260:	
  7319                           
  7320                           ;GPIO.c: 349:                 {;GPIO.c: 350:                     *(volatile uint8*)0x06 
      +                          &= ~(1 << a_u8pin);
  7321  02C7  3001               	movlw	1
  7322  02C8  00C1               	movwf	??_GPIO_WriteOnPin
  7323  02C9  0A3F               	incf	GPIO_WriteOnPin@a_u8pin,w
  7324  02CA  2ACD               	goto	u3454
  7325  02CB                     u3455:	
  7326  02CB  1003               	clrc
  7327  02CC  0DC1               	rlf	??_GPIO_WriteOnPin,f
  7328  02CD                     u3454:	
  7329  02CD  3EFF               	addlw	-1
  7330  02CE  1D03               	skipz
  7331  02CF  2ACB               	goto	u3455
  7332  02D0  0841               	movf	??_GPIO_WriteOnPin,w
  7333  02D1  3AFF               	xorlw	255
  7334  02D2  00C2               	movwf	??_GPIO_WriteOnPin+1
  7335  02D3  0842               	movf	??_GPIO_WriteOnPin+1,w
  7336  02D4  0586               	andwf	6,f	;volatile
  7337  02D5  2A93               	goto	l3242
  7338  02D6                     l3264:	
  7339                           
  7340                           ;GPIO.c: 367:             if(a_u8pin <= 7u)
  7341  02D6  3008               	movlw	8
  7342  02D7  023F               	subwf	GPIO_WriteOnPin@a_u8pin,w
  7343  02D8  1803               	skipnc
  7344  02D9  2ADB               	goto	u3461
  7345  02DA  2ADC               	goto	u3460
  7346  02DB                     u3461:	
  7347  02DB  2AA8               	goto	l205
  7348  02DC                     u3460:	
  7349  02DC                     l3266:	
  7350                           
  7351                           ;GPIO.c: 368:             {;GPIO.c: 369:                 if(a_u8value == 1u)
  7352  02DC  0340               	decf	GPIO_WriteOnPin@a_u8value,w
  7353  02DD  1D03               	btfss	3,2
  7354  02DE  2AE0               	goto	u3471
  7355  02DF  2AE1               	goto	u3470
  7356  02E0                     u3471:	
  7357  02E0  2AEF               	goto	l3272
  7358  02E1                     u3470:	
  7359  02E1                     l3268:	
  7360                           
  7361                           ;GPIO.c: 370:                 {;GPIO.c: 371:                     *(volatile uint8*)0x07 
      +                          |= 1 << a_u8pin;
  7362  02E1  3001               	movlw	1
  7363  02E2  00C1               	movwf	??_GPIO_WriteOnPin
  7364  02E3  0A3F               	incf	GPIO_WriteOnPin@a_u8pin,w
  7365  02E4  2AE7               	goto	u3484
  7366  02E5                     u3485:	
  7367  02E5  1003               	clrc
  7368  02E6  0DC1               	rlf	??_GPIO_WriteOnPin,f
  7369  02E7                     u3484:	
  7370  02E7  3EFF               	addlw	-1
  7371  02E8  1D03               	skipz
  7372  02E9  2AE5               	goto	u3485
  7373  02EA  0841               	movf	??_GPIO_WriteOnPin,w
  7374  02EB  00C2               	movwf	??_GPIO_WriteOnPin+1
  7375  02EC  0842               	movf	??_GPIO_WriteOnPin+1,w
  7376  02ED  0487               	iorwf	7,f	;volatile
  7377  02EE  2A93               	goto	l3242
  7378  02EF                     l3272:	
  7379  02EF  0840               	movf	GPIO_WriteOnPin@a_u8value,w
  7380  02F0  1D03               	btfss	3,2
  7381  02F1  2AF3               	goto	u3491
  7382  02F2  2AF4               	goto	u3490
  7383  02F3                     u3491:	
  7384  02F3  2AA8               	goto	l205
  7385  02F4                     u3490:	
  7386  02F4                     l3274:	
  7387                           
  7388                           ;GPIO.c: 375:                 {;GPIO.c: 376:                     *(volatile uint8*)0x07 
      +                          &= ~(1 << a_u8pin);
  7389  02F4  3001               	movlw	1
  7390  02F5  00C1               	movwf	??_GPIO_WriteOnPin
  7391  02F6  0A3F               	incf	GPIO_WriteOnPin@a_u8pin,w
  7392  02F7  2AFA               	goto	u3504
  7393  02F8                     u3505:	
  7394  02F8  1003               	clrc
  7395  02F9  0DC1               	rlf	??_GPIO_WriteOnPin,f
  7396  02FA                     u3504:	
  7397  02FA  3EFF               	addlw	-1
  7398  02FB  1D03               	skipz
  7399  02FC  2AF8               	goto	u3505
  7400  02FD  0841               	movf	??_GPIO_WriteOnPin,w
  7401  02FE  3AFF               	xorlw	255
  7402  02FF  00C2               	movwf	??_GPIO_WriteOnPin+1
  7403  0300  0842               	movf	??_GPIO_WriteOnPin+1,w
  7404  0301  0587               	andwf	7,f	;volatile
  7405  0302  2A93               	goto	l3242
  7406  0303                     l3278:	
  7407                           
  7408                           ;GPIO.c: 393:             if(a_u8pin <= 7u)
  7409  0303  3008               	movlw	8
  7410  0304  023F               	subwf	GPIO_WriteOnPin@a_u8pin,w
  7411  0305  1803               	skipnc
  7412  0306  2B08               	goto	u3511
  7413  0307  2B09               	goto	u3510
  7414  0308                     u3511:	
  7415  0308  2AA8               	goto	l205
  7416  0309                     u3510:	
  7417  0309                     l3280:	
  7418                           
  7419                           ;GPIO.c: 394:             {;GPIO.c: 395:                 if(a_u8value == 1u)
  7420  0309  0340               	decf	GPIO_WriteOnPin@a_u8value,w
  7421  030A  1D03               	btfss	3,2
  7422  030B  2B0D               	goto	u3521
  7423  030C  2B0E               	goto	u3520
  7424  030D                     u3521:	
  7425  030D  2B1C               	goto	l3286
  7426  030E                     u3520:	
  7427  030E                     l3282:	
  7428                           
  7429                           ;GPIO.c: 396:                 {;GPIO.c: 397:                     *(volatile uint8*)0x08 
      +                          |= 1 << a_u8pin;
  7430  030E  3001               	movlw	1
  7431  030F  00C1               	movwf	??_GPIO_WriteOnPin
  7432  0310  0A3F               	incf	GPIO_WriteOnPin@a_u8pin,w
  7433  0311  2B14               	goto	u3534
  7434  0312                     u3535:	
  7435  0312  1003               	clrc
  7436  0313  0DC1               	rlf	??_GPIO_WriteOnPin,f
  7437  0314                     u3534:	
  7438  0314  3EFF               	addlw	-1
  7439  0315  1D03               	skipz
  7440  0316  2B12               	goto	u3535
  7441  0317  0841               	movf	??_GPIO_WriteOnPin,w
  7442  0318  00C2               	movwf	??_GPIO_WriteOnPin+1
  7443  0319  0842               	movf	??_GPIO_WriteOnPin+1,w
  7444  031A  0488               	iorwf	8,f	;volatile
  7445  031B  2A93               	goto	l3242
  7446  031C                     l3286:	
  7447  031C  0840               	movf	GPIO_WriteOnPin@a_u8value,w
  7448  031D  1D03               	btfss	3,2
  7449  031E  2B20               	goto	u3541
  7450  031F  2B21               	goto	u3540
  7451  0320                     u3541:	
  7452  0320  2AA8               	goto	l205
  7453  0321                     u3540:	
  7454  0321                     l3288:	
  7455                           
  7456                           ;GPIO.c: 401:                 {;GPIO.c: 402:                     *(volatile uint8*)0x08 
      +                          &= ~(1 << a_u8pin);
  7457  0321  3001               	movlw	1
  7458  0322  00C1               	movwf	??_GPIO_WriteOnPin
  7459  0323  0A3F               	incf	GPIO_WriteOnPin@a_u8pin,w
  7460  0324  2B27               	goto	u3554
  7461  0325                     u3555:	
  7462  0325  1003               	clrc
  7463  0326  0DC1               	rlf	??_GPIO_WriteOnPin,f
  7464  0327                     u3554:	
  7465  0327  3EFF               	addlw	-1
  7466  0328  1D03               	skipz
  7467  0329  2B25               	goto	u3555
  7468  032A  0841               	movf	??_GPIO_WriteOnPin,w
  7469  032B  3AFF               	xorlw	255
  7470  032C  00C2               	movwf	??_GPIO_WriteOnPin+1
  7471  032D  0842               	movf	??_GPIO_WriteOnPin+1,w
  7472  032E  0588               	andwf	8,f	;volatile
  7473  032F  2A93               	goto	l3242
  7474  0330                     l3292:	
  7475                           
  7476                           ;GPIO.c: 419:             if(a_u8pin < 3u)
  7477  0330  3003               	movlw	3
  7478  0331  023F               	subwf	GPIO_WriteOnPin@a_u8pin,w
  7479  0332  1803               	skipnc
  7480  0333  2B35               	goto	u3561
  7481  0334  2B36               	goto	u3560
  7482  0335                     u3561:	
  7483  0335  2AA8               	goto	l205
  7484  0336                     u3560:	
  7485  0336                     l3294:	
  7486                           
  7487                           ;GPIO.c: 420:             {;GPIO.c: 421:                 if(a_u8value == 1u)
  7488  0336  0340               	decf	GPIO_WriteOnPin@a_u8value,w
  7489  0337  1D03               	btfss	3,2
  7490  0338  2B3A               	goto	u3571
  7491  0339  2B3B               	goto	u3570
  7492  033A                     u3571:	
  7493  033A  2B49               	goto	l3300
  7494  033B                     u3570:	
  7495  033B                     l3296:	
  7496                           
  7497                           ;GPIO.c: 422:                 {;GPIO.c: 423:                     *(volatile uint8*)0x09 
      +                          |= 1 << a_u8pin;
  7498  033B  3001               	movlw	1
  7499  033C  00C1               	movwf	??_GPIO_WriteOnPin
  7500  033D  0A3F               	incf	GPIO_WriteOnPin@a_u8pin,w
  7501  033E  2B41               	goto	u3584
  7502  033F                     u3585:	
  7503  033F  1003               	clrc
  7504  0340  0DC1               	rlf	??_GPIO_WriteOnPin,f
  7505  0341                     u3584:	
  7506  0341  3EFF               	addlw	-1
  7507  0342  1D03               	skipz
  7508  0343  2B3F               	goto	u3585
  7509  0344  0841               	movf	??_GPIO_WriteOnPin,w
  7510  0345  00C2               	movwf	??_GPIO_WriteOnPin+1
  7511  0346  0842               	movf	??_GPIO_WriteOnPin+1,w
  7512  0347  0489               	iorwf	9,f	;volatile
  7513  0348  2A93               	goto	l3242
  7514  0349                     l3300:	
  7515  0349  0840               	movf	GPIO_WriteOnPin@a_u8value,w
  7516  034A  1D03               	btfss	3,2
  7517  034B  2B4D               	goto	u3591
  7518  034C  2B4E               	goto	u3590
  7519  034D                     u3591:	
  7520  034D  2AA8               	goto	l205
  7521  034E                     u3590:	
  7522  034E                     l3302:	
  7523                           
  7524                           ;GPIO.c: 427:                 {;GPIO.c: 428:                     *(volatile uint8*)0x09 
      +                          &= ~(1 << a_u8pin);
  7525  034E  3001               	movlw	1
  7526  034F  00C1               	movwf	??_GPIO_WriteOnPin
  7527  0350  0A3F               	incf	GPIO_WriteOnPin@a_u8pin,w
  7528  0351  2B54               	goto	u3604
  7529  0352                     u3605:	
  7530  0352  1003               	clrc
  7531  0353  0DC1               	rlf	??_GPIO_WriteOnPin,f
  7532  0354                     u3604:	
  7533  0354  3EFF               	addlw	-1
  7534  0355  1D03               	skipz
  7535  0356  2B52               	goto	u3605
  7536  0357  0841               	movf	??_GPIO_WriteOnPin,w
  7537  0358  3AFF               	xorlw	255
  7538  0359  00C2               	movwf	??_GPIO_WriteOnPin+1
  7539  035A  0842               	movf	??_GPIO_WriteOnPin+1,w
  7540  035B  0589               	andwf	9,f	;volatile
  7541  035C  2A93               	goto	l3242
  7542  035D                     l3308:	
  7543  035D  0843               	movf	GPIO_WriteOnPin@a_u8port,w
  7544  035E  00C1               	movwf	??_GPIO_WriteOnPin
  7545  035F  01C2               	clrf	??_GPIO_WriteOnPin+1
  7546                           
  7547                           ; Switch on 2 bytes has been partitioned into a top level switch of size 1, and 1 sub-sw
      +                          itches
  7548                           ; Switch size 1, requested type "simple"
  7549                           ; Number of cases is 1, Range of values is 0 to 0
  7550                           ; switch strategies available:
  7551                           ; Name         Instructions Cycles
  7552                           ; simple_byte            4     3 (average)
  7553                           ; direct_byte           11     8 (fixed)
  7554                           ; jumptable            260     6 (fixed)
  7555                           ;	Chosen strategy is simple_byte
  7556  0360  0842               	movf	??_GPIO_WriteOnPin+1,w
  7557  0361  3A00               	xorlw	0	; case 0
  7558  0362  1903               	skipnz
  7559  0363  2B65               	goto	l4750
  7560  0364  2AA8               	goto	l205
  7561  0365                     l4750:	
  7562                           
  7563                           ; Switch size 1, requested type "simple"
  7564                           ; Number of cases is 5, Range of values is 0 to 4
  7565                           ; switch strategies available:
  7566                           ; Name         Instructions Cycles
  7567                           ; simple_byte           16     9 (average)
  7568                           ; direct_byte           23     8 (fixed)
  7569                           ; jumptable            260     6 (fixed)
  7570                           ;	Chosen strategy is simple_byte
  7571  0365  0841               	movf	??_GPIO_WriteOnPin,w
  7572  0366  3A00               	xorlw	0	; case 0
  7573  0367  1903               	skipnz
  7574  0368  2A7B               	goto	l3236
  7575  0369  3A01               	xorlw	1	; case 1
  7576  036A  1903               	skipnz
  7577  036B  2AA9               	goto	l3250
  7578  036C  3A03               	xorlw	3	; case 2
  7579  036D  1903               	skipnz
  7580  036E  2AD6               	goto	l3264
  7581  036F  3A01               	xorlw	1	; case 3
  7582  0370  1903               	skipnz
  7583  0371  2B03               	goto	l3278
  7584  0372  3A07               	xorlw	7	; case 4
  7585  0373  1903               	skipnz
  7586  0374  2B30               	goto	l3292
  7587  0375  2AA8               	goto	l205
  7588  0376                     l238:	
  7589  0376  0008               	return
  7590  0377                     __end_of_GPIO_WriteOnPin:	
  7591                           
  7592                           	psect	text40
  7593  0F54                     __ptext40:	
  7594 ;; *************** function _Heater_Initialization *****************
  7595 ;; Defined at:
  7596 ;;		line 190 in file "heater.c"
  7597 ;; Parameters:    Size  Location     Type
  7598 ;;		None
  7599 ;; Auto vars:     Size  Location     Type
  7600 ;;		None
  7601 ;; Return value:  Size  Location     Type
  7602 ;;                  1    wreg      void 
  7603 ;; Registers used:
  7604 ;;		wreg, fsr0l, fsr0h, status,2, status,0, pclath, cstack
  7605 ;; Tracked objects:
  7606 ;;		On entry : 0/0
  7607 ;;		On exit  : 0/0
  7608 ;;		Unchanged: 0/0
  7609 ;; Data sizes:     COMMON   BANK0   BANK1   BANK3   BANK2
  7610 ;;      Params:         0       0       0       0       0
  7611 ;;      Locals:         0       0       0       0       0
  7612 ;;      Temps:          0       1       0       0       0
  7613 ;;      Totals:         0       1       0       0       0
  7614 ;;Total ram usage:        1 bytes
  7615 ;; Hardware stack levels used:    1
  7616 ;; Hardware stack levels required when called:    6
  7617 ;; This function calls:
  7618 ;;		_ADC_Initialization
  7619 ;;		_ADC_Select_prescaler
  7620 ;;		_EEPROM_Initialization
  7621 ;;		_External_interrupt_enable
  7622 ;;		_External_interrupt_select_falling_edge
  7623 ;;		_GPIO_Enable_Pull_Up_On_PortB
  7624 ;;		_GPIO_SetPinDirection
  7625 ;;		_SevenSegment_Initialization
  7626 ;; This function is called by:
  7627 ;;		_main
  7628 ;; This function uses a non-reentrant model
  7629 ;;
  7630                           
  7631                           
  7632                           ;psect for function _Heater_Initialization
  7633  0F54                     _Heater_Initialization:	
  7634  0F54                     l4174:	
  7635                           ;incstack = 0
  7636                           ; Regs used in _Heater_Initialization: [wreg-fsr0h+status,2+status,0+pclath+cstack]
  7637                           
  7638                           
  7639                           ;heater.c: 193:     EEPROM_Initialization();
  7640  0F54  120A  158A  2001  120A  158A  	fcall	_EEPROM_Initialization
  7641  0F59                     l4176:	
  7642                           
  7643                           ;heater.c: 195:     SevenSegment_Initialization();
  7644  0F59  160A  118A  2418  120A  158A  	fcall	_SevenSegment_Initialization
  7645  0F5E                     l4178:	
  7646                           
  7647                           ;heater.c: 197:     GPIO_Enable_Pull_Up_On_PortB();
  7648  0F5E  160A  118A  240F  120A  158A  	fcall	_GPIO_Enable_Pull_Up_On_PortB
  7649                           
  7650                           ;heater.c: 199:     GPIO_SetPinDirection(2u , 2u , 0u);
  7651  0F63  3002               	movlw	2
  7652  0F64  1283               	bcf	3,5	;RP0=0, select bank0
  7653  0F65  1303               	bcf	3,6	;RP1=0, select bank0
  7654  0F66  00D5               	movwf	??_Heater_Initialization
  7655  0F67  0855               	movf	??_Heater_Initialization,w
  7656  0F68  00BF               	movwf	GPIO_SetPinDirection@a_u8pin
  7657  0F69  01C0               	clrf	GPIO_SetPinDirection@a_u8direction
  7658  0F6A  3002               	movlw	2
  7659  0F6B  120A  118A  205C  120A  158A  	fcall	_GPIO_SetPinDirection
  7660                           
  7661                           ;heater.c: 201:     ADC_Initialization(ADC_CHANNEL_2 , ADC_V_REF_DEFAULT_VALUE , ADC_V_R
      +                          EF_DEFAULT_VALUE);
  7662  0F70  1283               	bcf	3,5	;RP0=0, select bank0
  7663  0F71  1303               	bcf	3,6	;RP1=0, select bank0
  7664  0F72  01BF               	clrf	ADC_Initialization@a_ADC_Vref_high_t
  7665  0F73  0ABF               	incf	ADC_Initialization@a_ADC_Vref_high_t,f
  7666  0F74  01C0               	clrf	ADC_Initialization@a_ADC_Vref_low_t
  7667  0F75  0AC0               	incf	ADC_Initialization@a_ADC_Vref_low_t,f
  7668  0F76  3002               	movlw	2
  7669  0F77  120A  118A  2170  120A  158A  	fcall	_ADC_Initialization
  7670                           
  7671                           ;heater.c: 202:     ADC_Select_prescaler(ADC_PRESCALER_16);
  7672  0F7C  3005               	movlw	5
  7673  0F7D  120A  158A  224C  120A  158A  	fcall	_ADC_Select_prescaler
  7674                           
  7675                           ;heater.c: 204:     GPIO_SetPinDirection(2u , 5u , 0u);
  7676  0F82  3005               	movlw	5
  7677  0F83  1283               	bcf	3,5	;RP0=0, select bank0
  7678  0F84  1303               	bcf	3,6	;RP1=0, select bank0
  7679  0F85  00D5               	movwf	??_Heater_Initialization
  7680  0F86  0855               	movf	??_Heater_Initialization,w
  7681  0F87  00BF               	movwf	GPIO_SetPinDirection@a_u8pin
  7682  0F88  01C0               	clrf	GPIO_SetPinDirection@a_u8direction
  7683  0F89  3002               	movlw	2
  7684  0F8A  120A  118A  205C  120A  158A  	fcall	_GPIO_SetPinDirection
  7685                           
  7686                           ;heater.c: 206:     GPIO_SetPinDirection(1u , 3u , 0u);
  7687  0F8F  3003               	movlw	3
  7688  0F90  1283               	bcf	3,5	;RP0=0, select bank0
  7689  0F91  1303               	bcf	3,6	;RP1=0, select bank0
  7690  0F92  00D5               	movwf	??_Heater_Initialization
  7691  0F93  0855               	movf	??_Heater_Initialization,w
  7692  0F94  00BF               	movwf	GPIO_SetPinDirection@a_u8pin
  7693  0F95  01C0               	clrf	GPIO_SetPinDirection@a_u8direction
  7694  0F96  3001               	movlw	1
  7695  0F97  120A  118A  205C  120A  158A  	fcall	_GPIO_SetPinDirection
  7696                           
  7697                           ;heater.c: 207:     GPIO_SetPinDirection(1u , 4u , 0u);
  7698  0F9C  3004               	movlw	4
  7699  0F9D  1283               	bcf	3,5	;RP0=0, select bank0
  7700  0F9E  1303               	bcf	3,6	;RP1=0, select bank0
  7701  0F9F  00D5               	movwf	??_Heater_Initialization
  7702  0FA0  0855               	movf	??_Heater_Initialization,w
  7703  0FA1  00BF               	movwf	GPIO_SetPinDirection@a_u8pin
  7704  0FA2  01C0               	clrf	GPIO_SetPinDirection@a_u8direction
  7705  0FA3  3001               	movlw	1
  7706  0FA4  120A  118A  205C  120A  158A  	fcall	_GPIO_SetPinDirection
  7707                           
  7708                           ;heater.c: 208:     GPIO_SetPinDirection(1u , 5u , 0u);
  7709  0FA9  3005               	movlw	5
  7710  0FAA  1283               	bcf	3,5	;RP0=0, select bank0
  7711  0FAB  1303               	bcf	3,6	;RP1=0, select bank0
  7712  0FAC  00D5               	movwf	??_Heater_Initialization
  7713  0FAD  0855               	movf	??_Heater_Initialization,w
  7714  0FAE  00BF               	movwf	GPIO_SetPinDirection@a_u8pin
  7715  0FAF  01C0               	clrf	GPIO_SetPinDirection@a_u8direction
  7716  0FB0  3001               	movlw	1
  7717  0FB1  120A  118A  205C  120A  158A  	fcall	_GPIO_SetPinDirection
  7718                           
  7719                           ;heater.c: 209:     GPIO_SetPinDirection(1u , 6u , 0u);
  7720  0FB6  3006               	movlw	6
  7721  0FB7  1283               	bcf	3,5	;RP0=0, select bank0
  7722  0FB8  1303               	bcf	3,6	;RP1=0, select bank0
  7723  0FB9  00D5               	movwf	??_Heater_Initialization
  7724  0FBA  0855               	movf	??_Heater_Initialization,w
  7725  0FBB  00BF               	movwf	GPIO_SetPinDirection@a_u8pin
  7726  0FBC  01C0               	clrf	GPIO_SetPinDirection@a_u8direction
  7727  0FBD  3001               	movlw	1
  7728  0FBE  120A  118A  205C  120A  158A  	fcall	_GPIO_SetPinDirection
  7729                           
  7730                           ;heater.c: 210:     GPIO_SetPinDirection(1u , 7u , 0u);
  7731  0FC3  3007               	movlw	7
  7732  0FC4  1283               	bcf	3,5	;RP0=0, select bank0
  7733  0FC5  1303               	bcf	3,6	;RP1=0, select bank0
  7734  0FC6  00D5               	movwf	??_Heater_Initialization
  7735  0FC7  0855               	movf	??_Heater_Initialization,w
  7736  0FC8  00BF               	movwf	GPIO_SetPinDirection@a_u8pin
  7737  0FC9  01C0               	clrf	GPIO_SetPinDirection@a_u8direction
  7738  0FCA  3001               	movlw	1
  7739  0FCB  120A  118A  205C  120A  158A  	fcall	_GPIO_SetPinDirection
  7740                           
  7741                           ;heater.c: 212:     GPIO_SetPinDirection(1u , 2u , 1u);
  7742  0FD0  3002               	movlw	2
  7743  0FD1  1283               	bcf	3,5	;RP0=0, select bank0
  7744  0FD2  1303               	bcf	3,6	;RP1=0, select bank0
  7745  0FD3  00D5               	movwf	??_Heater_Initialization
  7746  0FD4  0855               	movf	??_Heater_Initialization,w
  7747  0FD5  00BF               	movwf	GPIO_SetPinDirection@a_u8pin
  7748  0FD6  01C0               	clrf	GPIO_SetPinDirection@a_u8direction
  7749  0FD7  0AC0               	incf	GPIO_SetPinDirection@a_u8direction,f
  7750  0FD8  3001               	movlw	1
  7751  0FD9  120A  118A  205C  120A  158A  	fcall	_GPIO_SetPinDirection
  7752                           
  7753                           ;heater.c: 214:     GPIO_SetPinDirection(1u , 1u , 1u);
  7754  0FDE  1283               	bcf	3,5	;RP0=0, select bank0
  7755  0FDF  1303               	bcf	3,6	;RP1=0, select bank0
  7756  0FE0  01BF               	clrf	GPIO_SetPinDirection@a_u8pin
  7757  0FE1  0ABF               	incf	GPIO_SetPinDirection@a_u8pin,f
  7758  0FE2  01C0               	clrf	GPIO_SetPinDirection@a_u8direction
  7759  0FE3  0AC0               	incf	GPIO_SetPinDirection@a_u8direction,f
  7760  0FE4  3001               	movlw	1
  7761  0FE5  120A  118A  205C  120A  158A  	fcall	_GPIO_SetPinDirection
  7762                           
  7763                           ;heater.c: 216:     GPIO_SetPinDirection(1u , 0u , 1u);
  7764  0FEA  1283               	bcf	3,5	;RP0=0, select bank0
  7765  0FEB  1303               	bcf	3,6	;RP1=0, select bank0
  7766  0FEC  01BF               	clrf	GPIO_SetPinDirection@a_u8pin
  7767  0FED  01C0               	clrf	GPIO_SetPinDirection@a_u8direction
  7768  0FEE  0AC0               	incf	GPIO_SetPinDirection@a_u8direction,f
  7769  0FEF  3001               	movlw	1
  7770  0FF0  120A  118A  205C  120A  158A  	fcall	_GPIO_SetPinDirection
  7771  0FF5                     l4180:	
  7772                           
  7773                           ;heater.c: 218:     External_interrupt_select_falling_edge();
  7774  0FF5  160A  118A  2406  120A  158A  	fcall	_External_interrupt_select_falling_edge
  7775  0FFA                     l4182:	
  7776                           
  7777                           ;heater.c: 220:     External_interrupt_enable();
  7778  0FFA  160A  118A  23EE  120A  158A  	fcall	_External_interrupt_enable
  7779  0FFF                     l392:	
  7780  0FFF  0008               	return
  7781  1000                     __end_of_Heater_Initialization:	
  7782                           
  7783                           	psect	text41
  7784  1418                     __ptext41:	
  7785 ;; *************** function _SevenSegment_Initialization *****************
  7786 ;; Defined at:
  7787 ;;		line 34 in file "SevenSegment.c"
  7788 ;; Parameters:    Size  Location     Type
  7789 ;;		None
  7790 ;; Auto vars:     Size  Location     Type
  7791 ;;		None
  7792 ;; Return value:  Size  Location     Type
  7793 ;;                  1    wreg      void 
  7794 ;; Registers used:
  7795 ;;		wreg, fsr0l, fsr0h, status,2, status,0, pclath, cstack
  7796 ;; Tracked objects:
  7797 ;;		On entry : 0/0
  7798 ;;		On exit  : 0/0
  7799 ;;		Unchanged: 0/0
  7800 ;; Data sizes:     COMMON   BANK0   BANK1   BANK3   BANK2
  7801 ;;      Params:         0       0       0       0       0
  7802 ;;      Locals:         0       0       0       0       0
  7803 ;;      Temps:          0       0       0       0       0
  7804 ;;      Totals:         0       0       0       0       0
  7805 ;;Total ram usage:        0 bytes
  7806 ;; Hardware stack levels used:    1
  7807 ;; Hardware stack levels required when called:    4
  7808 ;; This function calls:
  7809 ;;		_GPIO_SetPortDirection
  7810 ;; This function is called by:
  7811 ;;		_Heater_Initialization
  7812 ;; This function uses a non-reentrant model
  7813 ;;
  7814                           
  7815                           
  7816                           ;psect for function _SevenSegment_Initialization
  7817  1418                     _SevenSegment_Initialization:	
  7818  1418                     l3894:	
  7819                           ;incstack = 0
  7820                           ; Regs used in _SevenSegment_Initialization: [wreg-fsr0h+status,2+status,0+pclath+cstack
      +                          ]
  7821                           
  7822                           
  7823                           ;SevenSegment.c: 36:     GPIO_SetPortDirection(3u , 0u);
  7824  1418  1283               	bcf	3,5	;RP0=0, select bank0
  7825  1419  1303               	bcf	3,6	;RP1=0, select bank0
  7826  141A  01BF               	clrf	GPIO_SetPortDirection@a_u8direction
  7827  141B  3003               	movlw	3
  7828  141C  120A  158A  2595  160A  118A  	fcall	_GPIO_SetPortDirection
  7829  1421                     l750:	
  7830  1421  0008               	return
  7831  1422                     __end_of_SevenSegment_Initialization:	
  7832                           
  7833                           	psect	text42
  7834  0D95                     __ptext42:	
  7835 ;; *************** function _GPIO_SetPortDirection *****************
  7836 ;; Defined at:
  7837 ;;		line 193 in file "GPIO.c"
  7838 ;; Parameters:    Size  Location     Type
  7839 ;;  a_u8port        1    wreg     unsigned char 
  7840 ;;  a_u8directio    1    0[BANK0 ] unsigned char 
  7841 ;; Auto vars:     Size  Location     Type
  7842 ;;  a_u8port        1    3[BANK0 ] unsigned char 
  7843 ;;  retVal          1    0        enum E10
  7844 ;; Return value:  Size  Location     Type
  7845 ;;                  1    wreg      enum E10
  7846 ;; Registers used:
  7847 ;;		wreg, fsr0l, fsr0h, status,2, status,0
  7848 ;; Tracked objects:
  7849 ;;		On entry : 0/0
  7850 ;;		On exit  : 0/0
  7851 ;;		Unchanged: 0/0
  7852 ;; Data sizes:     COMMON   BANK0   BANK1   BANK3   BANK2
  7853 ;;      Params:         0       1       0       0       0
  7854 ;;      Locals:         0       2       0       0       0
  7855 ;;      Temps:          0       2       0       0       0
  7856 ;;      Totals:         0       5       0       0       0
  7857 ;;Total ram usage:        5 bytes
  7858 ;; Hardware stack levels used:    1
  7859 ;; Hardware stack levels required when called:    3
  7860 ;; This function calls:
  7861 ;;		Nothing
  7862 ;; This function is called by:
  7863 ;;		_SevenSegment_Initialization
  7864 ;; This function uses a non-reentrant model
  7865 ;;
  7866                           
  7867                           
  7868                           ;psect for function _GPIO_SetPortDirection
  7869  0D95                     _GPIO_SetPortDirection:	
  7870                           
  7871                           ;incstack = 0
  7872                           ; Regs used in _GPIO_SetPortDirection: [wreg-fsr0h+status,2+status,0]
  7873                           ;GPIO_SetPortDirection@a_u8port stored from wreg
  7874  0D95  1283               	bcf	3,5	;RP0=0, select bank0
  7875  0D96  1303               	bcf	3,6	;RP1=0, select bank0
  7876  0D97  00C2               	movwf	GPIO_SetPortDirection@a_u8port
  7877  0D98                     l3496:	
  7878                           
  7879                           ;GPIO.c: 198:     switch(a_u8port)
  7880  0D98  2E06               	goto	l3554
  7881  0D99                     l3498:	
  7882                           
  7883                           ;GPIO.c: 201:             if(a_u8direction == 1u)
  7884  0D99  033F               	decf	GPIO_SetPortDirection@a_u8direction,w
  7885  0D9A  1D03               	btfss	3,2
  7886  0D9B  2D9D               	goto	u4001
  7887  0D9C  2D9E               	goto	u4000
  7888  0D9D                     u4001:	
  7889  0D9D  2DA5               	goto	l3504
  7890  0D9E                     u4000:	
  7891  0D9E                     l3500:	
  7892                           
  7893                           ;GPIO.c: 202:             {;GPIO.c: 203:                 *(volatile uint8*)0x85 |= 0x3F;
  7894  0D9E  303F               	movlw	63
  7895  0D9F  00C0               	movwf	??_GPIO_SetPortDirection
  7896  0DA0  0840               	movf	??_GPIO_SetPortDirection,w
  7897  0DA1  1683               	bsf	3,5	;RP0=1, select bank1
  7898  0DA2  1303               	bcf	3,6	;RP1=0, select bank1
  7899  0DA3  0485               	iorwf	5,f	;volatile
  7900  0DA4                     l3502:	
  7901                           
  7902                           ;GPIO.c: 205:             }
  7903  0DA4  2E1F               	goto	l197
  7904  0DA5                     l3504:	
  7905  0DA5  083F               	movf	GPIO_SetPortDirection@a_u8direction,w
  7906  0DA6  1D03               	btfss	3,2
  7907  0DA7  2DA9               	goto	u4011
  7908  0DA8  2DAA               	goto	u4010
  7909  0DA9                     u4011:	
  7910  0DA9  2DB1               	goto	l173
  7911  0DAA                     u4010:	
  7912  0DAA                     l3506:	
  7913                           
  7914                           ;GPIO.c: 207:             {;GPIO.c: 208:                 *(volatile uint8*)0x85 &= 0xC0;
  7915  0DAA  30C0               	movlw	192
  7916  0DAB  00C0               	movwf	??_GPIO_SetPortDirection
  7917  0DAC  0840               	movf	??_GPIO_SetPortDirection,w
  7918  0DAD  1683               	bsf	3,5	;RP0=1, select bank1
  7919  0DAE  1303               	bcf	3,6	;RP1=0, select bank1
  7920  0DAF  0585               	andwf	5,f	;volatile
  7921  0DB0  2DA4               	goto	l3502
  7922  0DB1                     l173:	
  7923                           ;GPIO.c: 211:             else
  7924                           
  7925  0DB1  2E1F               	goto	l197
  7926  0DB2                     l3510:	
  7927                           
  7928                           ;GPIO.c: 218:             if(a_u8direction == 1u)
  7929  0DB2  033F               	decf	GPIO_SetPortDirection@a_u8direction,w
  7930  0DB3  1D03               	btfss	3,2
  7931  0DB4  2DB6               	goto	u4021
  7932  0DB5  2DB7               	goto	u4020
  7933  0DB6                     u4021:	
  7934  0DB6  2DBE               	goto	l3516
  7935  0DB7                     u4020:	
  7936  0DB7                     l3512:	
  7937                           
  7938                           ;GPIO.c: 219:             {;GPIO.c: 220:                 *(volatile uint8*)0x86 |= 0xFF;
  7939  0DB7  30FF               	movlw	255
  7940  0DB8  00C0               	movwf	??_GPIO_SetPortDirection
  7941  0DB9  0840               	movf	??_GPIO_SetPortDirection,w
  7942  0DBA  1683               	bsf	3,5	;RP0=1, select bank1
  7943  0DBB  1303               	bcf	3,6	;RP1=0, select bank1
  7944  0DBC  0086               	movwf	6	;volatile
  7945  0DBD  2DA4               	goto	l3502
  7946  0DBE                     l3516:	
  7947  0DBE  083F               	movf	GPIO_SetPortDirection@a_u8direction,w
  7948  0DBF  1D03               	btfss	3,2
  7949  0DC0  2DC2               	goto	u4031
  7950  0DC1  2DC3               	goto	u4030
  7951  0DC2                     u4031:	
  7952  0DC2  2DB1               	goto	l173
  7953  0DC3                     u4030:	
  7954  0DC3                     l3518:	
  7955                           
  7956                           ;GPIO.c: 224:             {;GPIO.c: 225:                 *(volatile uint8*)0x85 &= 0x00;
  7957  0DC3  1683               	bsf	3,5	;RP0=1, select bank1
  7958  0DC4  1303               	bcf	3,6	;RP1=0, select bank1
  7959  0DC5  0185               	clrf	5	;volatile
  7960                           
  7961                           ;GPIO.c: 227:             }
  7962  0DC6  2E1F               	goto	l197
  7963  0DC7                     l3520:	
  7964                           
  7965                           ;GPIO.c: 235:             if(a_u8direction == 1u)
  7966  0DC7  033F               	decf	GPIO_SetPortDirection@a_u8direction,w
  7967  0DC8  1D03               	btfss	3,2
  7968  0DC9  2DCB               	goto	u4041
  7969  0DCA  2DCC               	goto	u4040
  7970  0DCB                     u4041:	
  7971  0DCB  2DD3               	goto	l3526
  7972  0DCC                     u4040:	
  7973  0DCC                     l3522:	
  7974                           
  7975                           ;GPIO.c: 236:             {;GPIO.c: 237:                 *(volatile uint8*)0x87 |= 0xFF;
  7976  0DCC  30FF               	movlw	255
  7977  0DCD  00C0               	movwf	??_GPIO_SetPortDirection
  7978  0DCE  0840               	movf	??_GPIO_SetPortDirection,w
  7979  0DCF  1683               	bsf	3,5	;RP0=1, select bank1
  7980  0DD0  1303               	bcf	3,6	;RP1=0, select bank1
  7981  0DD1  0087               	movwf	7	;volatile
  7982  0DD2  2DA4               	goto	l3502
  7983  0DD3                     l3526:	
  7984  0DD3  083F               	movf	GPIO_SetPortDirection@a_u8direction,w
  7985  0DD4  1D03               	btfss	3,2
  7986  0DD5  2DD7               	goto	u4051
  7987  0DD6  2DD8               	goto	u4050
  7988  0DD7                     u4051:	
  7989  0DD7  2DB1               	goto	l173
  7990  0DD8                     u4050:	
  7991  0DD8                     l3528:	
  7992                           
  7993                           ;GPIO.c: 241:             {;GPIO.c: 242:                 *(volatile uint8*)0x87 &= 0x00;
  7994  0DD8  1683               	bsf	3,5	;RP0=1, select bank1
  7995  0DD9  1303               	bcf	3,6	;RP1=0, select bank1
  7996  0DDA  0187               	clrf	7	;volatile
  7997                           
  7998                           ;GPIO.c: 244:             }
  7999  0DDB  2E1F               	goto	l197
  8000  0DDC                     l3530:	
  8001                           
  8002                           ;GPIO.c: 252:             if(a_u8direction == 1u)
  8003  0DDC  033F               	decf	GPIO_SetPortDirection@a_u8direction,w
  8004  0DDD  1D03               	btfss	3,2
  8005  0DDE  2DE0               	goto	u4061
  8006  0DDF  2DE1               	goto	u4060
  8007  0DE0                     u4061:	
  8008  0DE0  2DE8               	goto	l3536
  8009  0DE1                     u4060:	
  8010  0DE1                     l3532:	
  8011                           
  8012                           ;GPIO.c: 253:             {;GPIO.c: 254:                 *(volatile uint8*)0x88 |= 0xFF;
  8013  0DE1  30FF               	movlw	255
  8014  0DE2  00C0               	movwf	??_GPIO_SetPortDirection
  8015  0DE3  0840               	movf	??_GPIO_SetPortDirection,w
  8016  0DE4  1683               	bsf	3,5	;RP0=1, select bank1
  8017  0DE5  1303               	bcf	3,6	;RP1=0, select bank1
  8018  0DE6  0088               	movwf	8	;volatile
  8019  0DE7  2DA4               	goto	l3502
  8020  0DE8                     l3536:	
  8021  0DE8  083F               	movf	GPIO_SetPortDirection@a_u8direction,w
  8022  0DE9  1D03               	btfss	3,2
  8023  0DEA  2DEC               	goto	u4071
  8024  0DEB  2DED               	goto	u4070
  8025  0DEC                     u4071:	
  8026  0DEC  2DB1               	goto	l173
  8027  0DED                     u4070:	
  8028  0DED                     l3538:	
  8029                           
  8030                           ;GPIO.c: 258:             {;GPIO.c: 259:                 *(volatile uint8*)0x88 &= 0x00;
  8031  0DED  1683               	bsf	3,5	;RP0=1, select bank1
  8032  0DEE  1303               	bcf	3,6	;RP1=0, select bank1
  8033  0DEF  0188               	clrf	8	;volatile
  8034                           
  8035                           ;GPIO.c: 261:             }
  8036  0DF0  2E1F               	goto	l197
  8037  0DF1                     l3540:	
  8038                           
  8039                           ;GPIO.c: 269:             if(a_u8direction == 1u)
  8040  0DF1  033F               	decf	GPIO_SetPortDirection@a_u8direction,w
  8041  0DF2  1D03               	btfss	3,2
  8042  0DF3  2DF5               	goto	u4081
  8043  0DF4  2DF6               	goto	u4080
  8044  0DF5                     u4081:	
  8045  0DF5  2DFA               	goto	l3546
  8046  0DF6                     u4080:	
  8047  0DF6                     l3542:	
  8048                           
  8049                           ;GPIO.c: 270:             {;GPIO.c: 271:                 *(volatile uint8*)0x89 |= 0x08;
  8050  0DF6  1683               	bsf	3,5	;RP0=1, select bank1
  8051  0DF7  1303               	bcf	3,6	;RP1=0, select bank1
  8052  0DF8  1589               	bsf	9,3	;volatile
  8053  0DF9  2DA4               	goto	l3502
  8054  0DFA                     l3546:	
  8055  0DFA  083F               	movf	GPIO_SetPortDirection@a_u8direction,w
  8056  0DFB  1D03               	btfss	3,2
  8057  0DFC  2DFE               	goto	u4091
  8058  0DFD  2DFF               	goto	u4090
  8059  0DFE                     u4091:	
  8060  0DFE  2DB1               	goto	l173
  8061  0DFF                     u4090:	
  8062  0DFF                     l3548:	
  8063                           
  8064                           ;GPIO.c: 275:             {;GPIO.c: 276:                 *(volatile uint8*)0x89 &= 0xF8;
  8065  0DFF  30F8               	movlw	248
  8066  0E00  00C0               	movwf	??_GPIO_SetPortDirection
  8067  0E01  0840               	movf	??_GPIO_SetPortDirection,w
  8068  0E02  1683               	bsf	3,5	;RP0=1, select bank1
  8069  0E03  1303               	bcf	3,6	;RP1=0, select bank1
  8070  0E04  0589               	andwf	9,f	;volatile
  8071  0E05  2DA4               	goto	l3502
  8072  0E06                     l3554:	
  8073  0E06  0842               	movf	GPIO_SetPortDirection@a_u8port,w
  8074  0E07  00C0               	movwf	??_GPIO_SetPortDirection
  8075  0E08  01C1               	clrf	??_GPIO_SetPortDirection+1
  8076                           
  8077                           ; Switch on 2 bytes has been partitioned into a top level switch of size 1, and 1 sub-sw
      +                          itches
  8078                           ; Switch size 1, requested type "simple"
  8079                           ; Number of cases is 1, Range of values is 0 to 0
  8080                           ; switch strategies available:
  8081                           ; Name         Instructions Cycles
  8082                           ; simple_byte            4     3 (average)
  8083                           ; direct_byte           11     8 (fixed)
  8084                           ; jumptable            260     6 (fixed)
  8085                           ;	Chosen strategy is simple_byte
  8086  0E09  0841               	movf	??_GPIO_SetPortDirection+1,w
  8087  0E0A  3A00               	xorlw	0	; case 0
  8088  0E0B  1903               	skipnz
  8089  0E0C  2E0E               	goto	l4752
  8090  0E0D  2DB1               	goto	l173
  8091  0E0E                     l4752:	
  8092                           
  8093                           ; Switch size 1, requested type "simple"
  8094                           ; Number of cases is 5, Range of values is 0 to 4
  8095                           ; switch strategies available:
  8096                           ; Name         Instructions Cycles
  8097                           ; simple_byte           16     9 (average)
  8098                           ; direct_byte           23     8 (fixed)
  8099                           ; jumptable            260     6 (fixed)
  8100                           ;	Chosen strategy is simple_byte
  8101  0E0E  0840               	movf	??_GPIO_SetPortDirection,w
  8102  0E0F  3A00               	xorlw	0	; case 0
  8103  0E10  1903               	skipnz
  8104  0E11  2D99               	goto	l3498
  8105  0E12  3A01               	xorlw	1	; case 1
  8106  0E13  1903               	skipnz
  8107  0E14  2DB2               	goto	l3510
  8108  0E15  3A03               	xorlw	3	; case 2
  8109  0E16  1903               	skipnz
  8110  0E17  2DC7               	goto	l3520
  8111  0E18  3A01               	xorlw	1	; case 3
  8112  0E19  1903               	skipnz
  8113  0E1A  2DDC               	goto	l3530
  8114  0E1B  3A07               	xorlw	7	; case 4
  8115  0E1C  1903               	skipnz
  8116  0E1D  2DF1               	goto	l3540
  8117  0E1E  2DB1               	goto	l173
  8118  0E1F                     l197:	
  8119  0E1F  0008               	return
  8120  0E20                     __end_of_GPIO_SetPortDirection:	
  8121                           
  8122                           	psect	text43
  8123  005C                     __ptext43:	
  8124 ;; *************** function _GPIO_SetPinDirection *****************
  8125 ;; Defined at:
  8126 ;;		line 36 in file "GPIO.c"
  8127 ;; Parameters:    Size  Location     Type
  8128 ;;  a_u8port        1    wreg     unsigned char 
  8129 ;;  a_u8pin         1    0[BANK0 ] unsigned char 
  8130 ;;  a_u8directio    1    1[BANK0 ] unsigned char 
  8131 ;; Auto vars:     Size  Location     Type
  8132 ;;  a_u8port        1    4[BANK0 ] unsigned char 
  8133 ;;  retVal          1    0        enum E10
  8134 ;; Return value:  Size  Location     Type
  8135 ;;                  1    wreg      enum E10
  8136 ;; Registers used:
  8137 ;;		wreg, fsr0l, fsr0h, status,2, status,0
  8138 ;; Tracked objects:
  8139 ;;		On entry : 0/0
  8140 ;;		On exit  : 0/0
  8141 ;;		Unchanged: 0/0
  8142 ;; Data sizes:     COMMON   BANK0   BANK1   BANK3   BANK2
  8143 ;;      Params:         0       2       0       0       0
  8144 ;;      Locals:         0       2       0       0       0
  8145 ;;      Temps:          0       2       0       0       0
  8146 ;;      Totals:         0       6       0       0       0
  8147 ;;Total ram usage:        6 bytes
  8148 ;; Hardware stack levels used:    1
  8149 ;; Hardware stack levels required when called:    3
  8150 ;; This function calls:
  8151 ;;		Nothing
  8152 ;; This function is called by:
  8153 ;;		_Heater_Initialization
  8154 ;;		_SevenSegment_SelectChip
  8155 ;; This function uses a non-reentrant model
  8156 ;;
  8157                           
  8158                           
  8159                           ;psect for function _GPIO_SetPinDirection
  8160  005C                     _GPIO_SetPinDirection:	
  8161                           
  8162                           ;incstack = 0
  8163                           ; Regs used in _GPIO_SetPinDirection: [wreg-fsr0h+status,2+status,0]
  8164                           ;GPIO_SetPinDirection@a_u8port stored from wreg
  8165  005C  1283               	bcf	3,5	;RP0=0, select bank0
  8166  005D  1303               	bcf	3,6	;RP1=0, select bank0
  8167  005E  00C3               	movwf	GPIO_SetPinDirection@a_u8port
  8168  005F                     l3152:	
  8169                           
  8170                           ;GPIO.c: 41:     switch(a_u8port)
  8171  005F  2956               	goto	l3226
  8172  0060                     l3154:	
  8173                           
  8174                           ;GPIO.c: 45:             if(a_u8pin <= 5u)
  8175  0060  3006               	movlw	6
  8176  0061  023F               	subwf	GPIO_SetPinDirection@a_u8pin,w
  8177  0062  1803               	skipnc
  8178  0063  2865               	goto	u3111
  8179  0064  2866               	goto	u3110
  8180  0065                     u3111:	
  8181  0065  2891               	goto	l133
  8182  0066                     u3110:	
  8183  0066                     l3156:	
  8184                           
  8185                           ;GPIO.c: 46:             {;GPIO.c: 47:                 if(a_u8direction == 1u)
  8186  0066  0340               	decf	GPIO_SetPinDirection@a_u8direction,w
  8187  0067  1D03               	btfss	3,2
  8188  0068  286A               	goto	u3121
  8189  0069  286B               	goto	u3120
  8190  006A                     u3121:	
  8191  006A  287B               	goto	l3162
  8192  006B                     u3120:	
  8193  006B                     l3158:	
  8194                           
  8195                           ;GPIO.c: 48:                 {;GPIO.c: 49:                     *(volatile uint8*)0x85 |=
      +                           1 << a_u8pin;
  8196  006B  3001               	movlw	1
  8197  006C  00C1               	movwf	??_GPIO_SetPinDirection
  8198  006D  0A3F               	incf	GPIO_SetPinDirection@a_u8pin,w
  8199  006E  2871               	goto	u3134
  8200  006F                     u3135:	
  8201  006F  1003               	clrc
  8202  0070  0DC1               	rlf	??_GPIO_SetPinDirection,f
  8203  0071                     u3134:	
  8204  0071  3EFF               	addlw	-1
  8205  0072  1D03               	skipz
  8206  0073  286F               	goto	u3135
  8207  0074  0841               	movf	??_GPIO_SetPinDirection,w
  8208  0075  00C2               	movwf	??_GPIO_SetPinDirection+1
  8209  0076  0842               	movf	??_GPIO_SetPinDirection+1,w
  8210  0077  1683               	bsf	3,5	;RP0=1, select bank1
  8211  0078  1303               	bcf	3,6	;RP1=0, select bank1
  8212  0079  0485               	iorwf	5,f	;volatile
  8213  007A                     l3160:	
  8214                           
  8215                           ;GPIO.c: 51:                 }
  8216  007A  296F               	goto	l166
  8217  007B                     l3162:	
  8218  007B  0840               	movf	GPIO_SetPinDirection@a_u8direction,w
  8219  007C  1D03               	btfss	3,2
  8220  007D  287F               	goto	u3141
  8221  007E  2880               	goto	u3140
  8222  007F                     u3141:	
  8223  007F  2891               	goto	l133
  8224  0080                     u3140:	
  8225  0080                     l3164:	
  8226                           
  8227                           ;GPIO.c: 53:                 {;GPIO.c: 54:                     *(volatile uint8*)0x85 &=
      +                           ~(1 << a_u8pin);
  8228  0080  3001               	movlw	1
  8229  0081  00C1               	movwf	??_GPIO_SetPinDirection
  8230  0082  0A3F               	incf	GPIO_SetPinDirection@a_u8pin,w
  8231  0083  2886               	goto	u3154
  8232  0084                     u3155:	
  8233  0084  1003               	clrc
  8234  0085  0DC1               	rlf	??_GPIO_SetPinDirection,f
  8235  0086                     u3154:	
  8236  0086  3EFF               	addlw	-1
  8237  0087  1D03               	skipz
  8238  0088  2884               	goto	u3155
  8239  0089  0841               	movf	??_GPIO_SetPinDirection,w
  8240  008A  3AFF               	xorlw	255
  8241  008B  00C2               	movwf	??_GPIO_SetPinDirection+1
  8242  008C  0842               	movf	??_GPIO_SetPinDirection+1,w
  8243  008D  1683               	bsf	3,5	;RP0=1, select bank1
  8244  008E  1303               	bcf	3,6	;RP1=0, select bank1
  8245  008F  0585               	andwf	5,f	;volatile
  8246  0090  287A               	goto	l3160
  8247  0091                     l133:	
  8248                           ;GPIO.c: 57:                 else
  8249                           
  8250  0091  296F               	goto	l166
  8251  0092                     l3168:	
  8252                           
  8253                           ;GPIO.c: 71:             if(a_u8pin <= 7u)
  8254  0092  3008               	movlw	8
  8255  0093  023F               	subwf	GPIO_SetPinDirection@a_u8pin,w
  8256  0094  1803               	skipnc
  8257  0095  2897               	goto	u3161
  8258  0096  2898               	goto	u3160
  8259  0097                     u3161:	
  8260  0097  2891               	goto	l133
  8261  0098                     u3160:	
  8262  0098                     l3170:	
  8263                           
  8264                           ;GPIO.c: 72:             {;GPIO.c: 73:                 if(a_u8direction == 1u)
  8265  0098  0340               	decf	GPIO_SetPinDirection@a_u8direction,w
  8266  0099  1D03               	btfss	3,2
  8267  009A  289C               	goto	u3171
  8268  009B  289D               	goto	u3170
  8269  009C                     u3171:	
  8270  009C  28AD               	goto	l3176
  8271  009D                     u3170:	
  8272  009D                     l3172:	
  8273                           
  8274                           ;GPIO.c: 74:                 {;GPIO.c: 75:                     *(volatile uint8*)0x86 |=
      +                           1 << a_u8pin;
  8275  009D  3001               	movlw	1
  8276  009E  00C1               	movwf	??_GPIO_SetPinDirection
  8277  009F  0A3F               	incf	GPIO_SetPinDirection@a_u8pin,w
  8278  00A0  28A3               	goto	u3184
  8279  00A1                     u3185:	
  8280  00A1  1003               	clrc
  8281  00A2  0DC1               	rlf	??_GPIO_SetPinDirection,f
  8282  00A3                     u3184:	
  8283  00A3  3EFF               	addlw	-1
  8284  00A4  1D03               	skipz
  8285  00A5  28A1               	goto	u3185
  8286  00A6  0841               	movf	??_GPIO_SetPinDirection,w
  8287  00A7  00C2               	movwf	??_GPIO_SetPinDirection+1
  8288  00A8  0842               	movf	??_GPIO_SetPinDirection+1,w
  8289  00A9  1683               	bsf	3,5	;RP0=1, select bank1
  8290  00AA  1303               	bcf	3,6	;RP1=0, select bank1
  8291  00AB  0486               	iorwf	6,f	;volatile
  8292  00AC  287A               	goto	l3160
  8293  00AD                     l3176:	
  8294  00AD  0840               	movf	GPIO_SetPinDirection@a_u8direction,w
  8295  00AE  1D03               	btfss	3,2
  8296  00AF  28B1               	goto	u3191
  8297  00B0  28B2               	goto	u3190
  8298  00B1                     u3191:	
  8299  00B1  2891               	goto	l133
  8300  00B2                     u3190:	
  8301  00B2                     l3178:	
  8302                           
  8303                           ;GPIO.c: 79:                 {;GPIO.c: 80:                     *(volatile uint8*)0x86 &=
      +                           ~(1 << a_u8pin);
  8304  00B2  3001               	movlw	1
  8305  00B3  00C1               	movwf	??_GPIO_SetPinDirection
  8306  00B4  0A3F               	incf	GPIO_SetPinDirection@a_u8pin,w
  8307  00B5  28B8               	goto	u3204
  8308  00B6                     u3205:	
  8309  00B6  1003               	clrc
  8310  00B7  0DC1               	rlf	??_GPIO_SetPinDirection,f
  8311  00B8                     u3204:	
  8312  00B8  3EFF               	addlw	-1
  8313  00B9  1D03               	skipz
  8314  00BA  28B6               	goto	u3205
  8315  00BB  0841               	movf	??_GPIO_SetPinDirection,w
  8316  00BC  3AFF               	xorlw	255
  8317  00BD  00C2               	movwf	??_GPIO_SetPinDirection+1
  8318  00BE  0842               	movf	??_GPIO_SetPinDirection+1,w
  8319  00BF  1683               	bsf	3,5	;RP0=1, select bank1
  8320  00C0  1303               	bcf	3,6	;RP1=0, select bank1
  8321  00C1  0586               	andwf	6,f	;volatile
  8322  00C2  287A               	goto	l3160
  8323  00C3                     l3182:	
  8324                           
  8325                           ;GPIO.c: 97:             if(a_u8pin <= 7u)
  8326  00C3  3008               	movlw	8
  8327  00C4  023F               	subwf	GPIO_SetPinDirection@a_u8pin,w
  8328  00C5  1803               	skipnc
  8329  00C6  28C8               	goto	u3211
  8330  00C7  28C9               	goto	u3210
  8331  00C8                     u3211:	
  8332  00C8  2891               	goto	l133
  8333  00C9                     u3210:	
  8334  00C9                     l3184:	
  8335                           
  8336                           ;GPIO.c: 98:             {;GPIO.c: 99:                 if(a_u8direction == 1u)
  8337  00C9  0340               	decf	GPIO_SetPinDirection@a_u8direction,w
  8338  00CA  1D03               	btfss	3,2
  8339  00CB  28CD               	goto	u3221
  8340  00CC  28CE               	goto	u3220
  8341  00CD                     u3221:	
  8342  00CD  28DE               	goto	l3190
  8343  00CE                     u3220:	
  8344  00CE                     l3186:	
  8345                           
  8346                           ;GPIO.c: 100:                 {;GPIO.c: 101:                     *(volatile uint8*)0x87 
      +                          |= 1 << a_u8pin;
  8347  00CE  3001               	movlw	1
  8348  00CF  00C1               	movwf	??_GPIO_SetPinDirection
  8349  00D0  0A3F               	incf	GPIO_SetPinDirection@a_u8pin,w
  8350  00D1  28D4               	goto	u3234
  8351  00D2                     u3235:	
  8352  00D2  1003               	clrc
  8353  00D3  0DC1               	rlf	??_GPIO_SetPinDirection,f
  8354  00D4                     u3234:	
  8355  00D4  3EFF               	addlw	-1
  8356  00D5  1D03               	skipz
  8357  00D6  28D2               	goto	u3235
  8358  00D7  0841               	movf	??_GPIO_SetPinDirection,w
  8359  00D8  00C2               	movwf	??_GPIO_SetPinDirection+1
  8360  00D9  0842               	movf	??_GPIO_SetPinDirection+1,w
  8361  00DA  1683               	bsf	3,5	;RP0=1, select bank1
  8362  00DB  1303               	bcf	3,6	;RP1=0, select bank1
  8363  00DC  0487               	iorwf	7,f	;volatile
  8364  00DD  287A               	goto	l3160
  8365  00DE                     l3190:	
  8366  00DE  0840               	movf	GPIO_SetPinDirection@a_u8direction,w
  8367  00DF  1D03               	btfss	3,2
  8368  00E0  28E2               	goto	u3241
  8369  00E1  28E3               	goto	u3240
  8370  00E2                     u3241:	
  8371  00E2  2891               	goto	l133
  8372  00E3                     u3240:	
  8373  00E3                     l3192:	
  8374                           
  8375                           ;GPIO.c: 105:                 {;GPIO.c: 106:                     *(volatile uint8*)0x87 
      +                          &= ~(1 << a_u8pin);
  8376  00E3  3001               	movlw	1
  8377  00E4  00C1               	movwf	??_GPIO_SetPinDirection
  8378  00E5  0A3F               	incf	GPIO_SetPinDirection@a_u8pin,w
  8379  00E6  28E9               	goto	u3254
  8380  00E7                     u3255:	
  8381  00E7  1003               	clrc
  8382  00E8  0DC1               	rlf	??_GPIO_SetPinDirection,f
  8383  00E9                     u3254:	
  8384  00E9  3EFF               	addlw	-1
  8385  00EA  1D03               	skipz
  8386  00EB  28E7               	goto	u3255
  8387  00EC  0841               	movf	??_GPIO_SetPinDirection,w
  8388  00ED  3AFF               	xorlw	255
  8389  00EE  00C2               	movwf	??_GPIO_SetPinDirection+1
  8390  00EF  0842               	movf	??_GPIO_SetPinDirection+1,w
  8391  00F0  1683               	bsf	3,5	;RP0=1, select bank1
  8392  00F1  1303               	bcf	3,6	;RP1=0, select bank1
  8393  00F2  0587               	andwf	7,f	;volatile
  8394  00F3  287A               	goto	l3160
  8395  00F4                     l3196:	
  8396                           
  8397                           ;GPIO.c: 123:             if(a_u8pin <= 7u)
  8398  00F4  3008               	movlw	8
  8399  00F5  023F               	subwf	GPIO_SetPinDirection@a_u8pin,w
  8400  00F6  1803               	skipnc
  8401  00F7  28F9               	goto	u3261
  8402  00F8  28FA               	goto	u3260
  8403  00F9                     u3261:	
  8404  00F9  2891               	goto	l133
  8405  00FA                     u3260:	
  8406  00FA                     l3198:	
  8407                           
  8408                           ;GPIO.c: 124:             {;GPIO.c: 125:                 if(a_u8direction == 1u)
  8409  00FA  0340               	decf	GPIO_SetPinDirection@a_u8direction,w
  8410  00FB  1D03               	btfss	3,2
  8411  00FC  28FE               	goto	u3271
  8412  00FD  28FF               	goto	u3270
  8413  00FE                     u3271:	
  8414  00FE  290F               	goto	l3204
  8415  00FF                     u3270:	
  8416  00FF                     l3200:	
  8417                           
  8418                           ;GPIO.c: 126:                 {;GPIO.c: 127:                     *(volatile uint8*)0x88 
      +                          |= 1 << a_u8pin;
  8419  00FF  3001               	movlw	1
  8420  0100  00C1               	movwf	??_GPIO_SetPinDirection
  8421  0101  0A3F               	incf	GPIO_SetPinDirection@a_u8pin,w
  8422  0102  2905               	goto	u3284
  8423  0103                     u3285:	
  8424  0103  1003               	clrc
  8425  0104  0DC1               	rlf	??_GPIO_SetPinDirection,f
  8426  0105                     u3284:	
  8427  0105  3EFF               	addlw	-1
  8428  0106  1D03               	skipz
  8429  0107  2903               	goto	u3285
  8430  0108  0841               	movf	??_GPIO_SetPinDirection,w
  8431  0109  00C2               	movwf	??_GPIO_SetPinDirection+1
  8432  010A  0842               	movf	??_GPIO_SetPinDirection+1,w
  8433  010B  1683               	bsf	3,5	;RP0=1, select bank1
  8434  010C  1303               	bcf	3,6	;RP1=0, select bank1
  8435  010D  0488               	iorwf	8,f	;volatile
  8436  010E  287A               	goto	l3160
  8437  010F                     l3204:	
  8438  010F  0840               	movf	GPIO_SetPinDirection@a_u8direction,w
  8439  0110  1D03               	btfss	3,2
  8440  0111  2913               	goto	u3291
  8441  0112  2914               	goto	u3290
  8442  0113                     u3291:	
  8443  0113  2891               	goto	l133
  8444  0114                     u3290:	
  8445  0114                     l3206:	
  8446                           
  8447                           ;GPIO.c: 131:                 {;GPIO.c: 132:                     *(volatile uint8*)0x88 
      +                          &= ~(1 << a_u8pin);
  8448  0114  3001               	movlw	1
  8449  0115  00C1               	movwf	??_GPIO_SetPinDirection
  8450  0116  0A3F               	incf	GPIO_SetPinDirection@a_u8pin,w
  8451  0117  291A               	goto	u3304
  8452  0118                     u3305:	
  8453  0118  1003               	clrc
  8454  0119  0DC1               	rlf	??_GPIO_SetPinDirection,f
  8455  011A                     u3304:	
  8456  011A  3EFF               	addlw	-1
  8457  011B  1D03               	skipz
  8458  011C  2918               	goto	u3305
  8459  011D  0841               	movf	??_GPIO_SetPinDirection,w
  8460  011E  3AFF               	xorlw	255
  8461  011F  00C2               	movwf	??_GPIO_SetPinDirection+1
  8462  0120  0842               	movf	??_GPIO_SetPinDirection+1,w
  8463  0121  1683               	bsf	3,5	;RP0=1, select bank1
  8464  0122  1303               	bcf	3,6	;RP1=0, select bank1
  8465  0123  0588               	andwf	8,f	;volatile
  8466  0124  287A               	goto	l3160
  8467  0125                     l3210:	
  8468                           
  8469                           ;GPIO.c: 149:             if(a_u8pin < 3u)
  8470  0125  3003               	movlw	3
  8471  0126  023F               	subwf	GPIO_SetPinDirection@a_u8pin,w
  8472  0127  1803               	skipnc
  8473  0128  292A               	goto	u3311
  8474  0129  292B               	goto	u3310
  8475  012A                     u3311:	
  8476  012A  2891               	goto	l133
  8477  012B                     u3310:	
  8478  012B                     l3212:	
  8479                           
  8480                           ;GPIO.c: 150:             {;GPIO.c: 151:                 if(a_u8direction == 1u)
  8481  012B  0340               	decf	GPIO_SetPinDirection@a_u8direction,w
  8482  012C  1D03               	btfss	3,2
  8483  012D  292F               	goto	u3321
  8484  012E  2930               	goto	u3320
  8485  012F                     u3321:	
  8486  012F  2940               	goto	l3218
  8487  0130                     u3320:	
  8488  0130                     l3214:	
  8489                           
  8490                           ;GPIO.c: 152:                 {;GPIO.c: 153:                     *(volatile uint8*)0x89 
      +                          |= 1 << a_u8pin;
  8491  0130  3001               	movlw	1
  8492  0131  00C1               	movwf	??_GPIO_SetPinDirection
  8493  0132  0A3F               	incf	GPIO_SetPinDirection@a_u8pin,w
  8494  0133  2936               	goto	u3334
  8495  0134                     u3335:	
  8496  0134  1003               	clrc
  8497  0135  0DC1               	rlf	??_GPIO_SetPinDirection,f
  8498  0136                     u3334:	
  8499  0136  3EFF               	addlw	-1
  8500  0137  1D03               	skipz
  8501  0138  2934               	goto	u3335
  8502  0139  0841               	movf	??_GPIO_SetPinDirection,w
  8503  013A  00C2               	movwf	??_GPIO_SetPinDirection+1
  8504  013B  0842               	movf	??_GPIO_SetPinDirection+1,w
  8505  013C  1683               	bsf	3,5	;RP0=1, select bank1
  8506  013D  1303               	bcf	3,6	;RP1=0, select bank1
  8507  013E  0489               	iorwf	9,f	;volatile
  8508  013F  287A               	goto	l3160
  8509  0140                     l3218:	
  8510  0140  0840               	movf	GPIO_SetPinDirection@a_u8direction,w
  8511  0141  1D03               	btfss	3,2
  8512  0142  2944               	goto	u3341
  8513  0143  2945               	goto	u3340
  8514  0144                     u3341:	
  8515  0144  2891               	goto	l133
  8516  0145                     u3340:	
  8517  0145                     l3220:	
  8518                           
  8519                           ;GPIO.c: 157:                 {;GPIO.c: 158:                     *(volatile uint8*)0x89 
      +                          &= ~(1 << a_u8pin);
  8520  0145  3001               	movlw	1
  8521  0146  00C1               	movwf	??_GPIO_SetPinDirection
  8522  0147  0A3F               	incf	GPIO_SetPinDirection@a_u8pin,w
  8523  0148  294B               	goto	u3354
  8524  0149                     u3355:	
  8525  0149  1003               	clrc
  8526  014A  0DC1               	rlf	??_GPIO_SetPinDirection,f
  8527  014B                     u3354:	
  8528  014B  3EFF               	addlw	-1
  8529  014C  1D03               	skipz
  8530  014D  2949               	goto	u3355
  8531  014E  0841               	movf	??_GPIO_SetPinDirection,w
  8532  014F  3AFF               	xorlw	255
  8533  0150  00C2               	movwf	??_GPIO_SetPinDirection+1
  8534  0151  0842               	movf	??_GPIO_SetPinDirection+1,w
  8535  0152  1683               	bsf	3,5	;RP0=1, select bank1
  8536  0153  1303               	bcf	3,6	;RP1=0, select bank1
  8537  0154  0589               	andwf	9,f	;volatile
  8538  0155  287A               	goto	l3160
  8539  0156                     l3226:	
  8540  0156  0843               	movf	GPIO_SetPinDirection@a_u8port,w
  8541  0157  00C1               	movwf	??_GPIO_SetPinDirection
  8542  0158  01C2               	clrf	??_GPIO_SetPinDirection+1
  8543                           
  8544                           ; Switch on 2 bytes has been partitioned into a top level switch of size 1, and 1 sub-sw
      +                          itches
  8545                           ; Switch size 1, requested type "simple"
  8546                           ; Number of cases is 1, Range of values is 0 to 0
  8547                           ; switch strategies available:
  8548                           ; Name         Instructions Cycles
  8549                           ; simple_byte            4     3 (average)
  8550                           ; direct_byte           11     8 (fixed)
  8551                           ; jumptable            260     6 (fixed)
  8552                           ;	Chosen strategy is simple_byte
  8553  0159  0842               	movf	??_GPIO_SetPinDirection+1,w
  8554  015A  3A00               	xorlw	0	; case 0
  8555  015B  1903               	skipnz
  8556  015C  295E               	goto	l4754
  8557  015D  2891               	goto	l133
  8558  015E                     l4754:	
  8559                           
  8560                           ; Switch size 1, requested type "simple"
  8561                           ; Number of cases is 5, Range of values is 0 to 4
  8562                           ; switch strategies available:
  8563                           ; Name         Instructions Cycles
  8564                           ; simple_byte           16     9 (average)
  8565                           ; direct_byte           23     8 (fixed)
  8566                           ; jumptable            260     6 (fixed)
  8567                           ;	Chosen strategy is simple_byte
  8568  015E  0841               	movf	??_GPIO_SetPinDirection,w
  8569  015F  3A00               	xorlw	0	; case 0
  8570  0160  1903               	skipnz
  8571  0161  2860               	goto	l3154
  8572  0162  3A01               	xorlw	1	; case 1
  8573  0163  1903               	skipnz
  8574  0164  2892               	goto	l3168
  8575  0165  3A03               	xorlw	3	; case 2
  8576  0166  1903               	skipnz
  8577  0167  28C3               	goto	l3182
  8578  0168  3A01               	xorlw	1	; case 3
  8579  0169  1903               	skipnz
  8580  016A  28F4               	goto	l3196
  8581  016B  3A07               	xorlw	7	; case 4
  8582  016C  1903               	skipnz
  8583  016D  2925               	goto	l3210
  8584  016E  2891               	goto	l133
  8585  016F                     l166:	
  8586  016F  0008               	return
  8587  0170                     __end_of_GPIO_SetPinDirection:	
  8588                           
  8589                           	psect	text44
  8590  140F                     __ptext44:	
  8591 ;; *************** function _GPIO_Enable_Pull_Up_On_PortB *****************
  8592 ;; Defined at:
  8593 ;;		line 762 in file "GPIO.c"
  8594 ;; Parameters:    Size  Location     Type
  8595 ;;		None
  8596 ;; Auto vars:     Size  Location     Type
  8597 ;;		None
  8598 ;; Return value:  Size  Location     Type
  8599 ;;                  1    wreg      void 
  8600 ;; Registers used:
  8601 ;;		wreg, status,2, status,0
  8602 ;; Tracked objects:
  8603 ;;		On entry : 0/0
  8604 ;;		On exit  : 0/0
  8605 ;;		Unchanged: 0/0
  8606 ;; Data sizes:     COMMON   BANK0   BANK1   BANK3   BANK2
  8607 ;;      Params:         0       0       0       0       0
  8608 ;;      Locals:         0       0       0       0       0
  8609 ;;      Temps:          0       1       0       0       0
  8610 ;;      Totals:         0       1       0       0       0
  8611 ;;Total ram usage:        1 bytes
  8612 ;; Hardware stack levels used:    1
  8613 ;; Hardware stack levels required when called:    3
  8614 ;; This function calls:
  8615 ;;		Nothing
  8616 ;; This function is called by:
  8617 ;;		_Heater_Initialization
  8618 ;; This function uses a non-reentrant model
  8619 ;;
  8620                           
  8621                           
  8622                           ;psect for function _GPIO_Enable_Pull_Up_On_PortB
  8623  140F                     _GPIO_Enable_Pull_Up_On_PortB:	
  8624  140F                     l3892:	
  8625                           ;incstack = 0
  8626                           ; Regs used in _GPIO_Enable_Pull_Up_On_PortB: [wreg+status,2+status,0]
  8627                           
  8628                           
  8629                           ;GPIO.c: 764:     *(volatile uint8*)0x81 &= ~(1 << 7u);
  8630  140F  307F               	movlw	127
  8631  1410  1283               	bcf	3,5	;RP0=0, select bank0
  8632  1411  1303               	bcf	3,6	;RP1=0, select bank0
  8633  1412  00BF               	movwf	??_GPIO_Enable_Pull_Up_On_PortB
  8634  1413  083F               	movf	??_GPIO_Enable_Pull_Up_On_PortB,w
  8635  1414  1683               	bsf	3,5	;RP0=1, select bank1
  8636  1415  1303               	bcf	3,6	;RP1=0, select bank1
  8637  1416  0581               	andwf	1,f	;volatile
  8638  1417                     l312:	
  8639  1417  0008               	return
  8640  1418                     __end_of_GPIO_Enable_Pull_Up_On_PortB:	
  8641                           
  8642                           	psect	text45
  8643  1406                     __ptext45:	
  8644 ;; *************** function _External_interrupt_select_falling_edge *****************
  8645 ;; Defined at:
  8646 ;;		line 257 in file "interrupt.c"
  8647 ;; Parameters:    Size  Location     Type
  8648 ;;		None
  8649 ;; Auto vars:     Size  Location     Type
  8650 ;;		None
  8651 ;; Return value:  Size  Location     Type
  8652 ;;                  1    wreg      void 
  8653 ;; Registers used:
  8654 ;;		wreg, status,2, status,0
  8655 ;; Tracked objects:
  8656 ;;		On entry : 0/0
  8657 ;;		On exit  : 0/0
  8658 ;;		Unchanged: 0/0
  8659 ;; Data sizes:     COMMON   BANK0   BANK1   BANK3   BANK2
  8660 ;;      Params:         0       0       0       0       0
  8661 ;;      Locals:         0       0       0       0       0
  8662 ;;      Temps:          0       1       0       0       0
  8663 ;;      Totals:         0       1       0       0       0
  8664 ;;Total ram usage:        1 bytes
  8665 ;; Hardware stack levels used:    1
  8666 ;; Hardware stack levels required when called:    3
  8667 ;; This function calls:
  8668 ;;		Nothing
  8669 ;; This function is called by:
  8670 ;;		_Heater_Initialization
  8671 ;; This function uses a non-reentrant model
  8672 ;;
  8673                           
  8674                           
  8675                           ;psect for function _External_interrupt_select_falling_edge
  8676  1406                     _External_interrupt_select_falling_edge:	
  8677  1406                     l3896:	
  8678                           ;incstack = 0
  8679                           ; Regs used in _External_interrupt_select_falling_edge: [wreg+status,2+status,0]
  8680                           
  8681                           
  8682                           ;interrupt.c: 259:     *(volatile uint8*)0x81 &= ~(1 << 6u);
  8683  1406  30BF               	movlw	191
  8684  1407  1283               	bcf	3,5	;RP0=0, select bank0
  8685  1408  1303               	bcf	3,6	;RP1=0, select bank0
  8686  1409  00BF               	movwf	??_External_interrupt_select_falling_edge
  8687  140A  083F               	movf	??_External_interrupt_select_falling_edge,w
  8688  140B  1683               	bsf	3,5	;RP0=1, select bank1
  8689  140C  1303               	bcf	3,6	;RP1=0, select bank1
  8690  140D  0581               	andwf	1,f	;volatile
  8691  140E                     l602:	
  8692  140E  0008               	return
  8693  140F                     __end_of_External_interrupt_select_falling_edge:	
  8694                           
  8695                           	psect	text46
  8696  13EE                     __ptext46:	
  8697 ;; *************** function _External_interrupt_enable *****************
  8698 ;; Defined at:
  8699 ;;		line 209 in file "interrupt.c"
  8700 ;; Parameters:    Size  Location     Type
  8701 ;;		None
  8702 ;; Auto vars:     Size  Location     Type
  8703 ;;		None
  8704 ;; Return value:  Size  Location     Type
  8705 ;;                  1    wreg      void 
  8706 ;; Registers used:
  8707 ;;		None
  8708 ;; Tracked objects:
  8709 ;;		On entry : 0/0
  8710 ;;		On exit  : 0/0
  8711 ;;		Unchanged: 0/0
  8712 ;; Data sizes:     COMMON   BANK0   BANK1   BANK3   BANK2
  8713 ;;      Params:         0       0       0       0       0
  8714 ;;      Locals:         0       0       0       0       0
  8715 ;;      Temps:          0       0       0       0       0
  8716 ;;      Totals:         0       0       0       0       0
  8717 ;;Total ram usage:        0 bytes
  8718 ;; Hardware stack levels used:    1
  8719 ;; Hardware stack levels required when called:    3
  8720 ;; This function calls:
  8721 ;;		Nothing
  8722 ;; This function is called by:
  8723 ;;		_Heater_Initialization
  8724 ;; This function uses a non-reentrant model
  8725 ;;
  8726                           
  8727                           
  8728                           ;psect for function _External_interrupt_enable
  8729  13EE                     _External_interrupt_enable:	
  8730  13EE                     l3898:	
  8731                           ;incstack = 0
  8732                           ; Regs used in _External_interrupt_enable: []
  8733                           
  8734                           
  8735                           ;interrupt.c: 211:     *(volatile uint8*)0x0B |= 1 << 4u;
  8736  13EE  160B               	bsf	11,4	;volatile
  8737  13EF                     l593:	
  8738  13EF  0008               	return
  8739  13F0                     __end_of_External_interrupt_enable:	
  8740                           
  8741                           	psect	text47
  8742  0801                     __ptext47:	
  8743 ;; *************** function _EEPROM_Initialization *****************
  8744 ;; Defined at:
  8745 ;;		line 36 in file "EEPROM24c04.c"
  8746 ;; Parameters:    Size  Location     Type
  8747 ;;		None
  8748 ;; Auto vars:     Size  Location     Type
  8749 ;;		None
  8750 ;; Return value:  Size  Location     Type
  8751 ;;                  1    wreg      void 
  8752 ;; Registers used:
  8753 ;;		wreg, status,2, status,0, pclath, cstack
  8754 ;; Tracked objects:
  8755 ;;		On entry : 0/0
  8756 ;;		On exit  : 0/0
  8757 ;;		Unchanged: 0/0
  8758 ;; Data sizes:     COMMON   BANK0   BANK1   BANK3   BANK2
  8759 ;;      Params:         0       0       0       0       0
  8760 ;;      Locals:         0       0       0       0       0
  8761 ;;      Temps:          0       0       0       0       0
  8762 ;;      Totals:         0       0       0       0       0
  8763 ;;Total ram usage:        0 bytes
  8764 ;; Hardware stack levels used:    1
  8765 ;; Hardware stack levels required when called:    5
  8766 ;; This function calls:
  8767 ;;		_I2C_Master_Initialization
  8768 ;; This function is called by:
  8769 ;;		_Heater_Initialization
  8770 ;; This function uses a non-reentrant model
  8771 ;;
  8772                           
  8773                           
  8774                           ;psect for function _EEPROM_Initialization
  8775  0801                     _EEPROM_Initialization:	
  8776  0801                     l3890:	
  8777                           ;incstack = 0
  8778                           ; Regs used in _EEPROM_Initialization: [wreg+status,2+status,0+pclath+cstack]
  8779                           
  8780                           
  8781                           ;EEPROM24c04.c: 39:     I2C_Master_Initialization(I2C_MASTER_MODE , I2C_100KHZ);
  8782  0801  30A0               	movlw	160
  8783  0802  1283               	bcf	3,5	;RP0=0, select bank0
  8784  0803  1303               	bcf	3,6	;RP1=0, select bank0
  8785  0804  00CD               	movwf	I2C_Master_Initialization@a_I2C_baud_rate_t
  8786  0805  3086               	movlw	134
  8787  0806  00CE               	movwf	I2C_Master_Initialization@a_I2C_baud_rate_t+1
  8788  0807  3000               	movlw	0
  8789  0808  120A  158A  2119  120A  158A  	fcall	_I2C_Master_Initialization
  8790  080D                     l93:	
  8791  080D  0008               	return
  8792  080E                     __end_of_EEPROM_Initialization:	
  8793                           
  8794                           	psect	text48
  8795  0919                     __ptext48:	
  8796 ;; *************** function _I2C_Master_Initialization *****************
  8797 ;; Defined at:
  8798 ;;		line 37 in file "I2C.c"
  8799 ;; Parameters:    Size  Location     Type
  8800 ;;  a_I2C_master    1    wreg     enum E10
  8801 ;;  a_I2C_baud_r    2   14[BANK0 ] enum E14
  8802 ;; Auto vars:     Size  Location     Type
  8803 ;;  a_I2C_master    1   21[BANK0 ] enum E10
  8804 ;; Return value:  Size  Location     Type
  8805 ;;                  1    wreg      void 
  8806 ;; Registers used:
  8807 ;;		wreg, status,2, status,0, pclath, cstack
  8808 ;; Tracked objects:
  8809 ;;		On entry : 0/0
  8810 ;;		On exit  : 0/0
  8811 ;;		Unchanged: 0/0
  8812 ;; Data sizes:     COMMON   BANK0   BANK1   BANK3   BANK2
  8813 ;;      Params:         0       2       0       0       0
  8814 ;;      Locals:         0       1       0       0       0
  8815 ;;      Temps:          0       5       0       0       0
  8816 ;;      Totals:         0       8       0       0       0
  8817 ;;Total ram usage:        8 bytes
  8818 ;; Hardware stack levels used:    1
  8819 ;; Hardware stack levels required when called:    4
  8820 ;; This function calls:
  8821 ;;		___lldiv
  8822 ;; This function is called by:
  8823 ;;		_EEPROM_Initialization
  8824 ;; This function uses a non-reentrant model
  8825 ;;
  8826                           
  8827                           
  8828                           ;psect for function _I2C_Master_Initialization
  8829  0919                     _I2C_Master_Initialization:	
  8830                           
  8831                           ;incstack = 0
  8832                           ; Regs used in _I2C_Master_Initialization: [wreg+status,2+status,0+pclath+cstack]
  8833                           ;I2C_Master_Initialization@a_I2C_master_mode_t stored from wreg
  8834  0919  1283               	bcf	3,5	;RP0=0, select bank0
  8835  091A  1303               	bcf	3,6	;RP1=0, select bank0
  8836  091B  00D4               	movwf	I2C_Master_Initialization@a_I2C_master_mode_t
  8837  091C                     l3474:	
  8838                           
  8839                           ;I2C.c: 37: void I2C_Master_Initialization(EnumI2C_MasterMode_t a_I2C_master_mode_t ,;I2
      +                          C.c: 38:                                EnumI2C_BaudRate_t a_I2C_baud_rate_t);I2C.c: 39:
      +                           {;I2C.c: 41:     *(volatile uint8*)0x14 &= 0xF0;
  8840  091C  30F0               	movlw	240
  8841  091D  00CF               	movwf	??_I2C_Master_Initialization
  8842  091E  084F               	movf	??_I2C_Master_Initialization,w
  8843  091F  0594               	andwf	20,f	;volatile
  8844                           
  8845                           ;I2C.c: 43:     if(a_I2C_master_mode_t == I2C_FIRMWARE_CONTROLLED_MASTER_MODE)
  8846  0920  0354               	decf	I2C_Master_Initialization@a_I2C_master_mode_t,w
  8847  0921  1D03               	btfss	3,2
  8848  0922  2924               	goto	u3971
  8849  0923  2925               	goto	u3970
  8850  0924                     u3971:	
  8851  0924  292A               	goto	l511
  8852  0925                     u3970:	
  8853  0925                     l3476:	
  8854                           
  8855                           ;I2C.c: 44:     {;I2C.c: 45:         *(volatile uint8*)0x14 |= 0x0B;
  8856  0925  300B               	movlw	11
  8857  0926  00CF               	movwf	??_I2C_Master_Initialization
  8858  0927  084F               	movf	??_I2C_Master_Initialization,w
  8859  0928  0494               	iorwf	20,f	;volatile
  8860                           
  8861                           ;I2C.c: 46:     }
  8862  0929  292B               	goto	l3478
  8863  092A                     l511:	
  8864                           ;I2C.c: 47:     else
  8865                           
  8866                           
  8867                           ;I2C.c: 48:     {;I2C.c: 49:         *(volatile uint8*)0x14 |= 0x08;
  8868  092A  1594               	bsf	20,3	;volatile
  8869  092B                     l3478:	
  8870                           
  8871                           ;I2C.c: 52:     *(volatile uint8*)0x94 &= ~(1 << 6u);
  8872  092B  30BF               	movlw	191
  8873  092C  00CF               	movwf	??_I2C_Master_Initialization
  8874  092D  084F               	movf	??_I2C_Master_Initialization,w
  8875  092E  1683               	bsf	3,5	;RP0=1, select bank1
  8876  092F  1303               	bcf	3,6	;RP1=0, select bank1
  8877  0930  0594               	andwf	20,f	;volatile
  8878                           
  8879                           ;I2C.c: 54:     if(a_I2C_baud_rate_t == I2C_400KHZ)
  8880  0931  3080               	movlw	128
  8881  0932  1283               	bcf	3,5	;RP0=0, select bank0
  8882  0933  1303               	bcf	3,6	;RP1=0, select bank0
  8883  0934  064D               	xorwf	I2C_Master_Initialization@a_I2C_baud_rate_t,w
  8884  0935  301A               	movlw	26
  8885  0936  1903               	skipnz
  8886  0937  064E               	xorwf	I2C_Master_Initialization@a_I2C_baud_rate_t+1,w
  8887  0938  1D03               	btfss	3,2
  8888  0939  293B               	goto	u3981
  8889  093A  293C               	goto	u3980
  8890  093B                     u3981:	
  8891  093B  2943               	goto	l513
  8892  093C                     u3980:	
  8893  093C                     l3480:	
  8894                           
  8895                           ;I2C.c: 55:     {;I2C.c: 56:         *(volatile uint8*)0x94 &= ~(1 << 7u);
  8896  093C  307F               	movlw	127
  8897  093D  00CF               	movwf	??_I2C_Master_Initialization
  8898  093E  084F               	movf	??_I2C_Master_Initialization,w
  8899  093F  1683               	bsf	3,5	;RP0=1, select bank1
  8900  0940  1303               	bcf	3,6	;RP1=0, select bank1
  8901  0941  0594               	andwf	20,f	;volatile
  8902                           
  8903                           ;I2C.c: 57:     }
  8904  0942  2946               	goto	l3482
  8905  0943                     l513:	
  8906                           ;I2C.c: 58:     else
  8907                           
  8908                           
  8909                           ;I2C.c: 59:     {;I2C.c: 60:         *(volatile uint8*)0x94 |= 1 << 7u;
  8910  0943  1683               	bsf	3,5	;RP0=1, select bank1
  8911  0944  1303               	bcf	3,6	;RP1=0, select bank1
  8912  0945  1794               	bsf	20,7	;volatile
  8913  0946                     l3482:	
  8914                           
  8915                           ;I2C.c: 63:     *(volatile uint8*)0x93 = (8000000u / (4 * a_I2C_baud_rate_t)) - 1;
  8916  0946  1283               	bcf	3,5	;RP0=0, select bank0
  8917  0947  1303               	bcf	3,6	;RP1=0, select bank0
  8918  0948  084D               	movf	I2C_Master_Initialization@a_I2C_baud_rate_t,w
  8919  0949  00CF               	movwf	??_I2C_Master_Initialization
  8920  094A  084E               	movf	I2C_Master_Initialization@a_I2C_baud_rate_t+1,w
  8921  094B  00D0               	movwf	??_I2C_Master_Initialization+1
  8922  094C  01D1               	clrf	??_I2C_Master_Initialization+2
  8923  094D  01D2               	clrf	??_I2C_Master_Initialization+3
  8924  094E  3002               	movlw	2
  8925  094F                     u3995:	
  8926  094F  1003               	clrc
  8927  0950  0DCF               	rlf	??_I2C_Master_Initialization,f
  8928  0951  0DD0               	rlf	??_I2C_Master_Initialization+1,f
  8929  0952  0DD1               	rlf	??_I2C_Master_Initialization+2,f
  8930  0953  0DD2               	rlf	??_I2C_Master_Initialization+3,f
  8931  0954                     u3990:	
  8932  0954  3EFF               	addlw	-1
  8933  0955  1D03               	skipz
  8934  0956  294F               	goto	u3995
  8935  0957  0852               	movf	??_I2C_Master_Initialization+3,w
  8936  0958  00C2               	movwf	___lldiv@divisor+3
  8937  0959  0851               	movf	??_I2C_Master_Initialization+2,w
  8938  095A  00C1               	movwf	___lldiv@divisor+2
  8939  095B  0850               	movf	??_I2C_Master_Initialization+1,w
  8940  095C  00C0               	movwf	___lldiv@divisor+1
  8941  095D  084F               	movf	??_I2C_Master_Initialization,w
  8942  095E  00BF               	movwf	___lldiv@divisor
  8943  095F  3000               	movlw	0
  8944  0960  00C6               	movwf	___lldiv@dividend+3
  8945  0961  307A               	movlw	122
  8946  0962  00C5               	movwf	___lldiv@dividend+2
  8947  0963  3012               	movlw	18
  8948  0964  00C4               	movwf	___lldiv@dividend+1
  8949  0965  3000               	movlw	0
  8950  0966  00C3               	movwf	___lldiv@dividend
  8951  0967  120A  158A  217B  120A  158A  	fcall	___lldiv
  8952  096C  1283               	bcf	3,5	;RP0=0, select bank0
  8953  096D  1303               	bcf	3,6	;RP1=0, select bank0
  8954  096E  083F               	movf	?___lldiv,w
  8955  096F  3EFF               	addlw	255
  8956  0970  00D3               	movwf	??_I2C_Master_Initialization+4
  8957  0971  0853               	movf	??_I2C_Master_Initialization+4,w
  8958  0972  1683               	bsf	3,5	;RP0=1, select bank1
  8959  0973  1303               	bcf	3,6	;RP1=0, select bank1
  8960  0974  0093               	movwf	19	;volatile
  8961  0975                     l3484:	
  8962                           
  8963                           ;I2C.c: 65:     *(volatile uint8*)0x87 |= 1 << 3u;
  8964  0975  1587               	bsf	7,3	;volatile
  8965  0976                     l3486:	
  8966                           
  8967                           ;I2C.c: 66:     *(volatile uint8*)0x87 |= 1 << 4u;
  8968  0976  1607               	bsf	7,4	;volatile
  8969  0977                     l3488:	
  8970                           
  8971                           ;I2C.c: 68:     *(volatile uint8*)0x14 |= 1 << 5u;
  8972  0977  1283               	bcf	3,5	;RP0=0, select bank0
  8973  0978  1303               	bcf	3,6	;RP1=0, select bank0
  8974  0979  1694               	bsf	20,5	;volatile
  8975  097A                     l515:	
  8976  097A  0008               	return
  8977  097B                     __end_of_I2C_Master_Initialization:	
  8978                           
  8979                           	psect	text49
  8980  097B                     __ptext49:	
  8981 ;; *************** function ___lldiv *****************
  8982 ;; Defined at:
  8983 ;;		line 5 in file "C:\Program Files (x86)\Microchip\xc8\v2.10\pic\sources\c90\common\__lldiv.c"
  8984 ;; Parameters:    Size  Location     Type
  8985 ;;  divisor         4    0[BANK0 ] unsigned long 
  8986 ;;  dividend        4    4[BANK0 ] unsigned long 
  8987 ;; Auto vars:     Size  Location     Type
  8988 ;;  quotient        4    9[BANK0 ] unsigned long 
  8989 ;;  counter         1   13[BANK0 ] unsigned char 
  8990 ;; Return value:  Size  Location     Type
  8991 ;;                  4    0[BANK0 ] unsigned long 
  8992 ;; Registers used:
  8993 ;;		wreg, status,2, status,0
  8994 ;; Tracked objects:
  8995 ;;		On entry : 0/0
  8996 ;;		On exit  : 0/0
  8997 ;;		Unchanged: 0/0
  8998 ;; Data sizes:     COMMON   BANK0   BANK1   BANK3   BANK2
  8999 ;;      Params:         0       8       0       0       0
  9000 ;;      Locals:         0       5       0       0       0
  9001 ;;      Temps:          0       1       0       0       0
  9002 ;;      Totals:         0      14       0       0       0
  9003 ;;Total ram usage:       14 bytes
  9004 ;; Hardware stack levels used:    1
  9005 ;; Hardware stack levels required when called:    3
  9006 ;; This function calls:
  9007 ;;		Nothing
  9008 ;; This function is called by:
  9009 ;;		_I2C_Master_Initialization
  9010 ;; This function uses a non-reentrant model
  9011 ;;
  9012                           
  9013                           
  9014                           ;psect for function ___lldiv
  9015  097B                     ___lldiv:	
  9016  097B                     l3430:	
  9017                           ;incstack = 0
  9018                           ; Regs used in ___lldiv: [wreg+status,2+status,0]
  9019                           
  9020  097B  3000               	movlw	0
  9021  097C  1283               	bcf	3,5	;RP0=0, select bank0
  9022  097D  1303               	bcf	3,6	;RP1=0, select bank0
  9023  097E  00CB               	movwf	___lldiv@quotient+3
  9024  097F  3000               	movlw	0
  9025  0980  00CA               	movwf	___lldiv@quotient+2
  9026  0981  3000               	movlw	0
  9027  0982  00C9               	movwf	___lldiv@quotient+1
  9028  0983  3000               	movlw	0
  9029  0984  00C8               	movwf	___lldiv@quotient
  9030  0985  0842               	movf	___lldiv@divisor+3,w
  9031  0986  0441               	iorwf	___lldiv@divisor+2,w
  9032  0987  0440               	iorwf	___lldiv@divisor+1,w
  9033  0988  043F               	iorwf	___lldiv@divisor,w
  9034  0989  1903               	skipnz
  9035  098A  298C               	goto	u3831
  9036  098B  298D               	goto	u3830
  9037  098C                     u3831:	
  9038  098C  29DA               	goto	l3450
  9039  098D                     u3830:	
  9040  098D                     l3432:	
  9041  098D  01CC               	clrf	___lldiv@counter
  9042  098E  0ACC               	incf	___lldiv@counter,f
  9043  098F  299D               	goto	l3436
  9044  0990                     l3434:	
  9045  0990  3001               	movlw	1
  9046  0991  00C7               	movwf	??___lldiv
  9047  0992                     u3845:	
  9048  0992  1003               	clrc
  9049  0993  0DBF               	rlf	___lldiv@divisor,f
  9050  0994  0DC0               	rlf	___lldiv@divisor+1,f
  9051  0995  0DC1               	rlf	___lldiv@divisor+2,f
  9052  0996  0DC2               	rlf	___lldiv@divisor+3,f
  9053  0997  0BC7               	decfsz	??___lldiv,f
  9054  0998  2992               	goto	u3845
  9055  0999  3001               	movlw	1
  9056  099A  00C7               	movwf	??___lldiv
  9057  099B  0847               	movf	??___lldiv,w
  9058  099C  07CC               	addwf	___lldiv@counter,f
  9059  099D                     l3436:	
  9060  099D  1FC2               	btfss	___lldiv@divisor+3,7
  9061  099E  29A0               	goto	u3851
  9062  099F  29A1               	goto	u3850
  9063  09A0                     u3851:	
  9064  09A0  2990               	goto	l3434
  9065  09A1                     u3850:	
  9066  09A1                     l3438:	
  9067  09A1  3001               	movlw	1
  9068  09A2  00C7               	movwf	??___lldiv
  9069  09A3                     u3865:	
  9070  09A3  1003               	clrc
  9071  09A4  0DC8               	rlf	___lldiv@quotient,f
  9072  09A5  0DC9               	rlf	___lldiv@quotient+1,f
  9073  09A6  0DCA               	rlf	___lldiv@quotient+2,f
  9074  09A7  0DCB               	rlf	___lldiv@quotient+3,f
  9075  09A8  0BC7               	decfsz	??___lldiv,f
  9076  09A9  29A3               	goto	u3865
  9077  09AA                     l3440:	
  9078  09AA  0842               	movf	___lldiv@divisor+3,w
  9079  09AB  0246               	subwf	___lldiv@dividend+3,w
  9080  09AC  1D03               	skipz
  9081  09AD  29B8               	goto	u3875
  9082  09AE  0841               	movf	___lldiv@divisor+2,w
  9083  09AF  0245               	subwf	___lldiv@dividend+2,w
  9084  09B0  1D03               	skipz
  9085  09B1  29B8               	goto	u3875
  9086  09B2  0840               	movf	___lldiv@divisor+1,w
  9087  09B3  0244               	subwf	___lldiv@dividend+1,w
  9088  09B4  1D03               	skipz
  9089  09B5  29B8               	goto	u3875
  9090  09B6  083F               	movf	___lldiv@divisor,w
  9091  09B7  0243               	subwf	___lldiv@dividend,w
  9092  09B8                     u3875:	
  9093  09B8  1C03               	skipc
  9094  09B9  29BB               	goto	u3871
  9095  09BA  29BC               	goto	u3870
  9096  09BB                     u3871:	
  9097  09BB  29CB               	goto	l3446
  9098  09BC                     u3870:	
  9099  09BC                     l3442:	
  9100  09BC  083F               	movf	___lldiv@divisor,w
  9101  09BD  02C3               	subwf	___lldiv@dividend,f
  9102  09BE  0840               	movf	___lldiv@divisor+1,w
  9103  09BF  1C03               	skipc
  9104  09C0  0F40               	incfsz	___lldiv@divisor+1,w
  9105  09C1  02C4               	subwf	___lldiv@dividend+1,f
  9106  09C2  0841               	movf	___lldiv@divisor+2,w
  9107  09C3  1C03               	skipc
  9108  09C4  0F41               	incfsz	___lldiv@divisor+2,w
  9109  09C5  02C5               	subwf	___lldiv@dividend+2,f
  9110  09C6  0842               	movf	___lldiv@divisor+3,w
  9111  09C7  1C03               	skipc
  9112  09C8  0F42               	incfsz	___lldiv@divisor+3,w
  9113  09C9  02C6               	subwf	___lldiv@dividend+3,f
  9114  09CA                     l3444:	
  9115  09CA  1448               	bsf	___lldiv@quotient,0
  9116  09CB                     l3446:	
  9117  09CB  3001               	movlw	1
  9118  09CC                     u3885:	
  9119  09CC  1003               	clrc
  9120  09CD  0CC2               	rrf	___lldiv@divisor+3,f
  9121  09CE  0CC1               	rrf	___lldiv@divisor+2,f
  9122  09CF  0CC0               	rrf	___lldiv@divisor+1,f
  9123  09D0  0CBF               	rrf	___lldiv@divisor,f
  9124  09D1  3EFF               	addlw	-1
  9125  09D2  1D03               	skipz
  9126  09D3  29CC               	goto	u3885
  9127  09D4                     l3448:	
  9128  09D4  3001               	movlw	1
  9129  09D5  02CC               	subwf	___lldiv@counter,f
  9130  09D6  1D03               	btfss	3,2
  9131  09D7  29D9               	goto	u3891
  9132  09D8  29DA               	goto	u3890
  9133  09D9                     u3891:	
  9134  09D9  29A1               	goto	l3438
  9135  09DA                     u3890:	
  9136  09DA                     l3450:	
  9137  09DA  084B               	movf	___lldiv@quotient+3,w
  9138  09DB  00C2               	movwf	?___lldiv+3
  9139  09DC  084A               	movf	___lldiv@quotient+2,w
  9140  09DD  00C1               	movwf	?___lldiv+2
  9141  09DE  0849               	movf	___lldiv@quotient+1,w
  9142  09DF  00C0               	movwf	?___lldiv+1
  9143  09E0  0848               	movf	___lldiv@quotient,w
  9144  09E1  00BF               	movwf	?___lldiv
  9145  09E2                     l930:	
  9146  09E2  0008               	return
  9147  09E3                     __end_of___lldiv:	
  9148                           
  9149                           	psect	text50
  9150  0A4C                     __ptext50:	
  9151 ;; *************** function _ADC_Select_prescaler *****************
  9152 ;; Defined at:
  9153 ;;		line 178 in file "ADC.c"
  9154 ;; Parameters:    Size  Location     Type
  9155 ;;  a_ADC_presca    1    wreg     enum E20
  9156 ;; Auto vars:     Size  Location     Type
  9157 ;;  a_ADC_presca    1    2[BANK0 ] enum E20
  9158 ;; Return value:  Size  Location     Type
  9159 ;;                  1    wreg      void 
  9160 ;; Registers used:
  9161 ;;		wreg, fsr0l, fsr0h, status,2, status,0
  9162 ;; Tracked objects:
  9163 ;;		On entry : 0/0
  9164 ;;		On exit  : 0/0
  9165 ;;		Unchanged: 0/0
  9166 ;; Data sizes:     COMMON   BANK0   BANK1   BANK3   BANK2
  9167 ;;      Params:         0       0       0       0       0
  9168 ;;      Locals:         0       1       0       0       0
  9169 ;;      Temps:          0       2       0       0       0
  9170 ;;      Totals:         0       3       0       0       0
  9171 ;;Total ram usage:        3 bytes
  9172 ;; Hardware stack levels used:    1
  9173 ;; Hardware stack levels required when called:    3
  9174 ;; This function calls:
  9175 ;;		Nothing
  9176 ;; This function is called by:
  9177 ;;		_Heater_Initialization
  9178 ;; This function uses a non-reentrant model
  9179 ;;
  9180                           
  9181                           
  9182                           ;psect for function _ADC_Select_prescaler
  9183  0A4C                     _ADC_Select_prescaler:	
  9184                           
  9185                           ;incstack = 0
  9186                           ; Regs used in _ADC_Select_prescaler: [wreg-fsr0h+status,2+status,0]
  9187                           ;ADC_Select_prescaler@a_ADC_prescaler_t stored from wreg
  9188  0A4C  1283               	bcf	3,5	;RP0=0, select bank0
  9189  0A4D  1303               	bcf	3,6	;RP1=0, select bank0
  9190  0A4E  00C1               	movwf	ADC_Select_prescaler@a_ADC_prescaler_t
  9191  0A4F                     l3856:	
  9192                           
  9193                           ;ADC.c: 178: void ADC_Select_prescaler(EnumADC_prescaler_t a_ADC_prescaler_t);ADC.c: 179
      +                          : {;ADC.c: 181:     switch(a_ADC_prescaler_t)
  9194  0A4F  2A95               	goto	l3882
  9195  0A50                     l3858:	
  9196                           
  9197                           ;ADC.c: 184:             *(volatile uint8*)0x1F &= ~(1 << 6u);
  9198  0A50  30BF               	movlw	191
  9199  0A51  00BF               	movwf	??_ADC_Select_prescaler
  9200  0A52  083F               	movf	??_ADC_Select_prescaler,w
  9201  0A53  059F               	andwf	31,f	;volatile
  9202                           
  9203                           ;ADC.c: 185:             *(volatile uint8*)0x1F &= ~(1 << 7u);
  9204  0A54  307F               	movlw	127
  9205  0A55  00BF               	movwf	??_ADC_Select_prescaler
  9206  0A56  083F               	movf	??_ADC_Select_prescaler,w
  9207  0A57  059F               	andwf	31,f	;volatile
  9208                           
  9209                           ;ADC.c: 186:             *(volatile uint8*)0x9F &= ~(1 << 6u);
  9210  0A58  30BF               	movlw	191
  9211  0A59  00BF               	movwf	??_ADC_Select_prescaler
  9212  0A5A  083F               	movf	??_ADC_Select_prescaler,w
  9213  0A5B  1683               	bsf	3,5	;RP0=1, select bank1
  9214  0A5C  1303               	bcf	3,6	;RP1=0, select bank1
  9215  0A5D  059F               	andwf	31,f	;volatile
  9216                           
  9217                           ;ADC.c: 187:             break;
  9218  0A5E  2AB4               	goto	l43
  9219  0A5F                     l3860:	
  9220                           
  9221                           ;ADC.c: 189:             *(volatile uint8*)0x1F &= ~(1 << 6u);
  9222  0A5F  30BF               	movlw	191
  9223  0A60  00BF               	movwf	??_ADC_Select_prescaler
  9224  0A61  083F               	movf	??_ADC_Select_prescaler,w
  9225  0A62  059F               	andwf	31,f	;volatile
  9226                           
  9227                           ;ADC.c: 190:             *(volatile uint8*)0x1F &= ~(1 << 7u);
  9228  0A63  307F               	movlw	127
  9229  0A64  00BF               	movwf	??_ADC_Select_prescaler
  9230  0A65  083F               	movf	??_ADC_Select_prescaler,w
  9231  0A66  059F               	andwf	31,f	;volatile
  9232  0A67                     l3862:	
  9233                           
  9234                           ;ADC.c: 191:             *(volatile uint8*)0x9F |= 1 << 6u;
  9235  0A67  1683               	bsf	3,5	;RP0=1, select bank1
  9236  0A68  1303               	bcf	3,6	;RP1=0, select bank1
  9237  0A69  171F               	bsf	31,6	;volatile
  9238                           
  9239                           ;ADC.c: 192:             break;
  9240  0A6A  2AB4               	goto	l43
  9241  0A6B                     l45:	
  9242                           ;ADC.c: 193:         case ADC_PRESCALER_8:
  9243                           
  9244                           
  9245                           ;ADC.c: 194:             *(volatile uint8*)0x1F |= 1 << 6u;
  9246  0A6B  171F               	bsf	31,6	;volatile
  9247  0A6C                     l3864:	
  9248                           
  9249                           ;ADC.c: 195:             *(volatile uint8*)0x1F &= ~(1 << 7u);
  9250  0A6C  307F               	movlw	127
  9251  0A6D  00BF               	movwf	??_ADC_Select_prescaler
  9252  0A6E  083F               	movf	??_ADC_Select_prescaler,w
  9253  0A6F  059F               	andwf	31,f	;volatile
  9254                           
  9255                           ;ADC.c: 196:             *(volatile uint8*)0x9F &= ~(1 << 6u);
  9256  0A70  30BF               	movlw	191
  9257  0A71  00BF               	movwf	??_ADC_Select_prescaler
  9258  0A72  083F               	movf	??_ADC_Select_prescaler,w
  9259  0A73  1683               	bsf	3,5	;RP0=1, select bank1
  9260  0A74  1303               	bcf	3,6	;RP1=0, select bank1
  9261  0A75  059F               	andwf	31,f	;volatile
  9262                           
  9263                           ;ADC.c: 197:             break;
  9264  0A76  2AB4               	goto	l43
  9265  0A77                     l46:	
  9266                           ;ADC.c: 198:         case ADC_PRESCALER_16:
  9267                           
  9268                           
  9269                           ;ADC.c: 199:             *(volatile uint8*)0x1F |= 1 << 6u;
  9270  0A77  171F               	bsf	31,6	;volatile
  9271  0A78                     l3866:	
  9272                           
  9273                           ;ADC.c: 200:             *(volatile uint8*)0x1F &= ~(1 << 7u);
  9274  0A78  307F               	movlw	127
  9275  0A79  00BF               	movwf	??_ADC_Select_prescaler
  9276  0A7A  083F               	movf	??_ADC_Select_prescaler,w
  9277  0A7B  059F               	andwf	31,f	;volatile
  9278  0A7C  2A67               	goto	l3862
  9279  0A7D                     l3870:	
  9280                           
  9281                           ;ADC.c: 204:             *(volatile uint8*)0x1F &= ~(1 << 6u);
  9282  0A7D  30BF               	movlw	191
  9283  0A7E  00BF               	movwf	??_ADC_Select_prescaler
  9284  0A7F  083F               	movf	??_ADC_Select_prescaler,w
  9285  0A80  059F               	andwf	31,f	;volatile
  9286  0A81                     l3872:	
  9287                           
  9288                           ;ADC.c: 205:             *(volatile uint8*)0x1F |= 1 << 7u;
  9289  0A81  179F               	bsf	31,7	;volatile
  9290                           
  9291                           ;ADC.c: 206:             *(volatile uint8*)0x9F &= ~(1 << 6u);
  9292  0A82  30BF               	movlw	191
  9293  0A83  00BF               	movwf	??_ADC_Select_prescaler
  9294  0A84  083F               	movf	??_ADC_Select_prescaler,w
  9295  0A85  1683               	bsf	3,5	;RP0=1, select bank1
  9296  0A86  1303               	bcf	3,6	;RP1=0, select bank1
  9297  0A87  059F               	andwf	31,f	;volatile
  9298                           
  9299                           ;ADC.c: 207:             break;
  9300  0A88  2AB4               	goto	l43
  9301  0A89                     l3874:	
  9302                           
  9303                           ;ADC.c: 209:             *(volatile uint8*)0x1F &= ~(1 << 6u);
  9304  0A89  30BF               	movlw	191
  9305  0A8A  00BF               	movwf	??_ADC_Select_prescaler
  9306  0A8B  083F               	movf	??_ADC_Select_prescaler,w
  9307  0A8C  059F               	andwf	31,f	;volatile
  9308  0A8D                     l3876:	
  9309                           
  9310                           ;ADC.c: 210:             *(volatile uint8*)0x1F |= 1 << 7u;
  9311  0A8D  179F               	bsf	31,7	;volatile
  9312  0A8E  2A67               	goto	l3862
  9313  0A8F                     l49:	
  9314                           ;ADC.c: 213:         case ADC_OSCILLATOR_CLOCK:
  9315                           
  9316                           
  9317                           ;ADC.c: 214:             *(volatile uint8*)0x1F |= 1 << 6u;
  9318  0A8F  171F               	bsf	31,6	;volatile
  9319                           
  9320                           ;ADC.c: 215:             *(volatile uint8*)0x1F |= 1 << 7u;
  9321  0A90  179F               	bsf	31,7	;volatile
  9322                           
  9323                           ;ADC.c: 216:             *(volatile uint8*)0x9F |= 1 << 6u;
  9324  0A91  1683               	bsf	3,5	;RP0=1, select bank1
  9325  0A92  1303               	bcf	3,6	;RP1=0, select bank1
  9326  0A93  171F               	bsf	31,6	;volatile
  9327                           
  9328                           ;ADC.c: 217:             break;
  9329  0A94  2AB4               	goto	l43
  9330  0A95                     l3882:	
  9331  0A95  0841               	movf	ADC_Select_prescaler@a_ADC_prescaler_t,w
  9332  0A96  00BF               	movwf	??_ADC_Select_prescaler
  9333  0A97  01C0               	clrf	??_ADC_Select_prescaler+1
  9334                           
  9335                           ; Switch on 2 bytes has been partitioned into a top level switch of size 1, and 1 sub-sw
      +                          itches
  9336                           ; Switch size 1, requested type "simple"
  9337                           ; Number of cases is 1, Range of values is 0 to 0
  9338                           ; switch strategies available:
  9339                           ; Name         Instructions Cycles
  9340                           ; simple_byte            4     3 (average)
  9341                           ; direct_byte           11     8 (fixed)
  9342                           ; jumptable            260     6 (fixed)
  9343                           ;	Chosen strategy is simple_byte
  9344  0A98  0840               	movf	??_ADC_Select_prescaler+1,w
  9345  0A99  3A00               	xorlw	0	; case 0
  9346  0A9A  1903               	skipnz
  9347  0A9B  2A9D               	goto	l4756
  9348  0A9C  2AB4               	goto	l43
  9349  0A9D                     l4756:	
  9350                           
  9351                           ; Switch size 1, requested type "simple"
  9352                           ; Number of cases is 7, Range of values is 0 to 6
  9353                           ; switch strategies available:
  9354                           ; Name         Instructions Cycles
  9355                           ; simple_byte           22    12 (average)
  9356                           ; direct_byte           29     8 (fixed)
  9357                           ; jumptable            260     6 (fixed)
  9358                           ;	Chosen strategy is simple_byte
  9359  0A9D  083F               	movf	??_ADC_Select_prescaler,w
  9360  0A9E  3A00               	xorlw	0	; case 0
  9361  0A9F  1903               	skipnz
  9362  0AA0  2A50               	goto	l3858
  9363  0AA1  3A01               	xorlw	1	; case 1
  9364  0AA2  1903               	skipnz
  9365  0AA3  2A6B               	goto	l45
  9366  0AA4  3A03               	xorlw	3	; case 2
  9367  0AA5  1903               	skipnz
  9368  0AA6  2A7D               	goto	l3870
  9369  0AA7  3A01               	xorlw	1	; case 3
  9370  0AA8  1903               	skipnz
  9371  0AA9  2A8F               	goto	l49
  9372  0AAA  3A07               	xorlw	7	; case 4
  9373  0AAB  1903               	skipnz
  9374  0AAC  2A5F               	goto	l3860
  9375  0AAD  3A01               	xorlw	1	; case 5
  9376  0AAE  1903               	skipnz
  9377  0AAF  2A77               	goto	l46
  9378  0AB0  3A03               	xorlw	3	; case 6
  9379  0AB1  1903               	skipnz
  9380  0AB2  2A89               	goto	l3874
  9381  0AB3  2AB4               	goto	l43
  9382  0AB4                     l43:	
  9383                           
  9384                           ;ADC.c: 223:     *(volatile uint8*)0x1F |= 1 << 0u;
  9385  0AB4  1283               	bcf	3,5	;RP0=0, select bank0
  9386  0AB5  141F               	bsf	31,0	;volatile
  9387  0AB6                     l51:	
  9388  0AB6  0008               	return
  9389  0AB7                     __end_of_ADC_Select_prescaler:	
  9390                           
  9391                           	psect	text51
  9392  0170                     __ptext51:	
  9393 ;; *************** function _ADC_Initialization *****************
  9394 ;; Defined at:
  9395 ;;		line 38 in file "ADC.c"
  9396 ;; Parameters:    Size  Location     Type
  9397 ;;  a_ADC_channe    1    wreg     enum E10
  9398 ;;  a_ADC_Vref_h    1    0[BANK0 ] enum E33
  9399 ;;  a_ADC_Vref_l    1    1[BANK0 ] enum E33
  9400 ;; Auto vars:     Size  Location     Type
  9401 ;;  a_ADC_channe    1    4[BANK0 ] enum E10
  9402 ;; Return value:  Size  Location     Type
  9403 ;;                  1    wreg      void 
  9404 ;; Registers used:
  9405 ;;		wreg, fsr0l, fsr0h, status,2, status,0
  9406 ;; Tracked objects:
  9407 ;;		On entry : 0/0
  9408 ;;		On exit  : 0/0
  9409 ;;		Unchanged: 0/0
  9410 ;; Data sizes:     COMMON   BANK0   BANK1   BANK3   BANK2
  9411 ;;      Params:         0       2       0       0       0
  9412 ;;      Locals:         0       1       0       0       0
  9413 ;;      Temps:          0       2       0       0       0
  9414 ;;      Totals:         0       5       0       0       0
  9415 ;;Total ram usage:        5 bytes
  9416 ;; Hardware stack levels used:    1
  9417 ;; Hardware stack levels required when called:    3
  9418 ;; This function calls:
  9419 ;;		Nothing
  9420 ;; This function is called by:
  9421 ;;		_Heater_Initialization
  9422 ;; This function uses a non-reentrant model
  9423 ;;
  9424                           
  9425                           
  9426                           ;psect for function _ADC_Initialization
  9427  0170                     _ADC_Initialization:	
  9428                           
  9429                           ;incstack = 0
  9430                           ; Regs used in _ADC_Initialization: [wreg-fsr0h+status,2+status,0]
  9431                           ;ADC_Initialization@a_ADC_channel_t stored from wreg
  9432  0170  1283               	bcf	3,5	;RP0=0, select bank0
  9433  0171  1303               	bcf	3,6	;RP1=0, select bank0
  9434  0172  00C3               	movwf	ADC_Initialization@a_ADC_channel_t
  9435  0173                     l3780:	
  9436                           
  9437                           ;ADC.c: 38: extern void ADC_Initialization(EnumADC_channels_t a_ADC_channel_t ,;ADC.c: 3
      +                          9:                                EnumADC_Vref_value_t a_ADC_Vref_high_t ,;ADC.c: 40:   
      +                                                       EnumADC_Vref_value_t a_ADC_Vref_low_t);ADC.c: 41: {;ADC.c: 
      +                          43:     *(volatile uint8*)0x1F &= 0xC7;
  9438  0173  30C7               	movlw	199
  9439  0174  00C1               	movwf	??_ADC_Initialization
  9440  0175  0841               	movf	??_ADC_Initialization,w
  9441  0176  059F               	andwf	31,f	;volatile
  9442                           
  9443                           ;ADC.c: 45:     *(volatile uint8*)0x1F |= a_ADC_channel_t << 3;
  9444  0177  0843               	movf	ADC_Initialization@a_ADC_channel_t,w
  9445  0178  00C1               	movwf	??_ADC_Initialization
  9446  0179  3002               	movlw	2
  9447  017A                     u4575:	
  9448  017A  1003               	clrc
  9449  017B  0DC1               	rlf	??_ADC_Initialization,f
  9450  017C  3EFF               	addlw	-1
  9451  017D  1D03               	skipz
  9452  017E  297A               	goto	u4575
  9453  017F  1003               	clrc
  9454  0180  0D41               	rlf	??_ADC_Initialization,w
  9455  0181  00C2               	movwf	??_ADC_Initialization+1
  9456  0182  0842               	movf	??_ADC_Initialization+1,w
  9457  0183  049F               	iorwf	31,f	;volatile
  9458                           
  9459                           ;ADC.c: 48:     *(volatile uint8*)0x9F &= 0xF0;
  9460  0184  30F0               	movlw	240
  9461  0185  00C1               	movwf	??_ADC_Initialization
  9462  0186  0841               	movf	??_ADC_Initialization,w
  9463  0187  1683               	bsf	3,5	;RP0=1, select bank1
  9464  0188  1303               	bcf	3,6	;RP1=0, select bank1
  9465  0189  059F               	andwf	31,f	;volatile
  9466                           
  9467                           ;ADC.c: 49:     switch(a_ADC_channel_t)
  9468  018A  2A52               	goto	l3850
  9469  018B                     l3782:	
  9470                           
  9471                           ;ADC.c: 53:             if(a_ADC_Vref_high_t == ADC_V_REF_INPUT_PIN)
  9472  018B  083F               	movf	ADC_Initialization@a_ADC_Vref_high_t,w
  9473  018C  1D03               	btfss	3,2
  9474  018D  298F               	goto	u4581
  9475  018E  2990               	goto	u4580
  9476  018F                     u4581:	
  9477  018F  2997               	goto	l3786
  9478  0190                     u4580:	
  9479  0190                     l3784:	
  9480                           
  9481                           ;ADC.c: 54:             {;ADC.c: 55:                 *(volatile uint8*)0x9F |= 0x0F;
  9482  0190  300F               	movlw	15
  9483  0191  00C1               	movwf	??_ADC_Initialization
  9484  0192  0841               	movf	??_ADC_Initialization,w
  9485  0193  1683               	bsf	3,5	;RP0=1, select bank1
  9486  0194  1303               	bcf	3,6	;RP1=0, select bank1
  9487  0195  049F               	iorwf	31,f	;volatile
  9488                           
  9489                           ;ADC.c: 56:             }
  9490  0196  299D               	goto	l3788
  9491  0197                     l3786:	
  9492                           
  9493                           ;ADC.c: 58:             {;ADC.c: 59:                 *(volatile uint8*)0x9F |= 0x0E;
  9494  0197  300E               	movlw	14
  9495  0198  00C1               	movwf	??_ADC_Initialization
  9496  0199  0841               	movf	??_ADC_Initialization,w
  9497  019A  1683               	bsf	3,5	;RP0=1, select bank1
  9498  019B  1303               	bcf	3,6	;RP1=0, select bank1
  9499  019C  049F               	iorwf	31,f	;volatile
  9500  019D                     l3788:	
  9501                           
  9502                           ;ADC.c: 61:             *(volatile uint8*)0x85 |= 1 << 0u;
  9503  019D  1405               	bsf	5,0	;volatile
  9504                           
  9505                           ;ADC.c: 62:             break;
  9506  019E  2A76               	goto	l38
  9507  019F                     l3790:	
  9508                           
  9509                           ;ADC.c: 65:             if(a_ADC_Vref_high_t == ADC_V_REF_INPUT_PIN && a_ADC_Vref_low_t 
      +                          == ADC_V_REF_INPUT_PIN)
  9510  019F  083F               	movf	ADC_Initialization@a_ADC_Vref_high_t,w
  9511  01A0  1D03               	btfss	3,2
  9512  01A1  29A3               	goto	u4591
  9513  01A2  29A4               	goto	u4590
  9514  01A3                     u4591:	
  9515  01A3  29B0               	goto	l3796
  9516  01A4                     u4590:	
  9517  01A4                     l3792:	
  9518  01A4  0840               	movf	ADC_Initialization@a_ADC_Vref_low_t,w
  9519  01A5  1D03               	btfss	3,2
  9520  01A6  29A8               	goto	u4601
  9521  01A7  29A9               	goto	u4600
  9522  01A8                     u4601:	
  9523  01A8  29B0               	goto	l3796
  9524  01A9                     u4600:	
  9525  01A9                     l3794:	
  9526                           
  9527                           ;ADC.c: 66:             {;ADC.c: 67:                 *(volatile uint8*)0x9F |= 0x0D;
  9528  01A9  300D               	movlw	13
  9529  01AA  00C1               	movwf	??_ADC_Initialization
  9530  01AB  0841               	movf	??_ADC_Initialization,w
  9531  01AC  1683               	bsf	3,5	;RP0=1, select bank1
  9532  01AD  1303               	bcf	3,6	;RP1=0, select bank1
  9533  01AE  049F               	iorwf	31,f	;volatile
  9534                           
  9535                           ;ADC.c: 68:             }
  9536  01AF  29BF               	goto	l10
  9537  01B0                     l3796:	
  9538  01B0  083F               	movf	ADC_Initialization@a_ADC_Vref_high_t,w
  9539  01B1  1D03               	btfss	3,2
  9540  01B2  29B4               	goto	u4611
  9541  01B3  29B5               	goto	u4610
  9542  01B4                     u4611:	
  9543  01B4  29BC               	goto	l11
  9544  01B5                     u4610:	
  9545  01B5                     l3798:	
  9546                           
  9547                           ;ADC.c: 70:             {;ADC.c: 71:                 *(volatile uint8*)0x9F |= 0x05;
  9548  01B5  3005               	movlw	5
  9549  01B6  00C1               	movwf	??_ADC_Initialization
  9550  01B7  0841               	movf	??_ADC_Initialization,w
  9551  01B8  1683               	bsf	3,5	;RP0=1, select bank1
  9552  01B9  1303               	bcf	3,6	;RP1=0, select bank1
  9553  01BA  049F               	iorwf	31,f	;volatile
  9554                           
  9555                           ;ADC.c: 72:             }
  9556  01BB  29BF               	goto	l10
  9557  01BC                     l11:	
  9558                           ;ADC.c: 73:             else
  9559                           
  9560                           
  9561                           ;ADC.c: 74:             {;ADC.c: 75:                 *(volatile uint8*)0x9F |= 0x04;
  9562  01BC  1683               	bsf	3,5	;RP0=1, select bank1
  9563  01BD  1303               	bcf	3,6	;RP1=0, select bank1
  9564  01BE  151F               	bsf	31,2	;volatile
  9565  01BF                     l10:	
  9566                           
  9567                           ;ADC.c: 77:             *(volatile uint8*)0x85 |= 1 << 1u;
  9568  01BF  1485               	bsf	5,1	;volatile
  9569                           
  9570                           ;ADC.c: 78:             break;
  9571  01C0  2A76               	goto	l38
  9572  01C1                     l3800:	
  9573                           
  9574                           ;ADC.c: 81:             if(a_ADC_Vref_high_t == ADC_V_REF_INPUT_PIN)
  9575  01C1  083F               	movf	ADC_Initialization@a_ADC_Vref_high_t,w
  9576  01C2  1D03               	btfss	3,2
  9577  01C3  29C5               	goto	u4621
  9578  01C4  29C6               	goto	u4620
  9579  01C5                     u4621:	
  9580  01C5  29CD               	goto	l14
  9581  01C6                     u4620:	
  9582  01C6                     l3802:	
  9583                           
  9584                           ;ADC.c: 82:             {;ADC.c: 83:                 *(volatile uint8*)0x9F |= 0x03;
  9585  01C6  3003               	movlw	3
  9586  01C7  00C1               	movwf	??_ADC_Initialization
  9587  01C8  0841               	movf	??_ADC_Initialization,w
  9588  01C9  1683               	bsf	3,5	;RP0=1, select bank1
  9589  01CA  1303               	bcf	3,6	;RP1=0, select bank1
  9590  01CB  049F               	iorwf	31,f	;volatile
  9591                           
  9592                           ;ADC.c: 84:             }
  9593  01CC  29D0               	goto	l15
  9594  01CD                     l14:	
  9595                           ;ADC.c: 85:             else
  9596                           
  9597                           
  9598                           ;ADC.c: 86:             {;ADC.c: 87:                 *(volatile uint8*)0x9F |= 0x02;
  9599  01CD  1683               	bsf	3,5	;RP0=1, select bank1
  9600  01CE  1303               	bcf	3,6	;RP1=0, select bank1
  9601  01CF  149F               	bsf	31,1	;volatile
  9602  01D0                     l15:	
  9603                           ;ADC.c: 88:             }
  9604                           
  9605                           
  9606                           ;ADC.c: 89:             *(volatile uint8*)0x85 |= 1 << 2u;
  9607  01D0  1505               	bsf	5,2	;volatile
  9608                           
  9609                           ;ADC.c: 90:             break;
  9610  01D1  2A76               	goto	l38
  9611  01D2                     l16:	
  9612                           ;ADC.c: 91:         case ADC_CHANNEL_3:
  9613                           
  9614                           
  9615                           ;ADC.c: 92:             *(volatile uint8*)0x9F |= 0x04;
  9616  01D2  1683               	bsf	3,5	;RP0=1, select bank1
  9617  01D3  1303               	bcf	3,6	;RP1=0, select bank1
  9618  01D4  151F               	bsf	31,2	;volatile
  9619                           
  9620                           ;ADC.c: 93:             *(volatile uint8*)0x85 |= 1 << 3u;
  9621  01D5  1585               	bsf	5,3	;volatile
  9622                           
  9623                           ;ADC.c: 94:             break;
  9624  01D6  2A76               	goto	l38
  9625  01D7                     l3804:	
  9626                           
  9627                           ;ADC.c: 97:             if(a_ADC_Vref_high_t == ADC_V_REF_INPUT_PIN && a_ADC_Vref_low_t 
      +                          == ADC_V_REF_INPUT_PIN)
  9628  01D7  083F               	movf	ADC_Initialization@a_ADC_Vref_high_t,w
  9629  01D8  1D03               	btfss	3,2
  9630  01D9  29DB               	goto	u4631
  9631  01DA  29DC               	goto	u4630
  9632  01DB                     u4631:	
  9633  01DB  29E8               	goto	l3810
  9634  01DC                     u4630:	
  9635  01DC                     l3806:	
  9636  01DC  0840               	movf	ADC_Initialization@a_ADC_Vref_low_t,w
  9637  01DD  1D03               	btfss	3,2
  9638  01DE  29E0               	goto	u4641
  9639  01DF  29E1               	goto	u4640
  9640  01E0                     u4641:	
  9641  01E0  29E8               	goto	l3810
  9642  01E1                     u4640:	
  9643  01E1                     l3808:	
  9644                           
  9645                           ;ADC.c: 98:             {;ADC.c: 99:                 *(volatile uint8*)0x9F |= 0x0C;
  9646  01E1  300C               	movlw	12
  9647  01E2  00C1               	movwf	??_ADC_Initialization
  9648  01E3  0841               	movf	??_ADC_Initialization,w
  9649  01E4  1683               	bsf	3,5	;RP0=1, select bank1
  9650  01E5  1303               	bcf	3,6	;RP1=0, select bank1
  9651  01E6  049F               	iorwf	31,f	;volatile
  9652                           
  9653                           ;ADC.c: 100:             }
  9654  01E7  29F7               	goto	l19
  9655  01E8                     l3810:	
  9656  01E8  083F               	movf	ADC_Initialization@a_ADC_Vref_high_t,w
  9657  01E9  1D03               	btfss	3,2
  9658  01EA  29EC               	goto	u4651
  9659  01EB  29ED               	goto	u4650
  9660  01EC                     u4651:	
  9661  01EC  29F4               	goto	l20
  9662  01ED                     u4650:	
  9663  01ED                     l3812:	
  9664                           
  9665                           ;ADC.c: 102:             {;ADC.c: 103:                 *(volatile uint8*)0x9F |= 0x03;
  9666  01ED  3003               	movlw	3
  9667  01EE  00C1               	movwf	??_ADC_Initialization
  9668  01EF  0841               	movf	??_ADC_Initialization,w
  9669  01F0  1683               	bsf	3,5	;RP0=1, select bank1
  9670  01F1  1303               	bcf	3,6	;RP1=0, select bank1
  9671  01F2  049F               	iorwf	31,f	;volatile
  9672                           
  9673                           ;ADC.c: 104:             }
  9674  01F3  29F7               	goto	l19
  9675  01F4                     l20:	
  9676                           ;ADC.c: 105:             else
  9677                           
  9678                           
  9679                           ;ADC.c: 106:             {;ADC.c: 107:                 *(volatile uint8*)0x9F |= 0x02;
  9680  01F4  1683               	bsf	3,5	;RP0=1, select bank1
  9681  01F5  1303               	bcf	3,6	;RP1=0, select bank1
  9682  01F6  149F               	bsf	31,1	;volatile
  9683  01F7                     l19:	
  9684                           
  9685                           ;ADC.c: 109:             *(volatile uint8*)0x85 |= 1 << 5u;
  9686  01F7  1685               	bsf	5,5	;volatile
  9687                           
  9688                           ;ADC.c: 110:             break;
  9689  01F8  2A76               	goto	l38
  9690  01F9                     l3814:	
  9691                           
  9692                           ;ADC.c: 113:             if(a_ADC_Vref_high_t == ADC_V_REF_INPUT_PIN && a_ADC_Vref_low_t
      +                           == ADC_V_REF_INPUT_PIN)
  9693  01F9  083F               	movf	ADC_Initialization@a_ADC_Vref_high_t,w
  9694  01FA  1D03               	btfss	3,2
  9695  01FB  29FD               	goto	u4661
  9696  01FC  29FE               	goto	u4660
  9697  01FD                     u4661:	
  9698  01FD  2A0A               	goto	l3820
  9699  01FE                     u4660:	
  9700  01FE                     l3816:	
  9701  01FE  0840               	movf	ADC_Initialization@a_ADC_Vref_low_t,w
  9702  01FF  1D03               	btfss	3,2
  9703  0200  2A02               	goto	u4671
  9704  0201  2A03               	goto	u4670
  9705  0202                     u4671:	
  9706  0202  2A0A               	goto	l3820
  9707  0203                     u4670:	
  9708  0203                     l3818:	
  9709                           
  9710                           ;ADC.c: 114:             {;ADC.c: 115:                 *(volatile uint8*)0x9F |= 0x0B;
  9711  0203  300B               	movlw	11
  9712  0204  00C1               	movwf	??_ADC_Initialization
  9713  0205  0841               	movf	??_ADC_Initialization,w
  9714  0206  1683               	bsf	3,5	;RP0=1, select bank1
  9715  0207  1303               	bcf	3,6	;RP1=0, select bank1
  9716  0208  049F               	iorwf	31,f	;volatile
  9717                           
  9718                           ;ADC.c: 116:             }
  9719  0209  2A1C               	goto	l3826
  9720  020A                     l3820:	
  9721  020A  083F               	movf	ADC_Initialization@a_ADC_Vref_high_t,w
  9722  020B  1D03               	btfss	3,2
  9723  020C  2A0E               	goto	u4681
  9724  020D  2A0F               	goto	u4680
  9725  020E                     u4681:	
  9726  020E  2A16               	goto	l3824
  9727  020F                     u4680:	
  9728  020F                     l3822:	
  9729                           
  9730                           ;ADC.c: 118:             {;ADC.c: 119:                 *(volatile uint8*)0x9F |= 0x0A;
  9731  020F  300A               	movlw	10
  9732  0210  00C1               	movwf	??_ADC_Initialization
  9733  0211  0841               	movf	??_ADC_Initialization,w
  9734  0212  1683               	bsf	3,5	;RP0=1, select bank1
  9735  0213  1303               	bcf	3,6	;RP1=0, select bank1
  9736  0214  049F               	iorwf	31,f	;volatile
  9737                           
  9738                           ;ADC.c: 120:             }
  9739  0215  2A1C               	goto	l3826
  9740  0216                     l3824:	
  9741                           
  9742                           ;ADC.c: 122:             {;ADC.c: 123:                 *(volatile uint8*)0x9F |= 0x09;
  9743  0216  3009               	movlw	9
  9744  0217  00C1               	movwf	??_ADC_Initialization
  9745  0218  0841               	movf	??_ADC_Initialization,w
  9746  0219  1683               	bsf	3,5	;RP0=1, select bank1
  9747  021A  1303               	bcf	3,6	;RP1=0, select bank1
  9748  021B  049F               	iorwf	31,f	;volatile
  9749  021C                     l3826:	
  9750                           
  9751                           ;ADC.c: 125:             *(volatile uint8*)0x89 |= 1 << 0u;
  9752  021C  1409               	bsf	9,0	;volatile
  9753                           
  9754                           ;ADC.c: 126:             break;
  9755  021D  2A76               	goto	l38
  9756  021E                     l3828:	
  9757                           
  9758                           ;ADC.c: 129:             if(a_ADC_Vref_high_t == ADC_V_REF_INPUT_PIN && a_ADC_Vref_low_t
      +                           == ADC_V_REF_INPUT_PIN)
  9759  021E  083F               	movf	ADC_Initialization@a_ADC_Vref_high_t,w
  9760  021F  1D03               	btfss	3,2
  9761  0220  2A22               	goto	u4691
  9762  0221  2A23               	goto	u4690
  9763  0222                     u4691:	
  9764  0222  2A2C               	goto	l3834
  9765  0223                     u4690:	
  9766  0223                     l3830:	
  9767  0223  0840               	movf	ADC_Initialization@a_ADC_Vref_low_t,w
  9768  0224  1D03               	btfss	3,2
  9769  0225  2A27               	goto	u4701
  9770  0226  2A28               	goto	u4700
  9771  0227                     u4701:	
  9772  0227  2A2C               	goto	l3834
  9773  0228                     u4700:	
  9774  0228                     l3832:	
  9775                           
  9776                           ;ADC.c: 130:             {;ADC.c: 131:                 *(volatile uint8*)0x9F |= 0x08;
  9777  0228  1683               	bsf	3,5	;RP0=1, select bank1
  9778  0229  1303               	bcf	3,6	;RP1=0, select bank1
  9779  022A  159F               	bsf	31,3	;volatile
  9780                           
  9781                           ;ADC.c: 132:             }
  9782  022B  2A34               	goto	l29
  9783  022C                     l3834:	
  9784  022C  083F               	movf	ADC_Initialization@a_ADC_Vref_high_t,w
  9785  022D  1D03               	btfss	3,2
  9786  022E  2A30               	goto	u4711
  9787  022F  2A31               	goto	u4710
  9788  0230                     u4711:	
  9789  0230  2A34               	goto	l29
  9790  0231                     u4710:	
  9791  0231                     l3836:	
  9792                           
  9793                           ;ADC.c: 134:             {;ADC.c: 135:                 *(volatile uint8*)0x9F |= 0x01;
  9794  0231  1683               	bsf	3,5	;RP0=1, select bank1
  9795  0232  1303               	bcf	3,6	;RP1=0, select bank1
  9796  0233  141F               	bsf	31,0	;volatile
  9797  0234                     l29:	
  9798                           ;ADC.c: 136:             }
  9799                           
  9800                           
  9801                           ;ADC.c: 141:             *(volatile uint8*)0x89 |= 1 << 1u;
  9802  0234  1683               	bsf	3,5	;RP0=1, select bank1
  9803  0235  1303               	bcf	3,6	;RP1=0, select bank1
  9804  0236  1489               	bsf	9,1	;volatile
  9805                           
  9806                           ;ADC.c: 142:             break;
  9807  0237  2A76               	goto	l38
  9808  0238                     l3838:	
  9809                           
  9810                           ;ADC.c: 145:             if(a_ADC_Vref_high_t == ADC_V_REF_INPUT_PIN && a_ADC_Vref_low_t
      +                           == ADC_V_REF_INPUT_PIN)
  9811  0238  083F               	movf	ADC_Initialization@a_ADC_Vref_high_t,w
  9812  0239  1D03               	btfss	3,2
  9813  023A  2A3C               	goto	u4721
  9814  023B  2A3D               	goto	u4720
  9815  023C                     u4721:	
  9816  023C  2A46               	goto	l3844
  9817  023D                     u4720:	
  9818  023D                     l3840:	
  9819  023D  0840               	movf	ADC_Initialization@a_ADC_Vref_low_t,w
  9820  023E  1D03               	btfss	3,2
  9821  023F  2A41               	goto	u4731
  9822  0240  2A42               	goto	u4730
  9823  0241                     u4731:	
  9824  0241  2A46               	goto	l3844
  9825  0242                     u4730:	
  9826  0242                     l3842:	
  9827                           
  9828                           ;ADC.c: 146:             {;ADC.c: 147:                 *(volatile uint8*)0x9F |= 0x08;
  9829  0242  1683               	bsf	3,5	;RP0=1, select bank1
  9830  0243  1303               	bcf	3,6	;RP1=0, select bank1
  9831  0244  159F               	bsf	31,3	;volatile
  9832                           
  9833                           ;ADC.c: 148:             }
  9834  0245  2A4E               	goto	l34
  9835  0246                     l3844:	
  9836  0246  083F               	movf	ADC_Initialization@a_ADC_Vref_high_t,w
  9837  0247  1D03               	btfss	3,2
  9838  0248  2A4A               	goto	u4741
  9839  0249  2A4B               	goto	u4740
  9840  024A                     u4741:	
  9841  024A  2A4E               	goto	l34
  9842  024B                     u4740:	
  9843  024B                     l3846:	
  9844                           
  9845                           ;ADC.c: 150:             {;ADC.c: 151:                 *(volatile uint8*)0x9F |= 0x01;
  9846  024B  1683               	bsf	3,5	;RP0=1, select bank1
  9847  024C  1303               	bcf	3,6	;RP1=0, select bank1
  9848  024D  141F               	bsf	31,0	;volatile
  9849  024E                     l34:	
  9850                           ;ADC.c: 152:             }
  9851                           
  9852                           
  9853                           ;ADC.c: 157:             *(volatile uint8*)0x89 |= 1 << 2u;
  9854  024E  1683               	bsf	3,5	;RP0=1, select bank1
  9855  024F  1303               	bcf	3,6	;RP1=0, select bank1
  9856  0250  1509               	bsf	9,2	;volatile
  9857                           
  9858                           ;ADC.c: 158:             break;
  9859  0251  2A76               	goto	l38
  9860  0252                     l3850:	
  9861  0252  1283               	bcf	3,5	;RP0=0, select bank0
  9862  0253  1303               	bcf	3,6	;RP1=0, select bank0
  9863  0254  0843               	movf	ADC_Initialization@a_ADC_channel_t,w
  9864  0255  00C1               	movwf	??_ADC_Initialization
  9865  0256  01C2               	clrf	??_ADC_Initialization+1
  9866                           
  9867                           ; Switch on 2 bytes has been partitioned into a top level switch of size 1, and 1 sub-sw
      +                          itches
  9868                           ; Switch size 1, requested type "simple"
  9869                           ; Number of cases is 1, Range of values is 0 to 0
  9870                           ; switch strategies available:
  9871                           ; Name         Instructions Cycles
  9872                           ; simple_byte            4     3 (average)
  9873                           ; direct_byte           11     8 (fixed)
  9874                           ; jumptable            260     6 (fixed)
  9875                           ;	Chosen strategy is simple_byte
  9876  0257  0842               	movf	??_ADC_Initialization+1,w
  9877  0258  3A00               	xorlw	0	; case 0
  9878  0259  1903               	skipnz
  9879  025A  2A5C               	goto	l4758
  9880  025B  2A76               	goto	l38
  9881  025C                     l4758:	
  9882                           
  9883                           ; Switch size 1, requested type "simple"
  9884                           ; Number of cases is 8, Range of values is 0 to 7
  9885                           ; switch strategies available:
  9886                           ; Name         Instructions Cycles
  9887                           ; simple_byte           25    13 (average)
  9888                           ; direct_byte           32     8 (fixed)
  9889                           ; jumptable            260     6 (fixed)
  9890                           ;	Chosen strategy is simple_byte
  9891  025C  0841               	movf	??_ADC_Initialization,w
  9892  025D  3A00               	xorlw	0	; case 0
  9893  025E  1903               	skipnz
  9894  025F  298B               	goto	l3782
  9895  0260  3A01               	xorlw	1	; case 1
  9896  0261  1903               	skipnz
  9897  0262  299F               	goto	l3790
  9898  0263  3A03               	xorlw	3	; case 2
  9899  0264  1903               	skipnz
  9900  0265  29C1               	goto	l3800
  9901  0266  3A01               	xorlw	1	; case 3
  9902  0267  1903               	skipnz
  9903  0268  29D2               	goto	l16
  9904  0269  3A07               	xorlw	7	; case 4
  9905  026A  1903               	skipnz
  9906  026B  29D7               	goto	l3804
  9907  026C  3A01               	xorlw	1	; case 5
  9908  026D  1903               	skipnz
  9909  026E  29F9               	goto	l3814
  9910  026F  3A03               	xorlw	3	; case 6
  9911  0270  1903               	skipnz
  9912  0271  2A1E               	goto	l3828
  9913  0272  3A01               	xorlw	1	; case 7
  9914  0273  1903               	skipnz
  9915  0274  2A38               	goto	l3838
  9916  0275  2A76               	goto	l38
  9917  0276                     l38:	
  9918  0276  0008               	return
  9919  0277                     __end_of_ADC_Initialization:	
  9920                           
  9921                           	psect	text52
  9922  1554                     __ptext52:	
  9923 ;; *************** function _ISR *****************
  9924 ;; Defined at:
  9925 ;;		line 985 in file "interrupt.c"
  9926 ;; Parameters:    Size  Location     Type
  9927 ;;		None
  9928 ;; Auto vars:     Size  Location     Type
  9929 ;;		None
  9930 ;; Return value:  Size  Location     Type
  9931 ;;                  1    wreg      void 
  9932 ;; Registers used:
  9933 ;;		wreg, fsr0l, fsr0h, status,2, status,0, btemp+1, pclath, cstack
  9934 ;; Tracked objects:
  9935 ;;		On entry : 0/0
  9936 ;;		On exit  : 0/0
  9937 ;;		Unchanged: 0/0
  9938 ;; Data sizes:     COMMON   BANK0   BANK1   BANK3   BANK2
  9939 ;;      Params:         0       0       0       0       0
  9940 ;;      Locals:         0       0       0       0       0
  9941 ;;      Temps:          5       0       0       0       0
  9942 ;;      Totals:         5       0       0       0       0
  9943 ;;Total ram usage:        5 bytes
  9944 ;; Hardware stack levels used:    1
  9945 ;; Hardware stack levels required when called:    2
  9946 ;; This function calls:
  9947 ;;		Absolute function
  9948 ;;		_Scheduler_Core
  9949 ;; This function is called by:
  9950 ;;		Interrupt level 1
  9951 ;; This function uses a non-reentrant model
  9952 ;;
  9953                           
  9954                           
  9955                           ;psect for function _ISR
  9956  1554                     _ISR:	
  9957  1554                     i1l4326:	
  9958                           
  9959                           ;interrupt.c: 1014:     if(((*(volatile uint8*)0x0C >> 0u) & 0x01))
  9960  1554  1C0C               	btfss	12,0	;volatile
  9961  1555  2D57               	goto	u549_21
  9962  1556  2D58               	goto	u549_20
  9963  1557                     u549_21:	
  9964  1557  2D69               	goto	i1l4334
  9965  1558                     u549_20:	
  9966  1558                     i1l4328:	
  9967                           
  9968                           ;interrupt.c: 1015:     {;interrupt.c: 1017:         if(timer1_callback_ptr != (void*)0x
      +                          00)
  9969  1558  0833               	movf	_timer1_callback_ptr,w
  9970  1559  1903               	btfsc	3,2
  9971  155A  2D5C               	goto	u550_21
  9972  155B  2D5D               	goto	u550_20
  9973  155C                     u550_21:	
  9974  155C  2D63               	goto	i1l4332
  9975  155D                     u550_20:	
  9976  155D                     i1l4330:	
  9977                           
  9978                           ;interrupt.c: 1018:         {;interrupt.c: 1020:             timer1_callback_ptr();
  9979  155D  0833               	movf	_timer1_callback_ptr,w
  9980  155E  120A  118A  2053  160A  118A  	fcall	i1fptable
  9981  1563                     i1l4332:	
  9982                           ;interrupt.c: 1021:         }
  9983                           
  9984                           
  9985                           ;interrupt.c: 1027:         *(volatile uint8*)0x0C &= ~(1 << 0u);
  9986  1563  30FE               	movlw	254
  9987  1564  00F9               	movwf	??_ISR
  9988  1565  0879               	movf	??_ISR,w
  9989  1566  1283               	bcf	3,5	;RP0=0, select bank0
  9990  1567  1303               	bcf	3,6	;RP1=0, select bank0
  9991  1568  058C               	andwf	12,f	;volatile
  9992  1569                     i1l4334:	
  9993                           ;interrupt.c: 1028:     }
  9994                           
  9995                           
  9996                           ;interrupt.c: 1062:     if(((*(volatile uint8*)0x0B >> 1u) & 0x01))
  9997  1569  080B               	movf	11,w	;volatile
  9998  156A  00F9               	movwf	??_ISR
  9999  156B  3001               	movlw	1
 10000  156C                     u551_25:	
 10001  156C  1003               	clrc
 10002  156D  0CF9               	rrf	??_ISR,f
 10003  156E  3EFF               	addlw	-1
 10004  156F  1D03               	skipz
 10005  1570  2D6C               	goto	u551_25
 10006  1571  1C79               	btfss	??_ISR,0
 10007  1572  2D74               	goto	u552_21
 10008  1573  2D75               	goto	u552_20
 10009  1574                     u552_21:	
 10010  1574  2D79               	goto	i1l630
 10011  1575                     u552_20:	
 10012  1575                     i1l4340:	
 10013                           
 10014                           ;interrupt.c: 1075:         *(volatile uint8*)0x0B &= ~(1 << 1u);
 10015  1575  30FD               	movlw	253
 10016  1576  00F9               	movwf	??_ISR
 10017  1577  0879               	movf	??_ISR,w
 10018  1578  058B               	andwf	11,f	;volatile
 10019  1579                     i1l630:	
 10020                           ;interrupt.c: 1076:     }
 10021                           
 10022  1579  087D               	movf	??_ISR+4,w
 10023  157A  00FF               	movwf	btemp+1
 10024  157B  087C               	movf	??_ISR+3,w
 10025  157C  008A               	movwf	10
 10026  157D  087B               	movf	??_ISR+2,w
 10027  157E  0084               	movwf	4
 10028  157F  0E7A               	swapf	(??_ISR+1)^(0+4294967168),w
 10029  1580  0083               	movwf	3
 10030  1581  0EFE               	swapf	btemp,f
 10031  1582  0E7E               	swapf	btemp,w
 10032  1583  0009               	retfie
 10033  1584                     __end_of_ISR:	
 10034                           
 10035                           	psect	intentry
 10036  0004                     __pintentry:	
 10037                           ;incstack = 0
 10038                           ; Regs used in _ISR: [wreg-fsr0h+status,2+status,0+btemp+1+pclath+cstack]
 10039                           
 10040  0004                     interrupt_function:	
 10041  007E                     saved_w	set	btemp
 10042  0004  00FE               	movwf	btemp
 10043  0005  0E03               	swapf	3,w
 10044  0006  00FA               	movwf	??_ISR+1
 10045  0007  0804               	movf	4,w
 10046  0008  00FB               	movwf	??_ISR+2
 10047  0009  080A               	movf	10,w
 10048  000A  00FC               	movwf	??_ISR+3
 10049  000B  1283               	bcf	3,5	;RP0=0, select bank0
 10050  000C  1303               	bcf	3,6	;RP1=0, select bank0
 10051  000D  087F               	movf	btemp+1,w
 10052  000E  00FD               	movwf	??_ISR+4
 10053  000F  160A  118A  2D54   	ljmp	_ISR
 10054                           
 10055                           	psect	text53
 10056  0C85                     __ptext53:	
 10057 ;; *************** function _Scheduler_Core *****************
 10058 ;; Defined at:
 10059 ;;		line 71 in file "scheduler.c"
 10060 ;; Parameters:    Size  Location     Type
 10061 ;;		None
 10062 ;; Auto vars:     Size  Location     Type
 10063 ;;  Counter         2    7[COMMON] unsigned short 
 10064 ;; Return value:  Size  Location     Type
 10065 ;;                  1    wreg      void 
 10066 ;; Registers used:
 10067 ;;		wreg, fsr0l, fsr0h, status,2, status,0, btemp+1, pclath, cstack
 10068 ;; Tracked objects:
 10069 ;;		On entry : 0/0
 10070 ;;		On exit  : 0/0
 10071 ;;		Unchanged: 0/0
 10072 ;; Data sizes:     COMMON   BANK0   BANK1   BANK3   BANK2
 10073 ;;      Params:         0       0       0       0       0
 10074 ;;      Locals:         2       0       0       0       0
 10075 ;;      Temps:          4       0       0       0       0
 10076 ;;      Totals:         6       0       0       0       0
 10077 ;;Total ram usage:        6 bytes
 10078 ;; Hardware stack levels used:    1
 10079 ;; Hardware stack levels required when called:    1
 10080 ;; This function calls:
 10081 ;;		_Timer1_write_counter
 10082 ;; This function is called by:
 10083 ;;		_Scheduler_Initialization
 10084 ;;		_ISR
 10085 ;; This function uses a non-reentrant model
 10086 ;;
 10087                           
 10088                           
 10089                           ;psect for function _Scheduler_Core
 10090  0C85                     _Scheduler_Core:	
 10091  0C85                     i1l4236:	
 10092                           ;incstack = 0
 10093                           ; Regs used in _Scheduler_Core: [wreg-fsr0h+status,2+status,0+btemp+1+pclath+cstack]
 10094                           
 10095                           
 10096                           ;scheduler.c: 74:  g_u16_TickTimeCounter++;
 10097  0C85  3001               	movlw	1
 10098  0C86  1283               	bcf	3,5	;RP0=0, select bank0
 10099  0C87  1303               	bcf	3,6	;RP1=0, select bank0
 10100  0C88  07AE               	addwf	_g_u16_TickTimeCounter,f	;volatile
 10101  0C89  1803               	skipnc
 10102  0C8A  0AAF               	incf	_g_u16_TickTimeCounter+1,f	;volatile
 10103  0C8B  3000               	movlw	0
 10104  0C8C  07AF               	addwf	_g_u16_TickTimeCounter+1,f	;volatile
 10105  0C8D                     i1l4238:	
 10106                           
 10107                           ;scheduler.c: 76:     Timer1_write_counter(65535u - u32compare_value);
 10108  0C8D  092A               	comf	_u32compare_value,w
 10109  0C8E  00F0               	movwf	Timer1_write_counter@a_u16init_value_for_timer
 10110  0C8F  092B               	comf	_u32compare_value+1,w
 10111  0C90  00F1               	movwf	Timer1_write_counter@a_u16init_value_for_timer+1
 10112  0C91  160A  118A  2431  120A  158A  	fcall	_Timer1_write_counter
 10113  0C96                     i1l4240:	
 10114                           
 10115                           ;scheduler.c: 78:  for(uint16 Counter = 0 ; Counter < 10u ; Counter++)
 10116  0C96  01F7               	clrf	Scheduler_Core@Counter
 10117  0C97  01F8               	clrf	Scheduler_Core@Counter+1
 10118  0C98                     i1l4246:	
 10119                           
 10120                           ;scheduler.c: 79:  {;scheduler.c: 81:   if((Scheduler_Tasks[Counter].Task_ExecutionTime 
      +                          == g_u16_TickTimeCounter)
 10121  0C98  0877               	movf	Scheduler_Core@Counter,w
 10122  0C99  00F3               	movwf	??_Scheduler_Core
 10123  0C9A  3002               	movlw	2
 10124  0C9B                     u533_25:	
 10125  0C9B  1003               	clrc
 10126  0C9C  0DF3               	rlf	??_Scheduler_Core,f
 10127  0C9D  3EFF               	addlw	-1
 10128  0C9E  1D03               	skipz
 10129  0C9F  2C9B               	goto	u533_25
 10130  0CA0  1003               	clrc
 10131  0CA1  0D73               	rlf	??_Scheduler_Core,w
 10132  0CA2  3EA1               	addlw	(low ((_Scheduler_Tasks| 0+1)))& (0+255)
 10133  0CA3  0084               	movwf	4
 10134  0CA4  1383               	bcf	3,7	;select IRP bank1
 10135  0CA5  0800               	movf	0,w
 10136  0CA6  00F4               	movwf	??_Scheduler_Core+1
 10137  0CA7  0A84               	incf	4,f
 10138  0CA8  0800               	movf	0,w
 10139  0CA9  00F5               	movwf	??_Scheduler_Core+2
 10140  0CAA  1283               	bcf	3,5	;RP0=0, select bank0
 10141  0CAB  1303               	bcf	3,6	;RP1=0, select bank0
 10142  0CAC  082F               	movf	_g_u16_TickTimeCounter+1,w	;volatile
 10143  0CAD  0675               	xorwf	??_Scheduler_Core+2,w
 10144  0CAE  1D03               	skipz
 10145  0CAF  2CB2               	goto	u534_25
 10146  0CB0  082E               	movf	_g_u16_TickTimeCounter,w	;volatile
 10147  0CB1  0674               	xorwf	??_Scheduler_Core+1,w
 10148  0CB2                     u534_25:	
 10149  0CB2  1D03               	skipz
 10150  0CB3  2CB5               	goto	u534_21
 10151  0CB4  2CB6               	goto	u534_20
 10152  0CB5                     u534_21:	
 10153  0CB5  2CFC               	goto	i1l4254
 10154  0CB6                     u534_20:	
 10155  0CB6                     i1l4248:	
 10156  0CB6  0877               	movf	Scheduler_Core@Counter,w
 10157  0CB7  00F3               	movwf	??_Scheduler_Core
 10158  0CB8  3002               	movlw	2
 10159  0CB9                     u535_25:	
 10160  0CB9  1003               	clrc
 10161  0CBA  0DF3               	rlf	??_Scheduler_Core,f
 10162  0CBB  3EFF               	addlw	-1
 10163  0CBC  1D03               	skipz
 10164  0CBD  2CB9               	goto	u535_25
 10165  0CBE  1003               	clrc
 10166  0CBF  0D73               	rlf	??_Scheduler_Core,w
 10167  0CC0  3EA0               	addlw	(low (_Scheduler_Tasks| 0))& (0+255)
 10168  0CC1  0084               	movwf	4
 10169  0CC2  0800               	movf	0,w
 10170  0CC3  1903               	btfsc	3,2
 10171  0CC4  2CC6               	goto	u536_21
 10172  0CC5  2CC7               	goto	u536_20
 10173  0CC6                     u536_21:	
 10174  0CC6  2CFC               	goto	i1l4254
 10175  0CC7                     u536_20:	
 10176  0CC7                     i1l4250:	
 10177                           
 10178                           ;scheduler.c: 83:   {;scheduler.c: 85:    Scheduler_Tasks[Counter].Task_State = READY;
 10179  0CC7  0877               	movf	Scheduler_Core@Counter,w
 10180  0CC8  00F3               	movwf	??_Scheduler_Core
 10181  0CC9  3002               	movlw	2
 10182  0CCA                     u537_25:	
 10183  0CCA  1003               	clrc
 10184  0CCB  0DF3               	rlf	??_Scheduler_Core,f
 10185  0CCC  3EFF               	addlw	-1
 10186  0CCD  1D03               	skipz
 10187  0CCE  2CCA               	goto	u537_25
 10188  0CCF  1003               	clrc
 10189  0CD0  0D73               	rlf	??_Scheduler_Core,w
 10190  0CD1  3EA6               	addlw	(low ((_Scheduler_Tasks| 0+6)))& (0+255)
 10191  0CD2  0084               	movwf	4
 10192  0CD3  0180               	clrf	0
 10193  0CD4                     i1l4252:	
 10194                           
 10195                           ;scheduler.c: 87:             Scheduler_Tasks[Counter].Task_ExecutionTime += Scheduler_T
      +                          asks[Counter].Task_Periodicity;
 10196  0CD4  0877               	movf	Scheduler_Core@Counter,w
 10197  0CD5  00F3               	movwf	??_Scheduler_Core
 10198  0CD6  3002               	movlw	2
 10199  0CD7                     u538_25:	
 10200  0CD7  1003               	clrc
 10201  0CD8  0DF3               	rlf	??_Scheduler_Core,f
 10202  0CD9  3EFF               	addlw	-1
 10203  0CDA  1D03               	skipz
 10204  0CDB  2CD7               	goto	u538_25
 10205  0CDC  1003               	clrc
 10206  0CDD  0D73               	rlf	??_Scheduler_Core,w
 10207  0CDE  3EA3               	addlw	(low ((_Scheduler_Tasks| 0+3)))& (0+255)
 10208  0CDF  0084               	movwf	4
 10209  0CE0  0800               	movf	0,w
 10210  0CE1  00F4               	movwf	??_Scheduler_Core+1
 10211  0CE2  0A84               	incf	4,f
 10212  0CE3  0800               	movf	0,w
 10213  0CE4  00F5               	movwf	??_Scheduler_Core+2
 10214  0CE5  0877               	movf	Scheduler_Core@Counter,w
 10215  0CE6  00F6               	movwf	??_Scheduler_Core+3
 10216  0CE7  3002               	movlw	2
 10217  0CE8                     u539_25:	
 10218  0CE8  1003               	clrc
 10219  0CE9  0DF6               	rlf	??_Scheduler_Core+3,f
 10220  0CEA  3EFF               	addlw	-1
 10221  0CEB  1D03               	skipz
 10222  0CEC  2CE8               	goto	u539_25
 10223  0CED  1003               	clrc
 10224  0CEE  0D76               	rlf	??_Scheduler_Core+3,w
 10225  0CEF  3EA1               	addlw	(low ((_Scheduler_Tasks| 0+1)))& (0+255)
 10226  0CF0  0084               	movwf	4
 10227  0CF1  0874               	movf	??_Scheduler_Core+1,w
 10228  0CF2  0780               	addwf	0,f
 10229  0CF3  0F84               	incfsz	4,f
 10230  0CF4  0800               	movf	0,w
 10231  0CF5  1803               	skipnc
 10232  0CF6  0A00               	incf	0,w
 10233  0CF7  00FF               	movwf	btemp+1
 10234  0CF8  0875               	movf	??_Scheduler_Core+2,w
 10235  0CF9  077F               	addwf	btemp+1,w
 10236  0CFA  0080               	movwf	0
 10237  0CFB  0384               	decf	4,f
 10238  0CFC                     i1l4254:	
 10239                           ;scheduler.c: 88:   }
 10240                           
 10241                           
 10242                           ;scheduler.c: 93:  }
 10243  0CFC  3001               	movlw	1
 10244  0CFD  07F7               	addwf	Scheduler_Core@Counter,f
 10245  0CFE  1803               	skipnc
 10246  0CFF  0AF8               	incf	Scheduler_Core@Counter+1,f
 10247  0D00  3000               	movlw	0
 10248  0D01  07F8               	addwf	Scheduler_Core@Counter+1,f
 10249  0D02  3000               	movlw	0
 10250  0D03  0278               	subwf	Scheduler_Core@Counter+1,w
 10251  0D04  300A               	movlw	10
 10252  0D05  1903               	skipnz
 10253  0D06  0277               	subwf	Scheduler_Core@Counter,w
 10254  0D07  1C03               	skipc
 10255  0D08  2D0A               	goto	u540_21
 10256  0D09  2D0B               	goto	u540_20
 10257  0D0A                     u540_21:	
 10258  0D0A  2C98               	goto	i1l4246
 10259  0D0B                     u540_20:	
 10260  0D0B                     i1l694:	
 10261  0D0B  0008               	return
 10262  0D0C                     __end_of_Scheduler_Core:	
 10263                           
 10264                           	psect	text54
 10265  1431                     __ptext54:	
 10266 ;; *************** function _Timer1_write_counter *****************
 10267 ;; Defined at:
 10268 ;;		line 239 in file "timers.c"
 10269 ;; Parameters:    Size  Location     Type
 10270 ;;  a_u16init_va    2    0[COMMON] unsigned short 
 10271 ;; Auto vars:     Size  Location     Type
 10272 ;;		None
 10273 ;; Return value:  Size  Location     Type
 10274 ;;                  1    wreg      void 
 10275 ;; Registers used:
 10276 ;;		wreg, status,2, status,0
 10277 ;; Tracked objects:
 10278 ;;		On entry : 0/0
 10279 ;;		On exit  : 0/0
 10280 ;;		Unchanged: 0/0
 10281 ;; Data sizes:     COMMON   BANK0   BANK1   BANK3   BANK2
 10282 ;;      Params:         2       0       0       0       0
 10283 ;;      Locals:         0       0       0       0       0
 10284 ;;      Temps:          1       0       0       0       0
 10285 ;;      Totals:         3       0       0       0       0
 10286 ;;Total ram usage:        3 bytes
 10287 ;; Hardware stack levels used:    1
 10288 ;; This function calls:
 10289 ;;		Nothing
 10290 ;; This function is called by:
 10291 ;;		_Scheduler_Core
 10292 ;; This function uses a non-reentrant model
 10293 ;;
 10294                           
 10295                           
 10296                           ;psect for function _Timer1_write_counter
 10297  1431                     _Timer1_write_counter:	
 10298  1431                     i1l4116:	
 10299                           ;incstack = 0
 10300                           ; Regs used in _Timer1_write_counter: [wreg+status,2+status,0]
 10301                           
 10302                           
 10303                           ;timers.c: 239: void Timer1_write_counter(uint16 a_u16init_value_for_timer);timers.c: 24
      +                          0: {;timers.c: 242:     *(volatile uint8*)0x10 &= ~(1 << 0u);
 10304  1431  30FE               	movlw	254
 10305  1432  00F2               	movwf	??_Timer1_write_counter
 10306  1433  0872               	movf	??_Timer1_write_counter,w
 10307  1434  1283               	bcf	3,5	;RP0=0, select bank0
 10308  1435  1303               	bcf	3,6	;RP1=0, select bank0
 10309  1436  0590               	andwf	16,f	;volatile
 10310  1437                     i1l4118:	
 10311                           
 10312                           ;timers.c: 244:     *(volatile uint8*)0x0F = a_u16init_value_for_timer >> 8;
 10313  1437  0871               	movf	Timer1_write_counter@a_u16init_value_for_timer+1,w
 10314  1438  00F2               	movwf	??_Timer1_write_counter
 10315  1439  0872               	movf	??_Timer1_write_counter,w
 10316  143A  008F               	movwf	15	;volatile
 10317  143B                     i1l4120:	
 10318                           
 10319                           ;timers.c: 246:     *(volatile uint8*)0x0E = (uint8)a_u16init_value_for_timer;
 10320  143B  0870               	movf	Timer1_write_counter@a_u16init_value_for_timer,w
 10321  143C  00F2               	movwf	??_Timer1_write_counter
 10322  143D  0872               	movf	??_Timer1_write_counter,w
 10323  143E  008E               	movwf	14	;volatile
 10324  143F                     i1l4122:	
 10325                           
 10326                           ;timers.c: 248:     *(volatile uint8*)0x10 |= 1 << 0u;
 10327  143F  1410               	bsf	16,0	;volatile
 10328  1440                     i1l802:	
 10329  1440  0008               	return
 10330  1441                     __end_of_Timer1_write_counter:	
 10331  0002                     
 10332                           	psect	functab
 10333  0037                     __pfunctab:	
 10334  0037                     __fptable:	
 10335  0037                     fptable:	
 10336  0037  00FF               	movwf	(btemp+1)& (0+127)
 10337  0038  3000               	movlw	high fptable
 10338  0039  008A               	movwf	10
 10339  003A  087F               	movf	(btemp+1)& (0+127),w
 10340  003B  0782               	addwf	2,f
 10341  003C                     fpbase:	
 10342  003C  283C               	goto	fpbase	; Call via a null pointer and you will get stuck here.
 10343  003D                     fp_u0:	
 10344  003D  283D               	ljmp	fp_u0	; unused
 10345  003E                     fp__Heater_LED_Task:	
 10346  003E  120A  158A  2B93   	ljmp	_Heater_LED_Task
 10347  0041                     fp__Heater_Heating_Cooling_Task:	
 10348  0041  120A  158A  2D0C   	ljmp	_Heater_Heating_Cooling_Task
 10349  0044                     fp__Heater_Reading_Temperature_Sensor_Task:	
 10350  0044  120A  118A  2DFB   	ljmp	_Heater_Reading_Temperature_Sensor_Task
 10351  0047                     fp__Heater_Display_Task:	
 10352  0047  120A  118A  2B77   	ljmp	_Heater_Display_Task
 10353  004A                     fp__Heater_Up_Down_Buttons_Task:	
 10354  004A  120A  158A  2E20   	ljmp	_Heater_Up_Down_Buttons_Task
 10355  004D                     fp__Heater_On_Off_Button_Task:	
 10356  004D  120A  158A  2B25   	ljmp	_Heater_On_Off_Button_Task
 10357  0050                     fp__initialization_Tasks:	
 10358  0050  120A  158A  2C03   	ljmp	_initialization_Tasks
 10359  0053                     __end_of__fptable:	
 10360  0053                     __i1fptable:	
 10361  0053                     i1fptable:	
 10362  0053  00FF               	movwf	(btemp+1)& (0+127)
 10363  0054  3000               	movlw	high i1fptable
 10364  0055  008A               	movwf	10
 10365  0056  087F               	movf	(btemp+1)& (0+127),w
 10366  0057  0782               	addwf	2,f
 10367  0058                     i1fpbase:	
 10368  0058  2858               	goto	i1fpbase	; Call via a null pointer and you will get stuck here.
 10369  0059                     fp__Scheduler_Core:	
 10370  0059  120A  158A  2C85   	ljmp	_Scheduler_Core
 10371  005C                     __end_of__i1fptable:	
 10372  007E                     btemp	set	126	;btemp
 10373  007E                     wtemp0	set	126


Data Sizes:
    Strings     0
    Constant    0
    Data        15
    BSS         111
    Persistent  0
    Stack       0

Auto Spaces:
    Space          Size  Autos    Used
    COMMON           14     14      14
    BANK0            80     31      77
    BANK1            80      0      80
    BANK3            96      0       0
    BANK2            96      0       0

Pointer List with Targets:

    Scheduler_StartFunction@task_function_ptr	PTR FTN()void  size(1) Largest target is 1
		 -> initialization_Tasks(), Heater_Reading_Temperature_Sensor_Task(), Heater_Heating_Cooling_Task(), Heater_LED_Task(), 
		 -> Heater_Up_Down_Buttons_Task(), Heater_On_Off_Button_Task(), Heater_Display_Task(), 

    S442$Task_Function	PTR FTN()void  size(1) Largest target is 1
		 -> initialization_Tasks(), NULL(NULL[0]), Heater_Reading_Temperature_Sensor_Task(), Heater_Heating_Cooling_Task(), 
		 -> Heater_LED_Task(), Heater_Up_Down_Buttons_Task(), Heater_On_Off_Button_Task(), Heater_Display_Task(), 

    Scheduler_Tasks.Task_Function	PTR FTN()void  size(1) Largest target is 1
		 -> initialization_Tasks(), NULL(NULL[0]), Heater_Reading_Temperature_Sensor_Task(), Heater_Heating_Cooling_Task(), 
		 -> Heater_LED_Task(), Heater_Up_Down_Buttons_Task(), Heater_On_Off_Button_Task(), Heater_Display_Task(), 

    external_interrupt_callback_ptr	PTR FTN()void  size(1) Largest target is 1
		 -> Absolute function(), 

    Timer1_set_callback_function@a_function_ptr	PTR FTN()void  size(1) Largest target is 1
		 -> Scheduler_Core(), 

    timer1_callback_ptr	PTR FTN()void  size(1) Largest target is 1
		 -> Scheduler_Core(), Absolute function(), 

    Check_ON_Push_Button@retVal_t	PTR enum E1025 size(1) Largest target is 1
		 -> Heater_Up_Down_Buttons_Task@Up_Button(BANK0[1]), Heater_Up_Down_Buttons_Task@Down_Button(BANK0[1]), Heater_On_Off_Button_Task@On_Off_Button(BANK0[1]), 


Critical Paths under _main in COMMON

    None.

Critical Paths under _ISR in COMMON

    _ISR->_Scheduler_Core
    _Scheduler_Core->_Timer1_write_counter

Critical Paths under _main in BANK0

    _main->_Scheduler_Dispatcher
    _Scheduler_Initialization->_Scheduler_Tick_time_calculation
    _Scheduler_Tick_time_calculation->___lmul
    _Scheduler_Dispatcher->_Heater_Display_Task
    _initialization_Tasks->_Scheduler_StartFunction
    _Heater_Up_Down_Buttons_Task->_Check_ON_Push_Button
    _Heater_Reading_Temperature_Sensor_Task->_ADC_Read_value
    _Heater_On_Off_Button_Task->_EEPROM_Read_Byte
    _Heater_On_Off_Button_Task->_Heater_turn_off
    _Heater_turn_off->_SevenSegment_SelectChip
    _EEPROM_Read_Byte->_EEPROM_Save_Byte
    _EEPROM_Save_Byte->_I2C_master_send_address
    _Check_ON_Push_Button->_GPIO_ReadFromPin
    _Heater_LED_Task->_GPIO_WriteOnPin
    _Heater_Heating_Cooling_Task->_GPIO_WriteOnPin
    _Heater_Display_Task->_SevenSegment_Display
    _SevenSegment_SelectChip->_GPIO_SetPinDirection
    _SevenSegment_SelectChip->_GPIO_WriteOnPin
    _SevenSegment_Display->___awdiv
    _SevenSegment_Initialization->_GPIO_SetPortDirection
    _EEPROM_Initialization->_I2C_Master_Initialization
    _I2C_Master_Initialization->___lldiv

Critical Paths under _ISR in BANK0

    None.

Critical Paths under _main in BANK1

    None.

Critical Paths under _ISR in BANK1

    None.

Critical Paths under _main in BANK3

    None.

Critical Paths under _ISR in BANK3

    None.

Critical Paths under _main in BANK2

    None.

Critical Paths under _ISR in BANK2

    None.

Call Graph Tables:

 ---------------------------------------------------------------------------------
 (Depth) Function   	        Calls       Base Space   Used Autos Params    Refs
 ---------------------------------------------------------------------------------
 (0) _main                                                 0     0      0   53247
              _Heater_Initialization
               _Scheduler_Dispatcher
           _Scheduler_Initialization
            _Scheduler_StartFunction
 ---------------------------------------------------------------------------------
 (1) _Scheduler_Initialization                             6     6      0     547
                                             19 BANK0      6     6      0
            _Global_interrupt_enable
       _Peripherals_interrupt_enable
    _Scheduler_Tick_time_calculation
                      _Timer1_enable
       _Timer1_set_callback_function
 ---------------------------------------------------------------------------------
 (2) _Timer1_set_callback_function                         2     2      0      22
                                              0 BANK0      2     2      0
 ---------------------------------------------------------------------------------
 (2) _Timer1_enable                                        0     0      0       0
 ---------------------------------------------------------------------------------
 (2) _Scheduler_Tick_time_calculation                      6     6      0     294
                                             13 BANK0      6     6      0
              _Timer1_Initialization
                             ___lmul
 ---------------------------------------------------------------------------------
 (3) ___lmul                                              13     5      8     244
                                              0 BANK0     13     5      8
 ---------------------------------------------------------------------------------
 (3) _Timer1_Initialization                                2     2      0       0
                                              0 BANK0      2     2      0
 ---------------------------------------------------------------------------------
 (2) _Peripherals_interrupt_enable                         0     0      0       0
 ---------------------------------------------------------------------------------
 (2) _Global_interrupt_enable                              0     0      0       0
 ---------------------------------------------------------------------------------
 (1) _Scheduler_Dispatcher                                 4     4      0   46136
                                             27 BANK0      4     4      0
                _Heater_Display_Task *
        _Heater_Heating_Cooling_Task *
                    _Heater_LED_Task *
          _Heater_On_Off_Button_Task *
_Heater_Reading_Temperature_Sensor_T *
        _Heater_Up_Down_Buttons_Task *
               _initialization_Tasks *
 ---------------------------------------------------------------------------------
 (2) _initialization_Tasks                                 1     1      0    2447
                                             15 BANK0      1     1      0
            _Scheduler_StartFunction
 ---------------------------------------------------------------------------------
 (1) _Scheduler_StartFunction                             15     9      6    2447
                                              0 BANK0     15     9      6
   _Timer1_enable_overflow_interrupt
 ---------------------------------------------------------------------------------
 (2) _Timer1_enable_overflow_interrupt                     0     0      0       0
 ---------------------------------------------------------------------------------
 (2) _Heater_Up_Down_Buttons_Task                          2     2      0    2637
                                             10 BANK0      2     2      0
               _Check_ON_Push_Button
                   _EEPROM_Save_Byte
 ---------------------------------------------------------------------------------
 (2) _Heater_Reading_Temperature_Sensor_Task               7     7      0     519
                                             11 BANK0      7     7      0
                     _ADC_Read_value
               _ADC_Start_conversion
                            ___lwdiv
 ---------------------------------------------------------------------------------
 (3) ___lwdiv                                              8     4      4     314
                                              0 BANK0      8     4      4
 ---------------------------------------------------------------------------------
 (3) _ADC_Start_conversion                                 1     1      0       0
                                              0 BANK0      1     1      0
 ---------------------------------------------------------------------------------
 (3) _ADC_Read_value                                      11     9      2      25
                                              0 BANK0     11     9      2
 ---------------------------------------------------------------------------------
 (2) _Heater_On_Off_Button_Task                            5     5      0   16669
                                             12 BANK0      5     5      0
                          _CPU_sleep
               _Check_ON_Push_Button
                   _EEPROM_Read_Byte
                    _Heater_turn_off
 ---------------------------------------------------------------------------------
 (3) _Heater_turn_off                                      1     1      0   12984
                                             11 BANK0      1     1      0
                    _GPIO_WriteOnPin
            _SevenSegment_SelectChip
 ---------------------------------------------------------------------------------
 (3) _EEPROM_Read_Byte                                     4     2      2    2400
                                              8 BANK0      4     2      2
                   _EEPROM_Save_Byte
            _I2C_master_receive_data
            _I2C_master_send_address
               _I2C_master_send_data
_I2C_master_send_repeated_start_cond
    _I2C_master_send_start_condition
     _I2C_master_send_stop_condition
 ---------------------------------------------------------------------------------
 (4) _I2C_master_send_repeated_start_condition             1     1      0       0
                                              0 BANK0      1     1      0
 ---------------------------------------------------------------------------------
 (4) _I2C_master_receive_data                              3     3      0      45
                                              0 BANK0      3     3      0
 ---------------------------------------------------------------------------------
 (3) _EEPROM_Save_Byte                                     3     0      3    1443
                                              5 BANK0      3     0      3
            _I2C_master_send_address
               _I2C_master_send_data
    _I2C_master_send_start_condition
     _I2C_master_send_stop_condition
 ---------------------------------------------------------------------------------
 (4) _I2C_master_send_stop_condition                       1     1      0       0
                                              0 BANK0      1     1      0
 ---------------------------------------------------------------------------------
 (4) _I2C_master_send_start_condition                      1     1      0       0
                                              0 BANK0      1     1      0
 ---------------------------------------------------------------------------------
 (4) _I2C_master_send_data                                 2     2      0      44
                                              0 BANK0      2     2      0
 ---------------------------------------------------------------------------------
 (4) _I2C_master_send_address                              5     4      1     725
                                              0 BANK0      5     4      1
 ---------------------------------------------------------------------------------
 (3) _Check_ON_Push_Button                                 5     3      2    1194
                                              5 BANK0      5     3      2
                   _GPIO_ReadFromPin
 ---------------------------------------------------------------------------------
 (4) _GPIO_ReadFromPin                                     5     4      1     236
                                              0 BANK0      5     4      1
 ---------------------------------------------------------------------------------
 (3) _CPU_sleep                                            0     0      0       0
 ---------------------------------------------------------------------------------
 (2) _Heater_LED_Task                                      2     2      0    4400
                                              6 BANK0      2     2      0
                    _GPIO_WriteOnPin
 ---------------------------------------------------------------------------------
 (2) _Heater_Heating_Cooling_Task                          2     2      0    4400
                                              6 BANK0      2     2      0
                    _GPIO_WriteOnPin
 ---------------------------------------------------------------------------------
 (2) _Heater_Display_Task                                  2     2      0   14776
                                             25 BANK0      2     2      0
               _SevenSegment_Display
            _SevenSegment_SelectChip
                            ___awdiv
                            ___awmod
 ---------------------------------------------------------------------------------
 (3) ___awmod                                              7     3      4     600
                                              0 BANK0      7     3      4
 ---------------------------------------------------------------------------------
 (3) ___awdiv                                              9     5      4     604
                                              0 BANK0      9     5      4
 ---------------------------------------------------------------------------------
 (4) _SevenSegment_SelectChip                              5     2      3    8584
                                              6 BANK0      5     2      3
               _GPIO_SetPinDirection
                    _GPIO_WriteOnPin
 ---------------------------------------------------------------------------------
 (3) _SevenSegment_Display                                16    15      1    4988
                                              9 BANK0     16    15      1
                    _GPIO_WriteOnPin
                   _GPIO_WriteOnPort
                            ___awdiv (ARG)
                            ___awmod (ARG)
 ---------------------------------------------------------------------------------
 (4) _GPIO_WriteOnPort                                     5     4      1     216
                                              0 BANK0      5     4      1
 ---------------------------------------------------------------------------------
 (5) _GPIO_WriteOnPin                                      6     4      2    4400
                                              0 BANK0      6     4      2
 ---------------------------------------------------------------------------------
 (1) _Heater_Initialization                                1     1      0    4117
                                             22 BANK0      1     1      0
                 _ADC_Initialization
               _ADC_Select_prescaler
              _EEPROM_Initialization
          _External_interrupt_enable
_External_interrupt_select_falling_e
       _GPIO_Enable_Pull_Up_On_PortB
               _GPIO_SetPinDirection
        _SevenSegment_Initialization
 ---------------------------------------------------------------------------------
 (2) _SevenSegment_Initialization                          0     0      0     341
              _GPIO_SetPortDirection
 ---------------------------------------------------------------------------------
 (3) _GPIO_SetPortDirection                                5     4      1     341
                                              0 BANK0      5     4      1
 ---------------------------------------------------------------------------------
 (5) _GPIO_SetPinDirection                                 6     4      2    2728
                                              0 BANK0      6     4      2
 ---------------------------------------------------------------------------------
 (2) _GPIO_Enable_Pull_Up_On_PortB                         1     1      0       0
                                              0 BANK0      1     1      0
 ---------------------------------------------------------------------------------
 (2) _External_interrupt_select_falling_edge               1     1      0       0
                                              0 BANK0      1     1      0
 ---------------------------------------------------------------------------------
 (2) _External_interrupt_enable                            0     0      0       0
 ---------------------------------------------------------------------------------
 (2) _EEPROM_Initialization                                0     0      0     456
          _I2C_Master_Initialization
 ---------------------------------------------------------------------------------
 (3) _I2C_Master_Initialization                            8     6      2     456
                                             14 BANK0      8     6      2
                            ___lldiv
 ---------------------------------------------------------------------------------
 (4) ___lldiv                                             14     6      8     314
                                              0 BANK0     14     6      8
 ---------------------------------------------------------------------------------
 (2) _ADC_Select_prescaler                                 3     3      0      22
                                              0 BANK0      3     3      0
 ---------------------------------------------------------------------------------
 (2) _ADC_Initialization                                   5     3      2     570
                                              0 BANK0      5     3      2
 ---------------------------------------------------------------------------------
 Estimated maximum stack depth 5
 ---------------------------------------------------------------------------------
 (Depth) Function   	        Calls       Base Space   Used Autos Params    Refs
 ---------------------------------------------------------------------------------
 (6) _ISR                                                  5     5      0     276
                                              9 COMMON     5     5      0
                   Absolute function *
                     _Scheduler_Core *
 ---------------------------------------------------------------------------------
 (7) _Scheduler_Core                                       6     6      0     276
                                              3 COMMON     6     6      0
               _Timer1_write_counter
 ---------------------------------------------------------------------------------
 (8) _Timer1_write_counter                                 3     1      2     120
                                              0 COMMON     3     1      2
 ---------------------------------------------------------------------------------
 (7) Absolute function(Fake)                               0     0      0       0
 ---------------------------------------------------------------------------------
 Estimated maximum stack depth 8
 ---------------------------------------------------------------------------------

 Call Graph Graphs:

 _main (ROOT)
   _Heater_Initialization
     _ADC_Initialization
     _ADC_Select_prescaler
     _EEPROM_Initialization
       _I2C_Master_Initialization
         ___lldiv
     _External_interrupt_enable
     _External_interrupt_select_falling_edge
     _GPIO_Enable_Pull_Up_On_PortB
     _GPIO_SetPinDirection
     _SevenSegment_Initialization
       _GPIO_SetPortDirection
   _Scheduler_Dispatcher
     _Heater_Display_Task *
       _SevenSegment_Display
         _GPIO_WriteOnPin
         _GPIO_WriteOnPort
         ___awdiv (ARG)
         ___awmod (ARG)
       _SevenSegment_SelectChip
         _GPIO_SetPinDirection
         _GPIO_WriteOnPin
       ___awdiv
       ___awmod
     _Heater_Heating_Cooling_Task *
       _GPIO_WriteOnPin
     _Heater_LED_Task *
       _GPIO_WriteOnPin
     _Heater_On_Off_Button_Task *
       _CPU_sleep
       _Check_ON_Push_Button
         _GPIO_ReadFromPin
       _EEPROM_Read_Byte
         _EEPROM_Save_Byte
           _I2C_master_send_address
           _I2C_master_send_data
           _I2C_master_send_start_condition
           _I2C_master_send_stop_condition
         _I2C_master_receive_data
         _I2C_master_send_address
         _I2C_master_send_data
         _I2C_master_send_repeated_start_condition
         _I2C_master_send_start_condition
         _I2C_master_send_stop_condition
       _Heater_turn_off
         _GPIO_WriteOnPin
         _SevenSegment_SelectChip
           _GPIO_SetPinDirection
           _GPIO_WriteOnPin
     _Heater_Reading_Temperature_Sensor_Task *
       _ADC_Read_value
       _ADC_Start_conversion
       ___lwdiv
     _Heater_Up_Down_Buttons_Task *
       _Check_ON_Push_Button
         _GPIO_ReadFromPin
       _EEPROM_Save_Byte
         _I2C_master_send_address
         _I2C_master_send_data
         _I2C_master_send_start_condition
         _I2C_master_send_stop_condition
     _initialization_Tasks *
       _Scheduler_StartFunction
         _Timer1_enable_overflow_interrupt
   _Scheduler_Initialization
     _Global_interrupt_enable
     _Peripherals_interrupt_enable
     _Scheduler_Tick_time_calculation
       _Timer1_Initialization
       ___lmul
     _Timer1_enable
     _Timer1_set_callback_function
   _Scheduler_StartFunction
     _Timer1_enable_overflow_interrupt

 _ISR (ROOT)
   Absolute function(Fake) *
   _Scheduler_Core *
     _Timer1_write_counter

 Address spaces:
Name               Size   Autos  Total    Cost      Usage
BANK3               60      0       0       9        0.0%
BITBANK3            60      0       0       8        0.0%
SFR3                 0      0       0       4        0.0%
BITSFR3              0      0       0       4        0.0%
BANK2               60      0       0      11        0.0%
BITBANK2            60      0       0      10        0.0%
SFR2                 0      0       0       5        0.0%
BITSFR2              0      0       0       5        0.0%
BANK1               50      0      50       7      100.0%
BITBANK1            50      0       0       6        0.0%
SFR1                 0      0       0       2        0.0%
BITSFR1              0      0       0       2        0.0%
BANK0               50     1F      4D       5       96.3%
BITBANK0            50      0       0       4        0.0%
SFR0                 0      0       0       1        0.0%
BITSFR0              0      0       0       1        0.0%
COMMON               E      E       E       1      100.0%
BITCOMMON            E      0       0       0        0.0%
CODE                 0      0       0       0        0.0%
DATA                 0      0      AB      12        0.0%
ABS                  0      0      AB       3        0.0%
NULL                 0      0       0       0        0.0%
STACK                0      0       0       2        0.0%
EEDATA             100      0       0       0        0.0%


Microchip Technology PIC Macro Assembler V2.10 build 88905656 
Symbol Table                                                                                   Sat Jul 18 02:35:15 2020

                                                     _u32compare_value 002A  
                                                                    pc 0002  
                                                          __CFG_CP$OFF 0000  
                                                                   l10 01BF  
                                                                   l11 01BC  
                                                                   l20 01F4  
                                                                   l14 01CD  
                                                                   l15 01D0  
                                                                   l16 01D2  
                                                                   l34 024E  
                                                                   l19 01F7  
                                                                   l51 0AB6  
                                                                   l43 0AB4  
                                                                   l29 0234  
                                                                   l45 0A6B  
                                                                   l38 0276  
                                                                   l46 0A77  
                                                                   l64 144F  
                                                                   l49 0A8F  
                                                                   l65 1450  
                                                                   l59 17B0  
                                                                   l76 13F1  
                                                                   l93 080D  
                                                                   l96 14D1  
                                                                   l99 16D4  
                                              GPIO_ReadFromPin@a_u8pin 003F  
                                                         ___awdiv@sign 0045  
                                                                   fsr 0004  
                                               GPIO_ReadFromPin@retVal 0043  
                                             __size_of_GPIO_WriteOnPin 0100  
                                                                  l133 0091  
                                                                  l205 02A8  
                                                                  l312 1417  
                                                                  l411 0461  
                                                                  l260 0B24  
                                                                  l173 0DB1  
                                                                  l166 016F  
                                                                  l238 0376  
                                                                  l422 0B5E  
                                                                  l511 092A  
                                                                  l248 162F  
                                                                  l513 0943  
                                                                  l249 1649  
                                                                  l425 0B71  
                                                                  l602 140E  
                                                                  l434 0B92  
                                                                  l515 097A  
                                                                  l524 1553  
                                                                  l532 1487  
                                                                  l540 14AB  
                                                                  l508 06B1  
                                                                  l197 0E1F  
                                                                  l614 13F5  
                                                                  l383 17FC  
                                                                  l551 15C3  
                                                                  l543 159A  
                                                                  l519 153E  
                                                                  l392 0FFF  
                                                                  l560 1524  
                                                                  l608 13F3  
                                                                  l712 07F7  
                                                                  l705 053B  
                                                                  l386 17FF  
                                                                  l563 08CB  
                                                                  l459 0EB2  
                                                                  l476 0C02  
                                                                  l389 1604  
                                                                  l717 0F44  
                                                                  l741 05FA  
                                                                  l750 1421  
                                                                  l574 0918  
                                                                  l582 13F9  
                                                                  l719 0F53  
                                                                  l663 0C84  
                                                                  l593 13EF  
                                                                  l489 0D94  
                                                                  l657 14EF  
                                                                  l930 09E2  
                                                                  l499 0628  
                                                                  l772 0763  
                                                                  l908 1762  
                                                                  l588 1405  
                                                                  l757 168E  
                                                                  l790 0860  
                                                                  l793 13FD  
                                                                  l787 0841  
                                                                  l779 081A  
                                                                  l788 0847  
                                                         __CFG_CPD$OFF 0000  
                                                                  _ISR 1554  
                                                _Heater_Initialization 0F54  
                                             GPIO_ReadFromPin@a_u8port 0042  
                                               fp__Heater_Display_Task 0047  
                                                                  fsr0 0004  
                                                                  indf 0000  
                                                         ___awmod@sign 0045  
                                                         __CFG_FOSC$XT 0000  
                                     __size_of_SevenSegment_SelectChip 00B2  
                                           ?_Heater_On_Off_Button_Task 0070  
                                      Scheduler_Initialization@Counter 0056  
                                                         __CFG_LVP$OFF 0000  
                                                  _g_u8Reading_counter 0038  
                                                                 ?_ISR 0070  
                                                                 l1060 08BB  
                                                                 l1047 0A4B  
                                                                 l3110 1535  
                                                                 l1166 171A  
                                                                 l3200 00FF  
                                                                 l3120 158F  
                                                                 l3112 153D  
                                                                 l3210 0125  
                                                                 l3122 15A6  
                                                                 l3130 1500  
                                                                 l3114 1542  
                                                                 l4002 0E9D  
                                                                 l4010 0B94  
                                                                 l3220 0145  
                                                                 l3212 012B  
                                                                 l3204 010F  
                                                                 l3300 0349  
                                                                 l3124 15B2  
                                                                 l3140 1521  
                                                                 l3116 154F  
                                                                 l3108 1525  
                                                                 l4020 0BB9  
                                                                 l4012 0B9A  
                                                                 l3214 0130  
                                                                 l3206 0114  
                                                                 l3302 034E  
                                                                 l3126 15C0  
                                                                 l3118 1587  
                                                                 l3134 1505  
                                                                 l3150 1483  
                                                                 l4022 0BC5  
                                                                 l4014 0BA6  
                                                                 l4102 069C  
                                                                 l4110 13F2  
                                                                 l3160 007A  
                                                                 l3152 005F  
                                                                 l3240 0286  
                                                                 l3136 1511  
                                                                 l3128 14FB  
                                                                 l3144 1464  
                                                                 l3320 148B  
                                                                 l4032 0BE1  
                                                                 l4024 0BCC  
                                                                 l4016 0BAD  
                                                                 l4008 0B93  
                                                                 l4112 13F4  
                                                                 l3218 0140  
                                                                 l3170 0098  
                                                                 l3162 007B  
                                                                 l3154 0060  
                                                                 l3226 0156  
                                                                 l3250 02A9  
                                                                 l3242 0293  
                                                                 l3234 027A  
                                                                 l3410 06DF  
                                                                 l3138 151D  
                                                                 l3146 1467  
                                                                 l3330 08CE  
                                                                 l3322 149B  
                                                                 l4114 0C03  
                                                                 l4026 0BD2  
                                                                 l4018 0BB3  
                                                                 l4050 0D2D  
                                                                 l4130 049B  
                                                                 l4210 07F1  
                                                                 l3172 009D  
                                                                 l3164 0080  
                                                                 l3156 0066  
                                                                 l3500 0D9E  
                                                                 l3260 02C7  
                                                                 l3252 02AF  
                                                                 l3244 0294  
                                                                 l3236 027B  
                                                                 l3308 035D  
                                                                 l3420 072C  
                                                                 l3412 06E6  
                                                                 l3404 06B5  
                                                                 l3148 1477  
                                                                 l3316 14AC  
                                                                 l3340 08FE  
                                                                 l3332 08DE  
                                                                 l3324 14A7  
                                                                 l4028 0BDD  
                                                                 l4052 0D33  
                                                                 l4060 0D7F  
                                                                 l4044 0D0C  
                                                                 l4140 04CD  
                                                                 l4132 049C  
                                                                 l4124 0465  
                                                                 l4108 1401  
                                                                 l4204 078C  
                                                                 l4212 07F7  
                                                                 l3430 097B  
                                                                 l3190 00DE  
                                                                 l3182 00C3  
                                                                 l3158 006B  
                                                                 l3510 0DB2  
                                                                 l3502 0DA4  
                                                                 l3254 02B4  
                                                                 l3246 0299  
                                                                 l3238 0281  
                                                                 l3422 0737  
                                                                 l3414 0700  
                                                                 l3406 06BA  
                                                                 l3342 0902  
                                                                 l3334 08EA  
                                                                 l3326 08BF  
                                                                 l3318 1488  
                                                                 l4038 0BED  
                                                                 l4054 0D4D  
                                                                 l4046 0D0D  
                                                                 l4070 0613  
                                                                 l4230 0585  
                                                                 l4222 0540  
                                                                 l4150 04FE  
                                                                 l4134 04A1  
                                                                 l4126 0465  
                                                                 l4206 07E2  
                                                                 l3440 09AA  
                                                                 l3432 098D  
                                                                 l3192 00E3  
                                                                 l3184 00C9  
                                                                 l3176 00AD  
                                                                 l3168 0092  
                                                                 l3520 0DC7  
                                                                 l3512 0DB7  
                                                                 l3504 0DA5  
                                                                 l3280 0309  
                                                                 l3272 02EF  
                                                                 l3264 02D6  
                                                                 l3360 1619  
                                                                 l3352 1608  
                                                                 l3424 073E  
                                                                 l3416 070B  
                                                                 l3408 06D4  
                                                                 l3344 0905  
                                                                 l3336 08EE  
                                                                 l3328 08C4  
                                                                 l3600 1602  
                                                                 l4056 0D66  
                                                                 l4048 0D13  
                                                                 l4080 0643  
                                                                 l4072 0619  
                                                                 l4232 0596  
                                                                 l4224 0552  
                                                                 l4216 053C  
                                                                 l4160 052F  
                                                                 l4136 04A8  
                                                                 l4128 0489  
                                                                 l4208 07E8  
                                                                 l3442 09BC  
                                                                 l3434 0990  
                                                                 l3450 09DA  
                                                                 l3186 00CE  
                                                                 l3178 00B2  
                                                                 l3530 0DDC  
                                                                 l3522 0DCC  
                                                                 l3506 0DAA  
                                                                 l3282 030E  
                                                                 l3274 02F4  
                                                                 l3266 02DC  
                                                                 l3258 02C2  
                                                                 l3362 161A  
                                                                 l3354 1609  
                                                                 l3610 1676  
                                                                 l3426 0758  
                                                                 l3418 0712  
                                                                 l3346 0913  
                                                                 l3338 08FA  
                                                                 l3602 1603  
                                                                 l4090 0671  
                                                                 l4082 0647  
                                                                 l4074 0621  
                                                                 l4066 05FB  
                                                                 l4226 0560  
                                                                 l4234 05EB  
                                                                 l4138 04CB  
                                                                 l4146 04D7  
                                                                 l3444 09CA  
                                                                 l3436 099D  
                                                                 l3196 00F4  
                                                                 l3540 0DF1  
                                                                 l3532 0DE1  
                                                                 l3516 0DBE  
                                                                 l4180 0FF5  
                                                                 l3292 0330  
                                                                 l3268 02E1  
                                                                 l3364 161F  
                                                                 l3356 1613  
                                                                 l3372 1630  
                                                                 l3612 1683  
                                                                 l3604 164D  
                                                                 l3700 0A29  
                                                                 l3380 0ABA  
                                                                 l3348 0917  
                                                                 l3460 1781  
                                                                 l3428 13F6  
                                                                 l4092 0675  
                                                                 l4076 0632  
                                                                 l4084 064C  
                                                                 l4068 05FC  
                                                                 l4228 0572  
                                                                 l4148 04FA  
                                                                 l4156 0508  
                                                                 l4172 13FA  
                                                                 l3446 09CB  
                                                                 l3438 09A1  
                                                                 l3198 00FA  
                                                                 l3542 0DF6  
                                                                 l3526 0DD3  
                                                                 l3518 0DC3  
                                                                 l4182 0FFA  
                                                                 l4174 0F54  
                                                                 l3294 0336  
                                                                 l3286 031C  
                                                                 l3278 0303  
                                                                 l3366 1620  
                                                                 l3358 1614  
                                                                 l3606 1662  
                                                                 l3710 0A42  
                                                                 l3702 0A2F  
                                                                 l3390 0AFB  
                                                                 l3382 0ABF  
                                                                 l3462 178A  
                                                                 l3454 1763  
                                                                 l3470 1441  
                                                                 l3614 0EB6  
                                                                 l4094 0689  
                                                                 l4086 0669  
                                                                 l4078 063B  
                                                                 l4158 052B  
                                                                 l4166 0539  
                                                                 l4190 0772  
                                                                 l4342 14D2  
                                                                 l3800 01C1  
                                                                 l3448 09D4  
                                                                 l3480 093C  
                                                                 l3536 0DE8  
                                                                 l3528 0DD8  
                                                                 l4176 0F59  
                                                                 l3296 033B  
                                                                 l3288 0321  
                                                                 l3368 1625  
                                                                 l3608 166F  
                                                                 l3712 0A47  
                                                                 l3704 0A30  
                                                                 l3720 0868  
                                                                 l3472 13F0  
                                                                 l3384 0ACE  
                                                                 l3464 17AC  
                                                                 l3456 1763  
                                                                 l3632 0F44  
                                                                 l3624 0EBF  
                                                                 l3616 0EB6  
                                                                 l4096 0697  
                                                                 l4088 066F  
                                                                 l3640 0820  
                                                                 l4168 053A  
                                                                 l4192 0778  
                                                                 l3810 01E8  
                                                                 l3802 01C6  
                                                                 l3482 0946  
                                                                 l3474 091C  
                                                                 l3546 0DFA  
                                                                 l3538 0DED  
                                                                 l3554 0E06  
                                                                 l4178 0F5E  
                                                                 l3706 0A37  
                                                                 l3730 087E  
                                                                 l3722 086D  
                                                                 l3386 0ADD  
                                                                 l3394 0B0A  
                                                                 l3562 17B4  
                                                                 l3490 168F  
                                                                 l3458 1771  
                                                                 l3626 0ED1  
                                                                 l3618 0EBB  
                                                                 l4098 0699  
                                                                 l3642 0832  
                                                                 l3634 080E  
                                                                 l4194 077E  
                                                                 l4186 0767  
                                                                 l3820 020A  
                                                                 l3812 01ED  
                                                                 l3804 01D7  
                                                                 l3484 0975  
                                                                 l3476 0925  
                                                                 l3548 0DFF  
                                                                 l3708 0A3D  
                                                                 l3740 089A  
                                                                 l3732 0881  
                                                                 l3724 086F  
                                                                 l3716 0861  
                                                                 l3388 0AEC  
                                                                 l3396 0B23  
                                                                 l3572 17D0  
                                                                 l3492 16D1  
                                                                 l3468 1441  
                                                                 l3628 0F43  
                                                                 l3900 0377  
                                                                 l3644 083B  
                                                                 l3652 084A  
                                                                 l3636 0815  
                                                                 l3660 1725  
                                                                 l4196 0783  
                                                                 l4188 0767  
                                                                 l3830 0223  
                                                                 l3822 020F  
                                                                 l3814 01F9  
                                                                 l3806 01DC  
                                                                 l3486 0976  
                                                                 l3478 092B  
                                                                 l3750 08B7  
                                                                 l3742 08A0  
                                                                 l3734 0888  
                                                                 l3726 0873  
                                                                 l3718 0864  
                                                                 l3566 17C4  
                                                                 l3574 17E8  
                                                                 l3590 15FC  
                                                                 l3910 03DE  
                                                                 l3902 0386  
                                                                 l3646 083F  
                                                                 l3638 081B  
                                                                 l3662 1729  
                                                                 l4198 0788  
                                                                 l3840 023D  
                                                                 l3832 0228  
                                                                 l3824 0216  
                                                                 l3816 01FE  
                                                                 l3808 01E1  
                                                                 l3488 0977  
                                                                 l3496 0D98  
                                                                 l3680 09F1  
                                                                 l3672 09E3  
                                                                 l3744 08A7  
                                                                 l3736 088C  
                                                                 l3728 0878  
                                                                 l3576 17F2  
                                                                 l3568 17CB  
                                                                 l3592 15FE  
                                                                 l3760 16E2  
                                                                 l3920 0415  
                                                                 l3912 03E2  
                                                                 l3904 038B  
                                                                 l3648 0842  
                                                                 l3664 1740  
                                                                 l3842 0242  
                                                                 l3834 022C  
                                                                 l3826 021C  
                                                                 l3818 0203  
                                                                 l3850 0252  
                                                                 l3498 0D99  
                                                                 l3690 0A06  
                                                                 l3682 09F5  
                                                                 l3674 09E6  
                                                                 l3738 0890  
                                                                 l3746 08AD  
                                                                 l3578 17F6  
                                                                 l3594 15FF  
                                                                 l3586 15C4  
                                                                 l3770 1708  
                                                                 l3762 16E9  
                                                                 l3754 16D5  
                                                                 l3930 044A  
                                                                 l3914 03E8  
                                                                 l3906 03B2  
                                                                 l4730 0852  
                                                                 l3666 1749  
                                                                 l3658 171B  
                                                                 l3844 0246  
                                                                 l3836 0231  
                                                                 l3828 021E  
                                                                 l3780 0173  
                                                                 l3860 0A5F  
                                                                 l3692 0A09  
                                                                 l3684 09FA  
                                                                 l3676 09EA  
                                                                 l3748 08B2  
                                                                 l3596 1600  
                                                                 l3588 15F9  
                                                                 l3772 1709  
                                                                 l3764 16ED  
                                                                 l3756 16D9  
                                                                 l3916 03ED  
                                                                 l3924 043D  
                                                                 l3908 03B7  
                                                                 l4740 0B87  
                                                                 l3940 0B25  
                                                                 l4732 06A6  
                                                                 l3668 175A  
                                                                 l3846 024B  
                                                                 l3838 0238  
                                                                 l3790 019F  
                                                                 l3782 018B  
                                                                 l3870 0A7D  
                                                                 l3862 0A67  
                                                                 l4750 0365  
                                                                 l3694 0A10  
                                                                 l3686 09FE  
                                                                 l3678 09EF  
                                                                 l3598 1601  
                                                                 l3774 1710  
                                                                 l3766 16F1  
                                                                 l3758 16DF  
                                                                 l4742 0456  
                                                                 l3934 044C  
                                                                 l3950 0B52  
                                                                 l3942 0B33  
                                                                 l4734 0D89  
                                                                 l3792 01A4  
                                                                 l3784 0190  
                                                                 l3872 0A81  
                                                                 l3864 0A6C  
                                                                 l3856 0A4F  
                                                                 l4752 0E0E  
                                                                 l3696 0A14  
                                                                 l3688 0A00  
                                                                 l4744 17DD  
                                                                 l3768 1702  
                                                                 l3776 1716  
                                                                 l3928 0444  
                                                                 l3960 0B72  
                                                                 l3952 0B57  
                                                                 l3944 0B38  
                                                                 l4736 0BF7  
                                                                 l3794 01A9  
                                                                 l3786 0197  
                                                                 l3874 0A89  
                                                                 l3866 0A78  
                                                                 l3858 0A50  
                                                                 l3882 0A95  
                                                                 l3890 0801  
                                                                 l4754 015E  
                                                                 l3698 0A18  
                                                                 l4746 0B12  
                                                                 l3962 0B77  
                                                                 l3954 0B62  
                                                                 l3946 0B46  
                                                                 l4738 0EA7  
                                                                 l3796 01B0  
                                                                 l3788 019D  
                                                                 l4756 0A9D  
                                                                 l3876 0A8D  
                                                                 l3892 140F  
                                                                 l4748 1638  
                                                                 l3948 0B4C  
                                                                 l3956 0B65  
                                                                 l3980 0E4E  
                                                                 l3972 0E20  
                                                                 l4758 025C  
                                                                 l3798 01B5  
                                                                 l3894 1418  
                                                                 l3958 0B6B  
                                                                 l3966 0B7D  
                                                                 l3982 0E5F  
                                                                 l3990 0E79  
                                                                 l3974 0E21  
                                                                 l3896 1406  
                                                                 l3992 0E8E  
                                                                 l3984 0E63  
                                                                 l3976 0E32  
                                                                 l3898 13EE  
                                                                 l3994 0E92  
                                                                 l3986 0E69  
                                                                 l3978 0E47  
                                                                 l3996 0E98  
                                                                 l3988 0E6B  
                                                ?_I2C_master_send_data 0070  
                                                                 u3010 15B2  
                                                                 u3011 15B1  
                                                                 u3020 15C0  
                                                                 u3100 1483  
                                                                 u3021 15BF  
                                                                 u3005 15A9  
                                                                 u3101 1482  
                                                                 u3110 0066  
                                                                 u3111 0065  
                                                                 u3120 006B  
                                                                 u4000 0D9E  
                                                                 u3040 1511  
                                                                 u3121 006A  
                                                                 u4001 0D9D  
                                                                 u3041 1510  
                                                                 u3210 00C9  
                                                                 u4010 0DAA  
                                                                 u3211 00C8  
                                                                 u4011 0DA9  
                                                                 u3035 1508  
                                                                 u3220 00CE  
                                                                 u3204 00B8  
                                                                 u3140 0080  
                                                                 u4020 0DB7  
                                                                 u4100 17C3  
                                                                 u3060 151D  
                                                                 u3221 00CD  
                                                                 u3205 00B6  
                                                                 u3141 007F  
                                                                 u4021 0DB6  
                                                                 u4101 17C2  
                                                                 u3061 151C  
                                                                 u3310 012B  
                                                                 u3134 0071  
                                                                 u4030 0DC3  
                                                                 u4110 17F2  
                                                                 u3311 012A  
                                                                 u3135 006F  
                                                                 u4031 0DC2  
                                                                 u4111 17F1  
                                                                 u3055 1514  
                                                                 u3320 0130  
                                                                 u3304 011A  
                                                                 u3240 00E3  
                                                                 u3160 0098  
                                                                 u4040 0DCC  
                                                                 u4120 1655  
                                                                 u3080 1477  
                                                                 u5000 0697  
                                                                 u3321 012F  
                                                                 u3305 0118  
                                                                 u3241 00E2  
                                                                 u3161 0097  
                                                                 u4041 0DCB  
                                                                 u3081 1476  
                                                                 u5001 0696  
                                                                 u3234 00D4  
                                                                 u3170 009D  
                                                                 u3154 0086  
                                                                 u4050 0DD8  
                                                                 u3410 02AF  
                                                                 u4130 1676  
                                                                 u5010 049B  
                                                                 u3235 00D2  
                                                                 u3171 009C  
                                                                 u3155 0084  
                                                                 u4051 0DD7  
                                                                 u3411 02AE  
                                                                 u4131 1675  
                                                                 u3075 146E  
                                                                 u5011 049A  
                                                                 u3340 0145  
                                                                 u3260 00FA  
                                                                 u4060 0DE1  
                                                                 u3420 02B4  
                                                                 u3404 029F  
                                                                 u4220 0F53  
                                                                 u4300 175A  
                                                                 u5020 04B6  
                                                                 u3341 0144  
                                                                 u3261 00F9  
                                                                 u4061 0DE0  
                                                                 u3421 02B3  
                                                                 u3405 029D  
                                                                 u4221 0F52  
                                                                 u4205 0F28  
                                                                 u4301 1759  
                                                                 u5013 0497  
                                                                 u3334 0136  
                                                                 u3270 00FF  
                                                                 u3254 00E9  
                                                                 u3190 00B2  
                                                                 u4070 0DED  
                                                                 u3510 0309  
                                                                 u4310 09EA  
                                                                 u4150 0ED1  
                                                                 u4230 0815  
                                                                 u5030 04CB  
                                                                 u5110 0778  
                                                                 u3335 0134  
                                                                 u3271 00FE  
                                                                 u3255 00E7  
                                                                 u3191 00B1  
                                                                 u4071 0DEC  
                                                                 u3511 0308  
                                                                 u4311 09E9  
                                                                 u3095 147A  
                                                                 u4215 0F38  
                                                                 u4151 0ED0  
                                                                 u4231 0814  
                                                                 u5031 04CA  
                                                                 u5111 0777  
                                                                 u3184 00A3  
                                                                 u4080 0DF6  
                                                                 u3520 030E  
                                                                 u3504 02FA  
                                                                 u3440 02C7  
                                                                 u3360 0281  
                                                                 u4400 0A42  
                                                                 u4320 09F5  
                                                                 u5200 0552  
                                                                 u4240 0820  
                                                                 u3185 00A1  
                                                                 u4081 0DF5  
                                                                 u3521 030D  
                                                                 u3505 02F8  
                                                                 u3441 02C6  
                                                                 u3361 0280  
                                                                 u4401 0A41  
                                                                 u4321 09F4  
                                                                 u4145 0EC2  
                                                                 u5201 0551  
                                                                 u4241 081F  
                                                                 u5105 0530  
                                                                 u5033 04C7  
                                                                 u5025 04B1  
                                                                 u3354 014B  
                                                                 u3290 0114  
                                                                 u4090 0DFF  
                                                                 u3434 02BA  
                                                                 u3370 0286  
                                                                 u4330 0A06  
                                                                 u4410 0868  
                                                                 u5050 04E5  
                                                                 u3355 0149  
                                                                 u3291 0113  
                                                                 u4091 0DFE  
                                                                 u3435 02B8  
                                                                 u3371 0285  
                                                                 u4331 0A05  
                                                                 u4411 0867  
                                                                 u3284 0105  
                                                                 u3604 0354  
                                                                 u3540 0321  
                                                                 u3460 02DC  
                                                                 u4420 0873  
                                                                 u3620 149B  
                                                                 u4500 16DF  
                                                                 u4260 1729  
                                                                 u5060 04FA  
                                                                 u3285 0103  
                                                                 u3605 0352  
                                                                 u3541 0320  
                                                                 u3461 02DB  
                                                                 u4421 0872  
                                                                 u3621 149A  
                                                                 u4501 16DE  
                                                                 u4165 0ED6  
                                                                 u4261 1728  
                                                                 u5061 04F9  
                                                                 u5045 04CE  
                                                                 u5125 078F  
                                                                 u3534 0314  
                                                                 u3470 02E1  
                                                                 u3454 02CD  
                                                                 u3390 0299  
                                                                 u4350 0A18  
                                                                 u4430 087E  
                                                                 u3710 08FA  
                                                                 u3535 0312  
                                                                 u3471 02E0  
                                                                 u3455 02CB  
                                                                 u3391 0298  
                                                                 u4351 0A17  
                                                                 u4431 087D  
                                                                 u3711 08F9  
                                                                 u3615 1492  
                                                                 u4175 0EE4  
                                                                 u5215 0555  
                                                                 u4255 0827  
                                                                 u4271 1732  
                                                                 u5063 04F6  
                                                                 u5055 04E0  
                                                                 u5135 079D  
                                                                 u4600 01A9  
                                                                 u3560 0336  
                                                                 u3384 028C  
                                                                 u3800 06E6  
                                                                 u3640 14A7  
                                                                 u4520 16F1  
                                                                 u5320 05FA  
                                                                 u4272 1739  
                                                                 u5080 0516  
                                                                 u4601 01A8  
                                                                 u3561 0335  
                                                                 u3385 028A  
                                                                 u3801 06E5  
                                                                 u4345 0A0A  
                                                                 u3705 08F1  
                                                                 u3641 14A6  
                                                                 u4521 16F0  
                                                                 u4185 0EF7  
                                                                 u5321 05F9  
                                                                 u5305 05D3  
                                                                 u5225 0563  
                                                                 u4273 1740  
                                                                 u5145 07AC  
                                                                 u4610 01B5  
                                                                 u3570 033B  
                                                                 u3554 0327  
                                                                 u3490 02F4  
                                                                 u3810 0712  
                                                                 u4370 0A29  
                                                                 u4450 0890  
                                                                 u2930 1535  
                                                                 u3730 0913  
                                                                 u3650 08C4  
                                                                 u5250 0596  
                                                                 u5090 052B  
                                                                 u4611 01B4  
                                                                 u3571 033A  
                                                                 u3555 0325  
                                                                 u3491 02F3  
                                                                 u3811 0711  
                                                                 u4371 0A28  
                                                                 u4451 088F  
                                                                 u2931 1534  
                                                                 u3731 0912  
                                                                 u3651 08C3  
                                                                 u3635 149E  
                                                                 u4515 16E3  
                                                                 u4195 0F15  
                                                                 u5315 05E1  
                                                                 u5251 0595  
                                                                 u5235 0579  
                                                                 u5091 052A  
                                                                 u5075 04FF  
                                                                 u5155 07B9  
                                                                 u4700 0228  
                                                                 u4620 01C6  
                                                                 u3484 02E7  
                                                                 u3820 073E  
                                                                 u4460 089A  
                                                                 u2940 153D  
                                                                 u4540 1702  
                                                                 u5180 07F1  
                                                                 u4701 0227  
                                                                 u4621 01C5  
                                                                 u3485 02E5  
                                                                 u3821 073D  
                                                                 u4365 0A19  
                                                                 u4461 0899  
                                                                 u4445 0882  
                                                                 u2941 153C  
                                                                 u2925 152C  
                                                                 u3725 090A  
                                                                 u4541 1701  
                                                                 u5245 0588  
                                                                 u4285 1742  
                                                                 u5093 0527  
                                                                 u5085 0511  
                                                                 u5181 07F0  
                                                                 u5165 07CA  
                                                                 u4710 0231  
                                                                 u4630 01DC  
                                                                 u3830 098D  
                                                                 u3590 034E  
                                                                 u4390 0A3D  
                                                                 u2950 1542  
                                                                 u3670 08DE  
                                                                 u3910 1771  
                                                                 u4711 0230  
                                                                 u4631 01DB  
                                                                 u3831 098C  
                                                                 u3591 034D  
                                                                 u4391 0A3C  
                                                                 u4375 0A25  
                                                                 u2951 1541  
                                                                 u3671 08DD  
                                                                 u3911 1770  
                                                                 u4535 16F2  
                                                                 u4295 174A  
                                                                 u5175 07D8  
                                                                 u4720 023D  
                                                                 u4640 01E1  
                                                                 u3584 0341  
                                                                 u4480 08AD  
                                                                 u3744 0AC5  
                                                                 u4560 1716  
                                                                 u4800 0B38  
                                                                 u4721 023C  
                                                                 u4641 01E0  
                                                                 u3585 033F  
                                                                 u4385 0A31  
                                                                 u4481 08AC  
                                                                 u4465 0896  
                                                                 u3745 0AC3  
                                                                 u3665 08D5  
                                                                 u3905 1768  
                                                                 u4561 1715  
                                                                 u4545 16FE  
                                                                 u4801 0B37  
                                                                 u5265 0599  
                                                                 u4730 0242  
                                                                 u4650 01ED  
                                                                 u3850 09A1  
                                                                 u4490 08B2  
                                                                 u3754 0AD4  
                                                                 u2970 154F  
                                                                 u3690 08EA  
                                                                 u3930 1781  
                                                                 u4810 0B4C  
                                                                 u4731 0241  
                                                                 u4651 01EC  
                                                                 u3851 09A0  
                                                                 u4491 08B1  
                                                                 u4475 08A1  
                                                                 u3755 0AD2  
                                                                 u2971 154E  
                                                                 u3691 08E9  
                                                                 u3931 1780  
                                                                 u4555 170A  
                                                                 u4811 0B4B  
                                                                 u5275 05A6  
                                                                 u5195 0543  
                                                                 u4740 024B  
                                                                 u4660 01FE  
                                                                 u4580 0190  
                                                                 u3764 0AE3  
                                                                 u4820 0B52  
                                                                 u4900 0E98  
                                                                 u4741 024A  
                                                                 u4661 01FD  
                                                                 u4581 018F  
                                                                 u3845 0992  
                                                                 u3765 0AE1  
                                                                 u2965 1546  
                                                                 u3685 08E1  
                                                                 u3925 1778  
                                                                 u4821 0B51  
                                                                 u4901 0E97  
                                                                 u5285 05B5  
                                                                 u4670 0203  
                                                                 u4590 01A4  
                                                                 u3870 09BC  
                                                                 u3790 06BA  
                                                                 u3774 0AF2  
                                                                 u2990 15A6  
                                                                 u4750 038B  
                                                                 u4830 0B6B  
                                                                 u4910 0B9A  
                                                                 u4671 0202  
                                                                 u4591 01A3  
                                                                 u4575 017A  
                                                                 u3871 09BB  
                                                                 u3791 06B9  
                                                                 u3775 0AF0  
                                                                 u2991 15A5  
                                                                 u4751 038A  
                                                                 u4831 0B6A  
                                                                 u4911 0B99  
                                                                 u5295 05C2  
                                                                 u4680 020F  
                                                                 u3784 0B01  
                                                                 u3960 144F  
                                                                 u4760 03E8  
                                                                 u4840 0B77  
                                                                 u4920 0BB3  
                                                                 u4681 020E  
                                                                 u3865 09A3  
                                                                 u3785 0AFF  
                                                                 u2985 159D  
                                                                 u3945 1791  
                                                                 u3961 144E  
                                                                 u4761 03E7  
                                                                 u4841 0B76  
                                                                 u4921 0BB2  
                                                                 u4690 0223  
                                                                 u3890 09DA  
                                                                 u3970 0925  
                                                                 u4770 03ED  
                                                                 u4850 0E32  
                                                                 u4930 0BB9  
                                                                 u4691 0222  
                                                                 u3891 09D9  
                                                                 u3875 09B8  
                                                                 u3971 0924  
                                                                 u3955 1446  
                                                                 u4771 03EC  
                                                                 u4851 0E31  
                                                                 u4931 0BB8  
                                                                 u3980 093C  
                                                                 u4780 0443  
                                                                 u4860 0E47  
                                                                 u4940 0BD2  
                                                                 u3885 09CC  
                                                                 u3981 093B  
                                                                 u4781 0442  
                                                                 u4861 0E46  
                                                                 u4941 0BD1  
                                                                 u3990 0954  
                                                                 u4790 044A  
                                                                 u4870 0E5F  
                                                                 u4950 0D13  
                                                                 u4791 0449  
                                                                 u4871 0E5E  
                                                                 u4951 0D12  
                                                                 u4880 0E69  
                                                                 u4960 0D33  
                                                                 u4881 0E68  
                                                                 u4961 0D32  
                                                                 u4890 0E8E  
                                                                 u4970 0619  
                                                                 u3995 094F  
                                                                 u4891 0E8D  
                                                                 u4971 0618  
                                                                 u4980 0632  
                                                                 u4981 0631  
                                                                 u4990 066F  
                                                                 u4991 066E  
                                                         __CFG_WRT$OFF 0000  
                                                                 _main 14D2  
                                   __size_of_I2C_Master_Initialization 0062  
                                                                 fp_u0 003D  
                                                                 btemp 007E  
                                                     _g_Heater_state_t 003B  
                                     __size_of_Global_interrupt_enable 0002  
                                  Scheduler_Initialization@a_u8tickTme 0054  
                                 __size_of_Heater_Up_Down_Buttons_Task 0093  
                                                        __CFG_BOREN$ON 0000  
                                                    ?_GPIO_ReadFromPin 003F  
                                           ?_I2C_Master_Initialization 004D  
                                                                 start 0012  
                                             __end_of_GPIO_WriteOnPort 164A  
                                          GPIO_SetPinDirection@a_u8pin 003F  
                                  __end_of_SevenSegment_Initialization 1422  
                                          _SevenSegment_Initialization 1418  
                                               GPIO_WriteOnPin@a_u8pin 003F  
                                                   ??_GPIO_ReadFromPin 0040  
                                                     ??_Scheduler_Core 0073  
                                                  _timer1_callback_ptr 0033  
                                              _Scheduler_StartFunction 0EB3  
                                                _Timer1_Initialization 080E  
                                                                ??_ISR 0079  
                                                   __size_of_CPU_sleep 0002  
                           _Heater_Reading_Temperature_Sensor_Task$310 004E  
                                                                ?_main 0070  
                                                      __end_of___awdiv 0A4C  
                                                        __CFG_WDTE$OFF 0000  
                                                      __end_of___awmod 08BC  
                                                      __end_of___lldiv 09E3  
                                                      ___awdiv@divisor 003F  
                                                      __end_of___lwdiv 171B  
                                                                i1l630 1579  
                                                                i1l802 1440  
                                                                i1l694 0D0B  
                                                      ___awdiv@counter 0044  
                                         __size_of_Heater_Display_Task 00EB  
               Heater_On_Off_Button_Task@u8Saved_temperature_in_EEPROM 004F  
                                 __end_of_GPIO_Enable_Pull_Up_On_PortB 1418  
                                __size_of_GPIO_Enable_Pull_Up_On_PortB 0009  
                                         _GPIO_Enable_Pull_Up_On_PortB 140F  
                                       ??_Peripherals_interrupt_enable 003F  
                                                  ___lmul@multiplicand 0043  
                                                        __CFG_PWRTE$ON 0000  
                                           ?_External_interrupt_enable 0070  
                                    __end_of_Heater_On_Off_Button_Task 0B93  
                                                                fpbase 003C  
                                       ??_Timer1_set_callback_function 003F  
                                                                pclath 000A  
                                     _g_u8Heater_real_time_temperature 006B  
                                                                status 0003  
                                                                wtemp0 007E  
                                                 _Scheduler_Dispatcher 053C  
                                       __size_of_EEPROM_Initialization 000D  
                                        __end_of_EEPROM_Initialization 080E  
                                       _g_u8calculate_temperature_flag 0039  
                                                      _g_u8Reading_arr 0020  
                                    __end_of_I2C_Master_Initialization 097B  
                                                 _GPIO_SetPinDirection 005C  
                                              GPIO_WriteOnPin@a_u8port 0043  
                                   ADC_Initialization@a_ADC_Vref_low_t 0040  
                                                __end_of_Timer1_enable 13FE  
                                                 _initialization_Tasks 0C03  
                             Scheduler_StartFunction@task_function_ptr 004B  
                                         __end_of_Check_ON_Push_Button 1800  
                                                      __initialization 0015  
                                             __size_of_Heater_LED_Task 0070  
                                                   fp__Heater_LED_Task 003E  
                                                         __end_of_main 14F8  
                                       Scheduler_StartFunction@Counter 004C  
                                             __end_of_EEPROM_Read_Byte 16D5  
                                               ?_Heater_Initialization 0070  
                                              ??_GPIO_SetPortDirection 0040  
                                                               ??_main 005E  
                                  Scheduler_StartFunction@a_u8_task_ID 003F  
                                        ?_GPIO_Enable_Pull_Up_On_PortB 0070  
                                                    ??_GPIO_WriteOnPin 0041  
                                    __end_of_External_interrupt_enable 13F0  
                                             __end_of_EEPROM_Save_Byte 14D2  
                                               ??_I2C_master_send_data 003F  
                                                     ___awdiv@dividend 0041  
                                                    __end_of_CPU_sleep 13F2  
                               __end_of_I2C_master_send_stop_condition 1488  
                              __size_of_I2C_master_send_stop_condition 0024  
                                       _I2C_master_send_stop_condition 1464  
                                                               i1l4120 143B  
                                                               i1l4122 143F  
                                                               i1l4116 1431  
                                                               i1l4118 1437  
                                                               i1l4240 0C96  
                                                               i1l4250 0CC7  
                                                               i1l4330 155D  
                                                               i1l4252 0CD4  
                                                               i1l4236 0C85  
                                                               i1l4340 1575  
                                                               i1l4332 1563  
                                                               i1l4254 0CFC  
                                                               i1l4246 0C98  
                                                               i1l4238 0C8D  
                                                               i1l4334 1569  
                                                               i1l4326 1554  
                                                               i1l4248 0CB6  
                                                               i1l4328 1558  
                                       _g_u8Heater_desired_temperature 006C  
                                                               u540_20 0D0B  
                                                               u540_21 0D0A  
                                                               u533_25 0C9B  
                                                               u534_20 0CB6  
                                                               u550_20 155D  
                                                               u534_21 0CB5  
                                                               u550_21 155C  
                                                               u534_25 0CB2  
                                                               u535_25 0CB9  
                                                               u551_25 156C  
                                                               u536_20 0CC7  
                                                               u552_20 1575  
                                                               u536_21 0CC6  
                                                               u552_21 1574  
                                                               u537_25 0CCA  
                                                               u538_25 0CD7  
                                                               u539_25 0CE8  
                                                               u549_20 1558  
                                                               u549_21 1557  
                                                           __i1fptable 0053  
                                                ?_Scheduler_Dispatcher 0070  
                                                     __end_of__fptable 0053  
                         Scheduler_StartFunction@a_u16_task_start_time 0042  
                                                ?_GPIO_SetPinDirection 003F  
                                            ??_Scheduler_StartFunction 0045  
                                                ?_initialization_Tasks 0070  
                                        __size_of_ADC_Select_prescaler 006B  
                                               ?_Timer1_Initialization 0070  
                                          __size_of_ADC_Initialization 0107  
                                     I2C_master_receive_data@u8_retVal 0041  
                                                               ___lmul 171B  
                                         __end_of_ADC_Start_conversion 1451  
                       __end_of_External_interrupt_select_falling_edge 140F  
                      __size_of_External_interrupt_select_falling_edge 0009  
                             ??_External_interrupt_select_falling_edge 003F  
                              ?_External_interrupt_select_falling_edge 0070  
                               _External_interrupt_select_falling_edge 1406  
                                                            ??___awdiv 0043  
                                                            ??___awmod 0043  
                                                            ??___lldiv 0047  
                                                            ??___lwdiv 0043  
                    Scheduler_Tick_time_calculation@tick_calculation_t 0051  
                                                     ___awdiv@quotient 0046  
                                                      ___awmod@divisor 003F  
                                                      ___awmod@counter 0044  
                                                               fptable 0037  
                                                               fptotal 000E  
                                              _SevenSegment_SelectChip 06B2  
                                                               saved_w 007E  
                                            GPIO_WriteOnPort@a_u8value 003F  
                                              _Global_interrupt_enable 13F2  
                                              __end_of__initialization 0033  
                                 __size_of_Heater_Heating_Cooling_Task 0089  
                                             GPIO_WriteOnPin@a_u8value 0040  
                                                _g_u8Led_blank_counter 0034  
                                                       __pcstackCOMMON 0070  
                                                         __pidataBANK0 1422  
                                             ?_I2C_master_receive_data 0070  
                                        GPIO_SetPortDirection@a_u8port 0042  
                                     SevenSegment_Display@a_displayDot 0048  
                                                    ??_Heater_LED_Task 0045  
                                        __size_of_Timer1_write_counter 0010  
                                         ?_Heater_Up_Down_Buttons_Task 0070  
                                             __size_of_Heater_turn_off 0041  
                                    __size_of_Scheduler_Initialization 0094  
                                        __size_of_SevenSegment_Display 0045  
                                            ?_Scheduler_Initialization 0070  
                                          ??_Heater_On_Off_Button_Task 004B  
                                                 _Check_ON_Push_Button 17B1  
                                    ADC_Initialization@a_ADC_channel_t 0043  
                                                           __pbssBANK0 0020  
                                               ??_Scheduler_Dispatcher 005A  
                                                           __pbssBANK1 00A0  
                           SevenSegment_Display@u8numberRepresentation 004D  
                               Heater_Up_Down_Buttons_Task@Down_Button 003C  
                                       ??_GPIO_Enable_Pull_Up_On_PortB 003F  
                                               ??_GPIO_SetPinDirection 0041  
                                               ??_initialization_Tasks 004E  
                                                  _Heater_Display_Task 0377  
                                          ??_I2C_Master_Initialization 004F  
                       Scheduler_Initialization@initialization_error_t 0055  
                        Timer1_write_counter@a_u16init_value_for_timer 0070  
                                                    ?_GPIO_WriteOnPort 003F  
                                                           __pmaintext 14D2  
                                             _g_u16Sum_of_ten_readings 0030  
                                                              ?___lmul 003F  
                                                        _g_u8Sync_flag 003A  
                                                   ??_GPIO_WriteOnPort 0040  
                                                           __pintentry 0004  
                          Scheduler_StartFunction@Enum_Task_RepeatType 0044  
                                                       ___lmul@product 0048  
                                            ??_SevenSegment_SelectChip 0048  
                                            __size_of_GPIO_ReadFromPin 006E  
                                             ?_I2C_master_send_address 003F  
                                              __size_of_ADC_Read_value 004E  
                                                 ?_Heater_Display_Task 0070  
                                 __size_of_SevenSegment_Initialization 000A  
                                          ??_External_interrupt_enable 003F  
                                                ?_Check_ON_Push_Button 0044  
                                        ??_Heater_Up_Down_Buttons_Task 0049  
                                            ??_Global_interrupt_enable 003F  
                                                 _ADC_Start_conversion 1441  
                                                      _Scheduler_Tasks 00A0  
                                                              i1fpbase 0058  
                                SevenSegment_Display@a_u8displayNumber 0057  
                                      __end_of_I2C_master_receive_data 0919  
                                            _Heater_On_Off_Button_Task 0B25  
                                                              ___awdiv 09E3  
                                              ??_Heater_Initialization 0055  
                                                      __size_of___lmul 0048  
                                                              ___awmod 0861  
                                                              ___lldiv 097B  
                                                              ___lwdiv 16D5  
                                                      _GPIO_WriteOnPin 0277  
                                                      _Timer1_config_t 0068  
                                                              __ptext1 0764  
                                                              __ptext2 13FE  
                                                              __ptext3 13FA  
                                                              __ptext4 0462  
                                                              __ptext5 171B  
                                                              __ptext6 080E  
                                                              __ptext7 13F4  
                                                              __ptext8 13F2  
                                                              __ptext9 053C  
                                                ??_Heater_Display_Task 0058  
                                                    ?_EEPROM_Read_Byte 0047  
                                                  __size_of__i1fptable 0009  
                                            _I2C_Master_Initialization 0919  
                                                         __size_of_ISR 0030  
                                       __size_of_GPIO_SetPortDirection 008B  
                                        __end_of_GPIO_SetPortDirection 0E20  
                                                     ___awmod@dividend 0041  
                                                   ??_EEPROM_Read_Byte 0049  
Heater_Reading_Temperature_Sensor_Task@g_u8Current_reading_temperature 0050  
                                                    ?_EEPROM_Save_Byte 0044  
                                                ?_ADC_Start_conversion 0070  
                              __end_of_Scheduler_Tick_time_calculation 053C  
                             __size_of_Scheduler_Tick_time_calculation 00DA  
                                    ??_Scheduler_Tick_time_calculation 004C  
                                     ?_Scheduler_Tick_time_calculation 0070  
                                      _Scheduler_Tick_time_calculation 0462  
                                                              clrloop0 07F9  
                                                 end_of_initialization 0033  
                                                   ??_EEPROM_Save_Byte 0047  
                         I2C_Master_Initialization@a_I2C_master_mode_t 0054  
                                                    ??_Heater_turn_off 004A  
                                                            _CPU_sleep 13F0  
                                              ??_Timer1_Initialization 003F  
                                                      ___lldiv@divisor 003F  
                                                      ___lldiv@counter 004C  
                                            _External_interrupt_enable 13EE  
                                                 ADC_Read_value@retVal 0048  
                                                _EEPROM_Initialization 0801  
                            fp__Heater_Reading_Temperature_Sensor_Task 0044  
                       __end_of_Heater_Reading_Temperature_Sensor_Task 06B2  
                      __size_of_Heater_Reading_Temperature_Sensor_Task 00B7  
                             ??_Heater_Reading_Temperature_Sensor_Task 004A  
                              ?_Heater_Reading_Temperature_Sensor_Task 0070  
                               _Heater_Reading_Temperature_Sensor_Task 05FB  
                                ADC_Select_prescaler@a_ADC_prescaler_t 0041  
                                      __end_of_I2C_master_send_address 15C4  
                                       I2C_master_send_data@a_I2C_Data 0040  
                                              __size_of_Scheduler_Core 0087  
                                                    fp__Scheduler_Core 0059  
                                         __end_of_ADC_Select_prescaler 0AB7  
                                               ??_Check_ON_Push_Button 0046  
                                         ?_Heater_Heating_Cooling_Task 0070  
                                               __size_of_Timer1_enable 0004  
                                        __size_of_I2C_master_send_data 002D  
                                                           ?_CPU_sleep 0070  
                                                Scheduler_Core@Counter 0077  
                                           __end_of_ADC_Initialization 0277  
                                                      _Heater_LED_Task 0B93  
                                              __end_of_GPIO_WriteOnPin 0377  
                                              fp__initialization_Tasks 0050  
                                            EEPROM_Read_Byte@u8_retVal 004A  
                                     __end_of_Scheduler_Initialization 07F8  
                                                       __end_of___lmul 1763  
                                                     _GPIO_ReadFromPin 0AB7  
                                                       _ADC_Read_value 1763  
                                                  start_initialization 0015  
                                                          __end_of_ISR 1584  
                                               ??_ADC_Start_conversion 003F  
                                     __size_of_I2C_master_receive_data 005D  
                           Scheduler_Tick_time_calculation@a_u8tickTme 0050  
                                    GPIO_SetPinDirection@a_u8direction 0040  
                                        ??_Heater_Heating_Cooling_Task 0045  
                                             ?_Scheduler_StartFunction 003F  
                                         __end_of_Timer1_write_counter 1441  
                                       fp__Heater_Up_Down_Buttons_Task 004A  
                                               ?_EEPROM_Initialization 0070  
                                         __end_of_SevenSegment_Display 168F  
                                         ?_SevenSegment_Initialization 0070  
                                                        _Timer1_enable 13FA  
                                                             ??___lmul 0047  
                                                           init_fetch0 1451  
                                                          __pdataBANK0 005E  
                                               __end_of_ADC_Read_value 17B1  
                                 Heater_Up_Down_Buttons_Task@Up_Button 003D  
                                   __size_of_Heater_On_Off_Button_Task 006E  
                     __end_of_I2C_master_send_repeated_start_condition 14AC  
                    __size_of_I2C_master_send_repeated_start_condition 0024  
                           ??_I2C_master_send_repeated_start_condition 003F  
                            ?_I2C_master_send_repeated_start_condition 0070  
                             _I2C_master_send_repeated_start_condition 1488  
                                                   __end_of__i1fptable 005C  
                                            __size_of_GPIO_WriteOnPort 0045  
                                                            ___latbits 0002  
                                                        __pcstackBANK0 003F  
                                                    __size_of__fptable 001C  
                               Heater_On_Off_Button_Task@On_Off_Button 003E  
                                              __end_of_Heater_LED_Task 0C03  
                                     __size_of_I2C_master_send_address 0040  
                                        __size_of_Scheduler_Dispatcher 00BF  
                                            _g_u8Display_blank_counter 0036  
                                                          ??_CPU_sleep 003F  
                                        __size_of_GPIO_SetPinDirection 0114  
                                          _g_u8Reading_deleted_element 0037  
                                                 _ADC_Select_prescaler 0A4C  
                                                     ___lwdiv@dividend 0041  
                                        __size_of_initialization_Tasks 0082  
                                                     ?_GPIO_WriteOnPin 003F  
                                                       ?_Timer1_enable 0070  
                                                            __pfunctab 0037  
                                                             ?___awdiv 003F  
                                                             ?___awmod 003F  
                                        ??_SevenSegment_Initialization 0044  
                                                             ?___lldiv 003F  
                                                             ?___lwdiv 003F  
                                      _external_interrupt_callback_ptr 0032  
                                       __size_of_Heater_Initialization 00AC  
                                                      ?_ADC_Read_value 003F  
                                        __end_of_Heater_Initialization 1000  
                                   __size_of_External_interrupt_enable 0002  
                                                       _Scheduler_Core 0C85  
                                             _Scheduler_Initialization 0764  
                                                      _Heater_turn_off 15C4  
                                      __end_of_Scheduler_StartFunction 0F54  
                           I2C_Master_Initialization@a_I2C_baud_rate_t 004D  
                                                     ___lwdiv@quotient 0044  
                                          Scheduler_Dispatcher@Counter 005C  
                                         GPIO_SetPinDirection@a_u8port 0043  
                                            __size_of_EEPROM_Read_Byte 0046  
                                                    interrupt_function 0004  
                            I2C_master_receive_data@a_I2C_ack_status_t 0040  
                                                            clear_ram0 07F8  
                                                ?_ADC_Select_prescaler 0070  
                                       __size_of_Timer1_Initialization 0053  
                                        __end_of_Timer1_Initialization 0861  
                                            __size_of_EEPROM_Save_Byte 0026  
                                        EEPROM_Save_Byte@a_u16Location 0044  
                                             ?_SevenSegment_SelectChip 0045  
                                          __end_of_Heater_Display_Task 0462  
                                               __end_of_Scheduler_Core 0D0C  
                              __end_of_I2C_master_send_start_condition 1554  
                             __size_of_I2C_master_send_start_condition 002F  
                                    ??_I2C_master_send_start_condition 003F  
                                     ?_I2C_master_send_start_condition 0070  
                                      _I2C_master_send_start_condition 1525  
                                                 _Timer1_write_counter 1431  
                                             ?_Global_interrupt_enable 0070  
                                  __end_of_Heater_Up_Down_Buttons_Task 0EB3  
                                          _Heater_Up_Down_Buttons_Task 0E20  
                                              _I2C_master_receive_data 08BC  
                                         Check_ON_Push_Button@a_u8Port 0048  
                                                 _SevenSegment_Display 164A  
                                                _GPIO_SetPortDirection 0D95  
                              I2C_master_send_address@a_I2C_operaton_t 003F  
                                                             i1fptable 0053  
                                                    ___lmul@multiplier 003F  
                                                             i1fptotal 0002  
                                                     ?_Heater_LED_Task 0070  
                                             __end_of_GPIO_ReadFromPin 0B25  
                                                _g_u16_TickTimeCounter 002E  
                                                      ??_Timer1_enable 003F  
                                       fp__Heater_Heating_Cooling_Task 0041  
                                        EEPROM_Read_Byte@a_u16Location 0047  
                                         __end_of_I2C_master_send_data 1525  
                                                     __size_of___awdiv 0069  
                                              __end_of_Heater_turn_off 1605  
                                                     __size_of___awmod 005B  
                                                     __size_of___lldiv 0068  
                                         fp__Heater_On_Off_Button_Task 004D  
                                                     __size_of___lwdiv 0046  
                                                      ?_Scheduler_Core 0070  
                                         Check_ON_Push_Button@retVal_t 0045  
                                                   _ADC_Initialization 0170  
                                                ?_Timer1_write_counter 0070  
                                                             __fptable 0037  
                                                     _GPIO_WriteOnPort 1605  
                                             GPIO_WriteOnPort@a_u8port 0043  
                           Timer1_set_callback_function@a_function_ptr 0040  
                                                ?_SevenSegment_Display 0048  
                                                      ___lwdiv@divisor 003F  
                                                  ?_ADC_Initialization 003F  
                                                      ___lwdiv@counter 0046  
                        Scheduler_StartFunction@a_u16_task_periodicity 0040  
                                                             __ptext10 05FB  
                                                             __ptext11 0D0C  
                                                             __ptext20 1441  
                                                             __ptext12 0B93  
                                                             __ptext21 1763  
                                                             __ptext13 0E20  
                                                             __ptext30 1584  
                                                             __ptext22 15C4  
                                                             __ptext14 0B25  
                                                             __ptext31 17B1  
                                                             __ptext23 168F  
                                                             __ptext15 0377  
                                                             __ptext40 0F54  
                                                             __ptext32 0AB7  
                                                             __ptext24 1488  
                                                             __ptext16 0C03  
                                                             __ptext41 1418  
                                                             __ptext33 13F0  
                                                             __ptext25 08BC  
                                                             __ptext17 0EB3  
                                                             __ptext50 0A4C  
                                                             __ptext42 0D95  
                                                             __ptext34 0861  
                                                             __ptext26 14AC  
                                                             __ptext18 13F6  
                                                             __ptext51 0170  
                                                             __ptext43 005C  
                                                             __ptext35 09E3  
                                                             __ptext27 1464  
                                                             __ptext19 16D5  
                                                             __ptext52 1554  
                                                             __ptext44 140F  
                                                             __ptext36 06B2  
                                                             __ptext28 1525  
                                                             __ptext53 0C85  
                                                             __ptext45 1406  
                                                             __ptext37 164A  
                                                             __ptext29 14F8  
                                                             __ptext54 1431  
                                                             __ptext46 13EE  
                                                             __ptext38 1605  
                                                             __ptext47 0801  
                                                             __ptext39 0277  
                                                             __ptext48 0919  
                                                             __ptext49 097B  
                                        __size_of_Check_ON_Push_Button 004F  
                                              _I2C_master_send_address 1584  
                                  ADC_Initialization@a_ADC_Vref_high_t 003F  
                                              ??_EEPROM_Initialization 0055  
                                                        __size_of_main 0026  
                                              SevenSegment_Display@F56 005E  
                                               ??_ADC_Select_prescaler 003F  
                                      __end_of_SevenSegment_SelectChip 0764  
                                   GPIO_SetPortDirection@a_u8direction 003F  
                                                 ??_ADC_Initialization 0041  
                                 __end_of_Peripherals_interrupt_enable 13F6  
                                __size_of_Peripherals_interrupt_enable 0002  
                                         _Peripherals_interrupt_enable 13F4  
                                     __size_of_Scheduler_StartFunction 00A1  
                                      __end_of_Global_interrupt_enable 13F4  
                                     ??_I2C_master_send_stop_condition 003F  
                                      ?_I2C_master_send_stop_condition 0070  
                                          Check_ON_Push_Button@a_u8Pin 0044  
                                            ??_I2C_master_receive_data 003F  
                                 __end_of_Timer1_set_callback_function 1406  
                                __size_of_Timer1_set_callback_function 0008  
                                         _Timer1_set_callback_function 13FE  
                                               ?_GPIO_SetPortDirection 003F  
                                                             init_ram0 1455  
                                        __size_of_ADC_Start_conversion 0010  
                                                             intlevel1 0037  
                                       SevenSegment_SelectChip@a_Chip1 0049  
                                       SevenSegment_SelectChip@a_Chip2 0045  
                                       SevenSegment_SelectChip@a_Chip3 0046  
                                       SevenSegment_SelectChip@a_Chip4 0047  
                                                     _EEPROM_Read_Byte 168F  
                                                     ___lldiv@dividend 0043  
                                                     ??_ADC_Read_value 0041  
                                                     _EEPROM_Save_Byte 14AC  
                                           ??_Scheduler_Initialization 0052  
                                        _Heater_On_Off_Button_Task$298 004D  
                                             EEPROM_Save_Byte@a_u8Data 0046  
                                        ?_Peripherals_interrupt_enable 0070  
                                                     ?_Heater_turn_off 0070  
                                         __end_of_Scheduler_Dispatcher 05FB  
                                               ??_Timer1_write_counter 0072  
                                         __end_of_GPIO_SetPinDirection 0170  
                                  __end_of_Heater_Heating_Cooling_Task 0D95  
                                          _Heater_Heating_Cooling_Task 0D0C  
                                                     ___lldiv@quotient 0048  
                                               ??_SevenSegment_Display 0049  
                                         __end_of_initialization_Tasks 0C85  
                                        ?_Timer1_set_callback_function 0070  
                                            ??_I2C_master_send_address 0040  
                                                  _g_u8End_setup_state 0035  
                                 I2C_master_send_address@a_I2C_Address 0043  
                                                 _I2C_master_send_data 14F8  
                             __end_of_Timer1_enable_overflow_interrupt 13FA  
                            __size_of_Timer1_enable_overflow_interrupt 0004  
                                   ??_Timer1_enable_overflow_interrupt 003F  
                                    ?_Timer1_enable_overflow_interrupt 0070  
                                     _Timer1_enable_overflow_interrupt 13F6  
